
RF_CH582M.elf:     file format elf32-littleriscv
RF_CH582M.elf
architecture: riscv:rv32, flags 0x00000112:
EXEC_P, HAS_SYMS, D_PAGED
start address 0x00000000

Program Header:
    LOAD off    0x00001000 vaddr 0x00000000 paddr 0x00000000 align 2**12
         filesz 0x00000004 memsz 0x00000004 flags r-x
    LOAD off    0x00002000 vaddr 0x20000000 paddr 0x00000004 align 2**12
         filesz 0x0000174c memsz 0x0000174c flags r-x
    LOAD off    0x00003750 vaddr 0x00001750 paddr 0x00001750 align 2**12
         filesz 0x00004e08 memsz 0x00004e08 flags r-x
    LOAD off    0x0000874c vaddr 0x2000174c paddr 0x00006558 align 2**12
         filesz 0x0000000c memsz 0x00001cfc flags rw-

Sections:
Idx Name            Size      VMA       LMA       File off  Algn  Flags
  0 .init           00000004  00000000  00000000  00001000  2**1  CONTENTS, ALLOC, LOAD, READONLY, CODE
  1 .highcodelalign 00000000  00000004  00000004  00008758  2**0  CONTENTS
  2 .highcode       0000174c  20000000  00000004  00002000  2**1  CONTENTS, ALLOC, LOAD, READONLY, CODE
  3 .text           00004e08  00001750  00001750  00003750  2**2  CONTENTS, ALLOC, LOAD, READONLY, CODE
  4 .fini           00000000  00006558  00006558  00008758  2**0  CONTENTS, ALLOC, LOAD, CODE
  5 .dalign         00000000  2000174c  2000174c  00008758  2**0  CONTENTS
  6 .dlalign        00000000  00006558  00006558  00008758  2**0  CONTENTS
  7 .data           0000000c  2000174c  00006558  0000874c  2**2  CONTENTS, ALLOC, LOAD, DATA
  8 .bss            00001cf0  20001758  00006564  00008758  2**3  ALLOC
  9 .stack          00000000  20008000  20008000  00008758  2**0  CONTENTS
 10 .debug_info     0000dd50  00000000  00000000  00008758  2**0  CONTENTS, READONLY, DEBUGGING
 11 .debug_abbrev   00002405  00000000  00000000  000164a8  2**0  CONTENTS, READONLY, DEBUGGING
 12 .debug_loc      00001e37  00000000  00000000  000188ad  2**0  CONTENTS, READONLY, DEBUGGING
 13 .debug_aranges  000003e8  00000000  00000000  0001a6e8  2**3  CONTENTS, READONLY, DEBUGGING
 14 .debug_ranges   000003e0  00000000  00000000  0001aad0  2**3  CONTENTS, READONLY, DEBUGGING
 15 .debug_line     00007548  00000000  00000000  0001aeb0  2**0  CONTENTS, READONLY, DEBUGGING
 16 .debug_str      00001eb4  00000000  00000000  000223f8  2**0  CONTENTS, READONLY, DEBUGGING
 17 .comment        00000033  00000000  00000000  000242ac  2**0  CONTENTS, READONLY
 18 .debug_frame    00000878  00000000  00000000  000242e0  2**2  CONTENTS, READONLY, DEBUGGING
SYMBOL TABLE:
00000000 l    d  .init	00000000 .init
00000004 l    d  .highcodelalign	00000000 .highcodelalign
20000000 l    d  .highcode	00000000 .highcode
00001750 l    d  .text	00000000 .text
00006558 l    d  .fini	00000000 .fini
2000174c l    d  .dalign	00000000 .dalign
00006558 l    d  .dlalign	00000000 .dlalign
2000174c l    d  .data	00000000 .data
20001758 l    d  .bss	00000000 .bss
20008000 l    d  .stack	00000000 .stack
00000000 l    d  .debug_info	00000000 .debug_info
00000000 l    d  .debug_abbrev	00000000 .debug_abbrev
00000000 l    d  .debug_loc	00000000 .debug_loc
00000000 l    d  .debug_aranges	00000000 .debug_aranges
00000000 l    d  .debug_ranges	00000000 .debug_ranges
00000000 l    d  .debug_line	00000000 .debug_line
00000000 l    d  .debug_str	00000000 .debug_str
00000000 l    d  .comment	00000000 .comment
00000000 l    d  .debug_frame	00000000 .debug_frame
00000000 l    df *ABS*	00000000 ./Startup/startup_CH583.o
20000000 l       .highcode	00000000 _vector_base
00000000 l    df *ABS*	00000000 CH58x_sys.c
00000000 l    df *ABS*	00000000 ISP.c
00000000 l    df *ABS*	00000000 RTC.c
00000000 l    df *ABS*	00000000 USB.c
00000000 l    df *ABS*	00000000 RF_main.c
00000000 l    df *ABS*	00000000 ISP583.c
20000398 l       .highcode	00000000 .loop18
200003a6 l       .highcode	00000000 .loop29
200003b4 l       .highcode	00000000 .loop40
20000640 l       .highcode	00000000 .loop402
00000000 l    df *ABS*	00000000 tmos.c
00002d52 l     F .text	00000024 tmosFindTask
00000000 l    df *ABS*	00000000 tmos_hw.c
20000bf6 l     F .highcode	00000032 clockGetHSEValue
20000c28 l     F .highcode	00000018 clockGetLSEValue
0000344a l     F .text	00000056 clockGetTickValve
00000000 l    df *ABS*	00000000 bb.c
00000000 l    df *ABS*	00000000 ip.c
00000000 l    df *ABS*	00000000 lle.c
00000000 l    df *ABS*	00000000 rf_fh.c
00004820 l     F .text	00000582 rfRxProcess
00000000 l    df *ABS*	00000000 rfend.c
00000000 l    df *ABS*	00000000 memory.c
00000000 l    df *ABS*	00000000 CH58x_adc.c
00000000 l    df *ABS*	00000000 CH58x_clk.c
00000000 l    df *ABS*	00000000 CH58x_gpio.c
00000000 l    df *ABS*	00000000 CH58x_usbdev.c
00000000 l    df *ABS*	00000000 LED.c
00001e22 l     F .text	0000009c HalLedBlink.part.2
00001f0a l     F .text	00000056 HalLedSet.part.1
20001760 l     O .bss	00000034 HalLedStatusControl
20001758 l     O .bss	00000001 HalLedState
20001759 l     O .bss	00000001 preBlinkState
00000000 l    df *ABS*	00000000 MCU.c
00000000 l    df *ABS*	00000000 RF_PHY.c
00000000 l    df *ABS*	00000000 message.c
00000000 l    df *ABS*	00000000 tmos_snv.c
00000000 l    df *ABS*	00000000 ll_connect.c
00000000 l    df *ABS*	00000000 ll_scan.c
00000000 l    df *ABS*	00000000 ll_initiate.c
00000000 l    df *ABS*	00000000 memcpy.c
20003314 g     O .bss	00000001 nGA2440
00001df6 g     F .text	00000016 DevEP3_IN_Deal
00002b00 g     F .text	000000a0 RF_2G4StatusCallBack
20000d90 g     F .highcode	0000003e ll_rx_wait_finish
00001dca g     F .text	00000016 DevEP1_IN_Deal
200003b4 g     F .highcode	0000000e FLASH_ROM_OUT
20001750 g     O .data	00000001 usbTaskID
200009f2 g     F .highcode	00000204 TMOS_SystemProcess
00005146 g     F .text	00000034 RFEND_Reset
00002614 g     F .text	000004ec USB_DevTransProcess
20001f50 g       .data	00000000 __global_pointer$
000017fe g     F .text	00000028 ADC_InterTSSampInit
200002ac g     F .highcode	0000000e mDelayuS
20000272  w    F .highcode	0000003a HardFault_Handler
200000a2  w      .highcode	00000000 GPIOB_IRQHandler
00002236 g     F .text	00000076 HAL_ProcessEvent
200000a0  w      .highcode	00000000 GPIOA_IRQHandler
200032b0 g     O .bss	00000004 gptrBBReg
00003298 g     F .text	0000003c TMOS_ProcessEventRegister
2000009a  w      .highcode	00000000 SysTick_Handler
000025c8 g     F .text	00000026 DevEP3_OUT_Deal
00002fae g     F .text	00000032 TMOS_GetSystemClock
20001a04 g     O .bss	00000001 RFtaskID
20000090  w      .highcode	00000000 NMI_Handler
200007e4 g     F .highcode	00000012 tmos_memset
200008a8 g     F .highcode	0000014a tmos_proces_system_time
200000b4  w      .highcode	00000000 UART1_IRQHandler
00001fc0 g     F .text	00000036 HAL_LedInit
20000e98 g     F .highcode	00000124 ll_tx_wait_finish
00003978 g     F .text	000000b4 BB_DevInit
200007f6 g     F .highcode	00000014 tmos_strlen
20000dce g     F .highcode	000000ca ble_ll_chkcrc
20000886 g     F .highcode	00000022 tmos_isbufset
20001758 g       .bss	00000000 _sbss
00004eb6 g     F .text	0000014a rf_hop_heart_beat
00004da2 g     F .text	00000090 RF_Shut
200017a8 g     O .bss	00000004 RTCTigFlag
200003a6 g     F .highcode	0000000e FLASH_ROM_IN
000040a0 g     F .text	00000198 RF_TxProcess
200017ac g     O .bss	00000001 DevConfig
00006540 g     O .text	00000014 VER_LIB
000035ca g     F .text	000000c0 tmos_snv_init
00005000 g     F .text	000000f4 RFFH_ProcessEvent
0000244c g     F .text	000000d8 USB_ProcessEvent
200000b2  w      .highcode	00000000 UART0_IRQHandler
2000320c g     O .bss	0000002c gTmosPara
000064ec g     O .text	00000012 MyDevDescr
000062de g     F .text	000000b6 memcpy
200017ae g     O .bss	00000002 SetupReqLen
20003320 g     O .bss	00000004 MemCtlEnd
00000004 g       .init	00000000 _einit
20003238 g     O .bss	00000004 tasksArr
20003324 g     O .bss	00000004 MemCtlPartition
20000c42 g     F .highcode	0000014e BB_IRQLibHandler
2000117e g     F .highcode	00000212 LLE_IRQLibHandler
2000323c g     O .bss	0000001c pfnProcessCBs
200000a6  w      .highcode	00000000 BB_IRQHandler
20000442 g     F .highcode	0000036a FLASH_EEPROM_CMD
000060be g     F .text	00000014 RFEND_TXFtune
20000098  w      .highcode	00000000 Break_Point_Handler
00001c5a g     F .text	000000a6 GPIOB_ModeCfg
200017b0 g     O .bss	00000001 SetupReqCode
2000032c g     F .highcode	00000030 SoftReset
000052ee g     F .text	00000080 RFEND_RXFilter
00002184 g     F .text	00000040 Lib_Write_Flash
00006554 g     O .text	00000004 MyLangDescr
2000009e  w      .highcode	00000000 TMR0_IRQHandler
20001592 g     F .highcode	000000d2 tmos_memory_allocate
20003258 g     O .bss	00000002 eventsClear
20000386 g     F .highcode	00000012 FLASH_ROM_BEG
0000640c g     O .text	0000003e KeyRepDesc
20001754 g     O .data	00000002 CAPSLOCK_DATA
2000086a g     F .highcode	0000001c tmos_revmemcpy
00002d76 g     F .text	00000086 TMOS_CB_PeriodicProcessEvent
200002ba g     F .highcode	00000028 mDelaymS
20000094  w      .highcode	00000000 Ecall_M_Mode_Handler
00003c8c g     F .text	000000a4 ll_multi_states_process
00006480 g     O .text	0000006b MyCfgDescr
0000381a g     F .text	0000015e LL_ScanSetRF
200003c2 g     F .highcode	00000048 FLASH_ROM_ADDR
0000368a g     F .text	00000190 LL_GetNextConnectEventTime
20001390 g     F .highcode	00000082 RF_HopGetChannel
200017a4 g     O .bss	00000001 halTaskID
2000037e g     F .highcode	00000008 Main_Circulation
200032a8 g     O .bss	00000004 fnGetClockCBs
000032d4 g     F .text	00000176 BLE_LibInit
00006500 g     O .text	0000000e MyManuInfo
00003ef2 g     F .text	00000058 LLE_DevInit
00003a2c g     F .text	0000012c BLE_SetPHYTxMode
20003328 g     O .bss	00000004 MemCtlStart
20001562 g     F .highcode	00000030 RFEND_WaitTune
00004238 g     F .text	0000011e RF_Config
00004356 g     F .text	000002c6 RF_Tx
00002fe0 g     F .text	0000002e tmos_set_event
2000035c g     F .highcode	00000016 RTC_IRQHandler
20003448 g       .bss	00000000 _ebss
00006176 g     F .text	00000168 LL_InitiateSetRF
000034a0 g     F .text	00000062 TMOS_TempSample
200017b4 g     O .bss	00000004 pDescr
200017b8 g     O .bss	000000c0 EP0_Databuf
00003c58 g     F .text	00000034 ll_multi_states_check
000023c0 g     F .text	00000036 HAL_Init
2000040a g     F .highcode	00000038 FLASH_ROM_WAIT
00003d30 g     F .text	0000008c ble_ll_hw_api_shut
00001f7c g     F .text	00000044 HalLedSet
20000fbc g     F .highcode	000001c2 BLE_CheckHoppingMap
20003315 g     O .bss	00000001 nGA2480
200032ac g     O .bss	00000004 gptrAESReg
00004e32 g     F .text	00000084 RF_FrequencyHoppingShut
0000517a g     F .text	00000174 RFEND_DevInit
000022ac g     F .text	00000114 CH58X_BLEInit
200000c0  w      .highcode	00000000 UART2_IRQHandler
00001ebe g     F .text	0000004c HalLedOnOff
200000bc  w      .highcode	00000000 PWMX_IRQHandler
20003208 g     O .bss	00000004 msg_qHead
00003b58 g     F .text	00000100 BLE_SetPHYRxMode
2000175b g     O .bss	00000001 nCO2401
200032b4 g     O .bss	00000004 gPaControl
20001878 g     O .bss	00000080 EP1_Databuf
00000000 g       .init	00000000 _start
0000461c g     F .text	00000204 RF_Rx
00001e0c g     F .text	00000016 DevEP4_IN_Deal
00003e76 g     F .text	0000007c BLE_IPCoreInit
200000b8  w      .highcode	00000000 ADC_IRQHandler
20001794 g     O .bss	00000004 pEP2_RAM_Addr
20000000 g       .highcode	00000000 _highcode_vma_start
2000080a g     F .highcode	00000032 tmos_memdup
2000325c g     O .bss	00000004 EventsArr
200000b0  w      .highcode	00000000 TMR2_IRQHandler
0000651c g     O .text	00000021 VolumeRepDesc
2000174c g       .data	00000000 _data_vma
20001798 g     O .bss	00000004 pEP3_RAM_Addr
20003318 g     O .bss	00000004 gptrRFENDReg
0000644c g     O .text	00000034 MouseRepDesc
200018f8 g     O .bss	00000009 HID_dat
20001904 g     O .bss	00000080 EP2_Databuf
200000c6 g     F .highcode	00000170 SetSysClock
2000175d g     O .bss	00000001 l2capNumRecvDataPkts
20000372 g     F .highcode	0000000c USB_IRQHandler
000025a2 g     F .text	00000026 DevEP2_OUT_Deal
20003330 g     O .bss	00000118 gBleLlPara
20000c40 g     F .highcode	00000002 TMOS_TimerIRQHandler
0000257c g     F .text	00000026 DevEP1_OUT_Deal
20001412 g     F .highcode	000000b6 RF_FrequencyHoppingGet
20001a08 g     O .bss	00001800 MEM_BUF
200032d8 g     O .bss	00000020 rfConfig
000060d2 g     F .text	0000002c tmos_memory_getlen
2000179c g     O .bss	00000004 pEP0_RAM_Addr
2000083c g     F .highcode	0000002e tmos_memcmp
00001d4c g     F .text	0000007e USB_DeviceInit
200000ba  w      .highcode	00000000 I2C_IRQHandler
200032d4 g     O .bss	00000004 gptrLLEReg
00002c82 g     F .text	0000002a main
00002dfc g     F .text	00000080 TMOS_CB_ProcessEvent
00001f60 g     F .text	0000001c HalLedBlink
200014c8 g     F .highcode	0000009a RF_FrequencyHoppingChange
000050f4 g     F .text	00000052 RF_RoleInit
20001664 g     F .highcode	000000e8 tmos_memory_free
00002524 g     F .text	00000058 HAL_USBInit
200000ac  w      .highcode	00000000 USB2_IRQHandler
00003dbc g     F .text	000000ba BLE_RegInit
000031a2 g     F .text	000000f6 TMOS_Init
00003040 g     F .text	000000e0 tmos_start_task
00006510 g     O .text	0000000a MyProdInfo
000023f6 g     F .text	00000056 HAL_TimeInit
2000175a g     O .bss	00000001 USB_Ready
00002ba0 g     F .text	0000006a RF_ProcessEvent
00000004 g       .highcodelalign	00000000 _highcode_lma
00002c0a g     F .text	00000078 RF_Init
00003120 g     F .text	0000004e tmos_stop_task
200000a8  w      .highcode	00000000 LLE_IRQHandler
00000000 g       .init	00000000 _sinit
00001de0 g     F .text	00000016 DevEP2_IN_Deal
20003260 g     O .bss	00000004 taskHead
00001ff6 g     F .text	0000016c HalLedUpdate
000060fe g     F .text	00000078 tmos_memory_init
0000536e g     F .text	0000003a RFEND_RXAdc
00004082 g     F .text	0000001e rf_stop
200000c4  w      .highcode	00000000 WDOG_BAT_IRQHandler
20000096  w      .highcode	00000000 Ecall_U_Mode_Handler
200000be  w      .highcode	00000000 TMR3_IRQHandler
00002162 g     F .text	00000006 Lib_Calibration_LSI
20008000 g       .stack	00000000 _eusrstack
2000009c  w      .highcode	00000000 SW_Handler
200007cc g     F .highcode	00000018 tmos_memcpy_word
20003264 g     O .bss	0000003c ble
2000331c g     O .bss	00000001 nCO2440
00001d00 g     F .text	00000042 GetSysClock
2000175c g     O .bss	00000001 nGA2401
20001758 g       .data	00000000 _edata
200000a4  w      .highcode	00000000 SPI0_IRQHandler
00002cac g     F .text	0000002c tmos_msg_deallocate
2000174c g       .highcode	00000000 _highcode_vma_end
200032a0 g     O .bss	00000004 cbTimersHead
00006558 g       .dlalign	00000000 _data_lma
0000300e g     F .text	00000032 tmos_clear_event
000021c4 g     F .text	00000072 HAL_GetInterTempValue
00002168 g     F .text	0000001c Lib_Read_Flash
200007ac g     F .highcode	00000020 tmos_memcpy
200032b8 g     O .bss	0000001c gBleIPPara
00001d42 g     F .text	0000000a SYS_GetSysTickCnt
00001750  w      .text	00000000 handle_reset
200002e2 g     F .highcode	0000004a APPJumpBoot
00002e7c g     F .text	00000132 tmos_proces_sleep
000053a8 g     F .text	00000d16 RFEND_TXCtune
20001984 g     O .bss	00000080 EP3_Databuf
200000c2  w      .highcode	00000000 UART3_IRQHandler
00001acc g     F .text	0000018e RTC_InitTime
0000318c g     F .text	00000016 TMOS_ProcessRegister
20000398 g     F .highcode	0000000e FLASH_ROM_END
00002cd8 g     F .text	00000070 tmos_msg_receive
200032f8 g     O .bss	0000001c rfInfo
0000316e g     F .text	0000001e TMOS_TimerRegister
000025ee g     F .text	00000026 DevEP4_OUT_Deal
2000331d g     O .bss	00000001 nCO2480
200000ae  w      .highcode	00000000 TMR1_IRQHandler
00003502 g     F .text	000000c8 TMOS_TimerInit
00001826 g     F .text	000002a6 Calibration_LSI
200017a0 g     O .bss	00000004 pEP1_RAM_Addr
200032a4 g     O .bss	00000004 pfnTimerCBs
00002d48 g     F .text	0000000a tmos_msg_init
00003f4a g     F .text	00000138 RF_DevSetChannel
20000236 g     F .highcode	0000003c SYS_ResetExecute



Disassembly of section .init:

00000000 <_sinit>:
_start():
E:\Project\tp78\mounriver_project\RF_CH582M\obj/../Startup/startup_CH583.S:15

	.section	.init,"ax",@progbits
	.global	_start
	.align	1
_start:
	j	handle_reset
   0:	7500106f          	j	1750 <handle_reset>

Disassembly of section .highcode:

20000000 <_highcode_vma_start>:
	...
_vector_base():
20000008:	0090                	addi	a2,sp,64
2000000a:	2000                	fld	fs0,0(s0)
2000000c:	0272                	slli	tp,tp,0x1c
2000000e:	2000                	fld	fs0,0(s0)
20000010:	bda9                	j	1ffffe6a <_data_lma+0x1fff9912>
20000012:	f5f9                	bnez	a1,1fffffe0 <_data_lma+0x1fff9a88>
20000014:	0094                	addi	a3,sp,64
20000016:	2000                	fld	fs0,0(s0)
	...
20000020:	0096                	slli	ra,ra,0x5
20000022:	2000                	fld	fs0,0(s0)
20000024:	0098                	addi	a4,sp,64
20000026:	2000                	fld	fs0,0(s0)
	...
20000030:	009a                	slli	ra,ra,0x6
20000032:	2000                	fld	fs0,0(s0)
20000034:	0000                	unimp
20000036:	0000                	unimp
20000038:	009c                	addi	a5,sp,64
2000003a:	2000                	fld	fs0,0(s0)
2000003c:	0000                	unimp
2000003e:	0000                	unimp
20000040:	009e                	slli	ra,ra,0x7
20000042:	2000                	fld	fs0,0(s0)
20000044:	00a0                	addi	s0,sp,72
20000046:	2000                	fld	fs0,0(s0)
20000048:	00a2                	slli	ra,ra,0x8
2000004a:	2000                	fld	fs0,0(s0)
2000004c:	00a4                	addi	s1,sp,72
2000004e:	2000                	fld	fs0,0(s0)
20000050:	00a6                	slli	ra,ra,0x9
20000052:	2000                	fld	fs0,0(s0)
20000054:	00a8                	addi	a0,sp,72
20000056:	2000                	fld	fs0,0(s0)
20000058:	0372                	slli	t1,t1,0x1c
2000005a:	2000                	fld	fs0,0(s0)
2000005c:	00ac                	addi	a1,sp,72
2000005e:	2000                	fld	fs0,0(s0)
20000060:	00ae                	slli	ra,ra,0xb
20000062:	2000                	fld	fs0,0(s0)
20000064:	00b0                	addi	a2,sp,72
20000066:	2000                	fld	fs0,0(s0)
20000068:	00b2                	slli	ra,ra,0xc
2000006a:	2000                	fld	fs0,0(s0)
2000006c:	00b4                	addi	a3,sp,72
2000006e:	2000                	fld	fs0,0(s0)
20000070:	035c                	addi	a5,sp,388
20000072:	2000                	fld	fs0,0(s0)
20000074:	00b8                	addi	a4,sp,72
20000076:	2000                	fld	fs0,0(s0)
20000078:	00ba                	slli	ra,ra,0xe
2000007a:	2000                	fld	fs0,0(s0)
2000007c:	00bc                	addi	a5,sp,72
2000007e:	2000                	fld	fs0,0(s0)
20000080:	00be                	slli	ra,ra,0xf
20000082:	2000                	fld	fs0,0(s0)
20000084:	00c0                	addi	s0,sp,68
20000086:	2000                	fld	fs0,0(s0)
20000088:	00c2                	slli	ra,ra,0x10
2000008a:	2000                	fld	fs0,0(s0)
2000008c:	00c4                	addi	s1,sp,68
2000008e:	2000                	fld	fs0,0(s0)

20000090 <NMI_Handler>:
NMI_Handler():
E:\Project\tp78\mounriver_project\RF_CH582M\obj/../Startup/startup_CH583.S:91
    .weak   TMR3_IRQHandler
    .weak   UART2_IRQHandler
    .weak   UART3_IRQHandler
    .weak   WDOG_BAT_IRQHandler

NMI_Handler:         1:  j 1b
20000090:	a001                	j	20000090 <NMI_Handler>
E:\Project\tp78\mounriver_project\RF_CH582M\obj/../Startup/startup_CH583.S:92
HardFault_Handler:   1:  j 1b
20000092:	a001                	j	20000092 <NMI_Handler+0x2>

20000094 <Ecall_M_Mode_Handler>:
Ecall_M_Mode_Handler():
E:\Project\tp78\mounriver_project\RF_CH582M\obj/../Startup/startup_CH583.S:93
Ecall_M_Mode_Handler:   1:  j 1b
20000094:	a001                	j	20000094 <Ecall_M_Mode_Handler>

20000096 <Ecall_U_Mode_Handler>:
Ecall_U_Mode_Handler():
E:\Project\tp78\mounriver_project\RF_CH582M\obj/../Startup/startup_CH583.S:94
Ecall_U_Mode_Handler:   1:  j 1b
20000096:	a001                	j	20000096 <Ecall_U_Mode_Handler>

20000098 <Break_Point_Handler>:
Break_Point_Handler():
E:\Project\tp78\mounriver_project\RF_CH582M\obj/../Startup/startup_CH583.S:95
Break_Point_Handler:   1:  j 1b
20000098:	a001                	j	20000098 <Break_Point_Handler>

2000009a <SysTick_Handler>:
SysTick_Handler():
E:\Project\tp78\mounriver_project\RF_CH582M\obj/../Startup/startup_CH583.S:96
SysTick_Handler:     1:  j 1b
2000009a:	a001                	j	2000009a <SysTick_Handler>

2000009c <SW_Handler>:
SW_Handler():
E:\Project\tp78\mounriver_project\RF_CH582M\obj/../Startup/startup_CH583.S:97
SW_Handler:          1:  j 1b
2000009c:	a001                	j	2000009c <SW_Handler>

2000009e <TMR0_IRQHandler>:
TMR0_IRQHandler():
E:\Project\tp78\mounriver_project\RF_CH582M\obj/../Startup/startup_CH583.S:98
TMR0_IRQHandler:     1:  j 1b
2000009e:	a001                	j	2000009e <TMR0_IRQHandler>

200000a0 <GPIOA_IRQHandler>:
GPIOA_IRQHandler():
E:\Project\tp78\mounriver_project\RF_CH582M\obj/../Startup/startup_CH583.S:99
GPIOA_IRQHandler:    1:  j 1b
200000a0:	a001                	j	200000a0 <GPIOA_IRQHandler>

200000a2 <GPIOB_IRQHandler>:
GPIOB_IRQHandler():
E:\Project\tp78\mounriver_project\RF_CH582M\obj/../Startup/startup_CH583.S:100
GPIOB_IRQHandler:    1:  j 1b
200000a2:	a001                	j	200000a2 <GPIOB_IRQHandler>

200000a4 <SPI0_IRQHandler>:
SPI0_IRQHandler():
E:\Project\tp78\mounriver_project\RF_CH582M\obj/../Startup/startup_CH583.S:101
SPI0_IRQHandler:     1:  j 1b
200000a4:	a001                	j	200000a4 <SPI0_IRQHandler>

200000a6 <BB_IRQHandler>:
BB_IRQHandler():
E:\Project\tp78\mounriver_project\RF_CH582M\obj/../Startup/startup_CH583.S:102
BB_IRQHandler:       1:  j 1b
200000a6:	a001                	j	200000a6 <BB_IRQHandler>

200000a8 <LLE_IRQHandler>:
LLE_IRQHandler():
E:\Project\tp78\mounriver_project\RF_CH582M\obj/../Startup/startup_CH583.S:103
LLE_IRQHandler:      1:  j 1b
200000a8:	a001                	j	200000a8 <LLE_IRQHandler>
E:\Project\tp78\mounriver_project\RF_CH582M\obj/../Startup/startup_CH583.S:104
USB_IRQHandler:      1:  j 1b
200000aa:	a001                	j	200000aa <LLE_IRQHandler+0x2>

200000ac <USB2_IRQHandler>:
USB2_IRQHandler():
E:\Project\tp78\mounriver_project\RF_CH582M\obj/../Startup/startup_CH583.S:105
USB2_IRQHandler:      1:  j 1b
200000ac:	a001                	j	200000ac <USB2_IRQHandler>

200000ae <TMR1_IRQHandler>:
TMR1_IRQHandler():
E:\Project\tp78\mounriver_project\RF_CH582M\obj/../Startup/startup_CH583.S:106
TMR1_IRQHandler:     1:  j 1b
200000ae:	a001                	j	200000ae <TMR1_IRQHandler>

200000b0 <TMR2_IRQHandler>:
TMR2_IRQHandler():
E:\Project\tp78\mounriver_project\RF_CH582M\obj/../Startup/startup_CH583.S:107
TMR2_IRQHandler:     1:  j 1b
200000b0:	a001                	j	200000b0 <TMR2_IRQHandler>

200000b2 <UART0_IRQHandler>:
UART0_IRQHandler():
E:\Project\tp78\mounriver_project\RF_CH582M\obj/../Startup/startup_CH583.S:108
UART0_IRQHandler:    1:  j 1b
200000b2:	a001                	j	200000b2 <UART0_IRQHandler>

200000b4 <UART1_IRQHandler>:
UART1_IRQHandler():
E:\Project\tp78\mounriver_project\RF_CH582M\obj/../Startup/startup_CH583.S:109
UART1_IRQHandler:    1:  j 1b
200000b4:	a001                	j	200000b4 <UART1_IRQHandler>
E:\Project\tp78\mounriver_project\RF_CH582M\obj/../Startup/startup_CH583.S:110
RTC_IRQHandler:      1:  j 1b
200000b6:	a001                	j	200000b6 <UART1_IRQHandler+0x2>

200000b8 <ADC_IRQHandler>:
ADC_IRQHandler():
E:\Project\tp78\mounriver_project\RF_CH582M\obj/../Startup/startup_CH583.S:111
ADC_IRQHandler:      1:  j 1b
200000b8:	a001                	j	200000b8 <ADC_IRQHandler>

200000ba <I2C_IRQHandler>:
I2C_IRQHandler():
E:\Project\tp78\mounriver_project\RF_CH582M\obj/../Startup/startup_CH583.S:112
I2C_IRQHandler:		 1:  j 1b
200000ba:	a001                	j	200000ba <I2C_IRQHandler>

200000bc <PWMX_IRQHandler>:
PWMX_IRQHandler():
E:\Project\tp78\mounriver_project\RF_CH582M\obj/../Startup/startup_CH583.S:113
PWMX_IRQHandler:     1:  j 1b
200000bc:	a001                	j	200000bc <PWMX_IRQHandler>

200000be <TMR3_IRQHandler>:
TMR3_IRQHandler():
E:\Project\tp78\mounriver_project\RF_CH582M\obj/../Startup/startup_CH583.S:114
TMR3_IRQHandler:     1:  j 1b
200000be:	a001                	j	200000be <TMR3_IRQHandler>

200000c0 <UART2_IRQHandler>:
UART2_IRQHandler():
E:\Project\tp78\mounriver_project\RF_CH582M\obj/../Startup/startup_CH583.S:115
UART2_IRQHandler:    1:  j 1b
200000c0:	a001                	j	200000c0 <UART2_IRQHandler>

200000c2 <UART3_IRQHandler>:
UART3_IRQHandler():
E:\Project\tp78\mounriver_project\RF_CH582M\obj/../Startup/startup_CH583.S:116
UART3_IRQHandler:    1:  j 1b
200000c2:	a001                	j	200000c2 <UART3_IRQHandler>

200000c4 <WDOG_BAT_IRQHandler>:
WDOG_BAT_IRQHandler():
E:\Project\tp78\mounriver_project\RF_CH582M\obj/../Startup/startup_CH583.S:117
WDOG_BAT_IRQHandler: 1:  j 1b
200000c4:	a001                	j	200000c4 <WDOG_BAT_IRQHandler>

200000c6 <SetSysClock>:
SetSysClock():
E:\Project\tp78\mounriver_project\RF_CH582M\obj/../StdPeriphDriver/CH58x_sys.c:26
 */
__HIGH_CODE
void SetSysClock(SYS_CLKTypeDef sc)
{
    uint32_t i;
    R8_SAFE_ACCESS_SIG = SAFE_ACCESS_SIG1;
200000c6:	400017b7          	lui	a5,0x40001
200000ca:	05700693          	li	a3,87
200000ce:	04d78023          	sb	a3,64(a5) # 40001040 <_eusrstack+0x1fff9040>
E:\Project\tp78\mounriver_project\RF_CH582M\obj/../StdPeriphDriver/CH58x_sys.c:27
    R8_SAFE_ACCESS_SIG = SAFE_ACCESS_SIG2;
200000d2:	fa800713          	li	a4,-88
200000d6:	04e78023          	sb	a4,64(a5)
E:\Project\tp78\mounriver_project\RF_CH582M\obj/../StdPeriphDriver/CH58x_sys.c:28
    SAFEOPERATE;
200000da:	0001                	nop
200000dc:	0001                	nop
E:\Project\tp78\mounriver_project\RF_CH582M\obj/../StdPeriphDriver/CH58x_sys.c:29
    R8_PLL_CONFIG &= ~(1 << 5); //
200000de:	04b7c603          	lbu	a2,75(a5)
200000e2:	0df67613          	andi	a2,a2,223
200000e6:	04c785a3          	sb	a2,75(a5)
E:\Project\tp78\mounriver_project\RF_CH582M\obj/../StdPeriphDriver/CH58x_sys.c:30
    R8_SAFE_ACCESS_SIG = 0;
200000ea:	04078023          	sb	zero,64(a5)
E:\Project\tp78\mounriver_project\RF_CH582M\obj/../StdPeriphDriver/CH58x_sys.c:31
    if(sc & 0x20)
200000ee:	02057613          	andi	a2,a0,32
200000f2:	ce59                	beqz	a2,20000190 <SetSysClock+0xca>
E:\Project\tp78\mounriver_project\RF_CH582M\obj/../StdPeriphDriver/CH58x_sys.c:33
    { // HSE div
        if(!(R8_HFCK_PWR_CTRL & RB_CLK_XT32M_PON))
200000f4:	00a7c603          	lbu	a2,10(a5)
200000f8:	8a11                	andi	a2,a2,4
200000fa:	e21d                	bnez	a2,20000120 <SetSysClock+0x5a>
E:\Project\tp78\mounriver_project\RF_CH582M\obj/../StdPeriphDriver/CH58x_sys.c:35
        {
            R8_SAFE_ACCESS_SIG = SAFE_ACCESS_SIG1;
200000fc:	04d78023          	sb	a3,64(a5)
E:\Project\tp78\mounriver_project\RF_CH582M\obj/../StdPeriphDriver/CH58x_sys.c:36
            R8_SAFE_ACCESS_SIG = SAFE_ACCESS_SIG2;
20000100:	04e78023          	sb	a4,64(a5)
E:\Project\tp78\mounriver_project\RF_CH582M\obj/../StdPeriphDriver/CH58x_sys.c:37
            SAFEOPERATE;
20000104:	0001                	nop
20000106:	0001                	nop
E:\Project\tp78\mounriver_project\RF_CH582M\obj/../StdPeriphDriver/CH58x_sys.c:38
            R8_HFCK_PWR_CTRL |= RB_CLK_XT32M_PON; // HSE power on
20000108:	00a7c703          	lbu	a4,10(a5)
2000010c:	00476713          	ori	a4,a4,4
20000110:	00e78523          	sb	a4,10(a5)
20000114:	4b000793          	li	a5,1200
E:\Project\tp78\mounriver_project\RF_CH582M\obj/../StdPeriphDriver/CH58x_sys.c:41 (discriminator 3)
            for(i = 0; i < 1200; i++)
            {
                __nop();
20000118:	0001                	nop
E:\Project\tp78\mounriver_project\RF_CH582M\obj/../StdPeriphDriver/CH58x_sys.c:42 (discriminator 3)
                __nop();
2000011a:	0001                	nop
2000011c:	17fd                	addi	a5,a5,-1
E:\Project\tp78\mounriver_project\RF_CH582M\obj/../StdPeriphDriver/CH58x_sys.c:39 (discriminator 3)
            for(i = 0; i < 1200; i++)
2000011e:	ffed                	bnez	a5,20000118 <SetSysClock+0x52>
E:\Project\tp78\mounriver_project\RF_CH582M\obj/../StdPeriphDriver/CH58x_sys.c:46
            }
        }

        R8_SAFE_ACCESS_SIG = SAFE_ACCESS_SIG1;
20000120:	400017b7          	lui	a5,0x40001
20000124:	05700693          	li	a3,87
20000128:	04d78023          	sb	a3,64(a5) # 40001040 <_eusrstack+0x1fff9040>
E:\Project\tp78\mounriver_project\RF_CH582M\obj/../StdPeriphDriver/CH58x_sys.c:47
        R8_SAFE_ACCESS_SIG = SAFE_ACCESS_SIG2;
2000012c:	fa800713          	li	a4,-88
20000130:	04e78023          	sb	a4,64(a5)
E:\Project\tp78\mounriver_project\RF_CH582M\obj/../StdPeriphDriver/CH58x_sys.c:48
        SAFEOPERATE;
20000134:	0001                	nop
20000136:	0001                	nop
E:\Project\tp78\mounriver_project\RF_CH582M\obj/../StdPeriphDriver/CH58x_sys.c:49
        R16_CLK_SYS_CFG = (0 << 6) | (sc & 0x1f);
20000138:	897d                	andi	a0,a0,31
2000013a:	00a79423          	sh	a0,8(a5)
E:\Project\tp78\mounriver_project\RF_CH582M\obj/../StdPeriphDriver/CH58x_sys.c:50
        __nop();
2000013e:	0001                	nop
E:\Project\tp78\mounriver_project\RF_CH582M\obj/../StdPeriphDriver/CH58x_sys.c:51
        __nop();
20000140:	0001                	nop
E:\Project\tp78\mounriver_project\RF_CH582M\obj/../StdPeriphDriver/CH58x_sys.c:52
        __nop();
20000142:	0001                	nop
E:\Project\tp78\mounriver_project\RF_CH582M\obj/../StdPeriphDriver/CH58x_sys.c:53
        __nop();
20000144:	0001                	nop
E:\Project\tp78\mounriver_project\RF_CH582M\obj/../StdPeriphDriver/CH58x_sys.c:54
        R8_SAFE_ACCESS_SIG = 0;
20000146:	04078023          	sb	zero,64(a5)
E:\Project\tp78\mounriver_project\RF_CH582M\obj/../StdPeriphDriver/CH58x_sys.c:55
        R8_SAFE_ACCESS_SIG = SAFE_ACCESS_SIG1;
2000014a:	04d78023          	sb	a3,64(a5)
E:\Project\tp78\mounriver_project\RF_CH582M\obj/../StdPeriphDriver/CH58x_sys.c:56
        R8_SAFE_ACCESS_SIG = SAFE_ACCESS_SIG2;
2000014e:	04e78023          	sb	a4,64(a5)
E:\Project\tp78\mounriver_project\RF_CH582M\obj/../StdPeriphDriver/CH58x_sys.c:57
        SAFEOPERATE;
20000152:	0001                	nop
20000154:	0001                	nop
E:\Project\tp78\mounriver_project\RF_CH582M\obj/../StdPeriphDriver/CH58x_sys.c:58
        R8_FLASH_CFG = 0X51;
20000156:	40002737          	lui	a4,0x40002
2000015a:	05100693          	li	a3,81
E:\Project\tp78\mounriver_project\RF_CH582M\obj/../StdPeriphDriver/CH58x_sys.c:90
        if(sc == CLK_SOURCE_PLL_80MHz)
        {
            R8_SAFE_ACCESS_SIG = SAFE_ACCESS_SIG1;
            R8_SAFE_ACCESS_SIG = SAFE_ACCESS_SIG2;
            SAFEOPERATE;
            R8_FLASH_CFG = 0X02;
2000015e:	80d703a3          	sb	a3,-2041(a4) # 40001807 <_eusrstack+0x1fff9807>
E:\Project\tp78\mounriver_project\RF_CH582M\obj/../StdPeriphDriver/CH58x_sys.c:91
            R8_SAFE_ACCESS_SIG = 0;
20000162:	04078023          	sb	zero,64(a5)
E:\Project\tp78\mounriver_project\RF_CH582M\obj/../StdPeriphDriver/CH58x_sys.c:110
        R8_SAFE_ACCESS_SIG = SAFE_ACCESS_SIG2;
        SAFEOPERATE;
        R16_CLK_SYS_CFG |= RB_CLK_SYS_MOD;
    }
    //更改FLASH clk的驱动能力
    R8_SAFE_ACCESS_SIG = SAFE_ACCESS_SIG1;
20000166:	400017b7          	lui	a5,0x40001
2000016a:	05700713          	li	a4,87
2000016e:	04e78023          	sb	a4,64(a5) # 40001040 <_eusrstack+0x1fff9040>
E:\Project\tp78\mounriver_project\RF_CH582M\obj/../StdPeriphDriver/CH58x_sys.c:111
    R8_SAFE_ACCESS_SIG = SAFE_ACCESS_SIG2;
20000172:	fa800713          	li	a4,-88
20000176:	04e78023          	sb	a4,64(a5)
E:\Project\tp78\mounriver_project\RF_CH582M\obj/../StdPeriphDriver/CH58x_sys.c:112
    SAFEOPERATE;
2000017a:	0001                	nop
2000017c:	0001                	nop
E:\Project\tp78\mounriver_project\RF_CH582M\obj/../StdPeriphDriver/CH58x_sys.c:113
    R8_PLL_CONFIG |= 1 << 7;
2000017e:	04b7c703          	lbu	a4,75(a5)
20000182:	08076713          	ori	a4,a4,128
20000186:	04e785a3          	sb	a4,75(a5)
E:\Project\tp78\mounriver_project\RF_CH582M\obj/../StdPeriphDriver/CH58x_sys.c:114
    R8_SAFE_ACCESS_SIG = 0;
2000018a:	04078023          	sb	zero,64(a5)
E:\Project\tp78\mounriver_project\RF_CH582M\obj/../StdPeriphDriver/CH58x_sys.c:115
}
2000018e:	8082                	ret
E:\Project\tp78\mounriver_project\RF_CH582M\obj/../StdPeriphDriver/CH58x_sys.c:62
    else if(sc & 0x40)
20000190:	04057613          	andi	a2,a0,64
20000194:	c641                	beqz	a2,2000021c <SetSysClock+0x156>
E:\Project\tp78\mounriver_project\RF_CH582M\obj/../StdPeriphDriver/CH58x_sys.c:64
        if(!(R8_HFCK_PWR_CTRL & RB_CLK_PLL_PON))
20000196:	00a7c603          	lbu	a2,10(a5)
2000019a:	8a41                	andi	a2,a2,16
2000019c:	e21d                	bnez	a2,200001c2 <SetSysClock+0xfc>
E:\Project\tp78\mounriver_project\RF_CH582M\obj/../StdPeriphDriver/CH58x_sys.c:66
            R8_SAFE_ACCESS_SIG = SAFE_ACCESS_SIG1;
2000019e:	04d78023          	sb	a3,64(a5)
E:\Project\tp78\mounriver_project\RF_CH582M\obj/../StdPeriphDriver/CH58x_sys.c:67
            R8_SAFE_ACCESS_SIG = SAFE_ACCESS_SIG2;
200001a2:	04e78023          	sb	a4,64(a5)
E:\Project\tp78\mounriver_project\RF_CH582M\obj/../StdPeriphDriver/CH58x_sys.c:68
            SAFEOPERATE;
200001a6:	0001                	nop
200001a8:	0001                	nop
E:\Project\tp78\mounriver_project\RF_CH582M\obj/../StdPeriphDriver/CH58x_sys.c:69
            R8_HFCK_PWR_CTRL |= RB_CLK_PLL_PON; // PLL power on
200001aa:	00a7c703          	lbu	a4,10(a5)
200001ae:	01076713          	ori	a4,a4,16
200001b2:	00e78523          	sb	a4,10(a5)
200001b6:	7d000793          	li	a5,2000
E:\Project\tp78\mounriver_project\RF_CH582M\obj/../StdPeriphDriver/CH58x_sys.c:72 (discriminator 3)
                __nop();
200001ba:	0001                	nop
E:\Project\tp78\mounriver_project\RF_CH582M\obj/../StdPeriphDriver/CH58x_sys.c:73 (discriminator 3)
                __nop();
200001bc:	0001                	nop
200001be:	17fd                	addi	a5,a5,-1
E:\Project\tp78\mounriver_project\RF_CH582M\obj/../StdPeriphDriver/CH58x_sys.c:70 (discriminator 3)
            for(i = 0; i < 2000; i++)
200001c0:	ffed                	bnez	a5,200001ba <SetSysClock+0xf4>
E:\Project\tp78\mounriver_project\RF_CH582M\obj/../StdPeriphDriver/CH58x_sys.c:76
        R8_SAFE_ACCESS_SIG = SAFE_ACCESS_SIG1;
200001c2:	400017b7          	lui	a5,0x40001
200001c6:	05700693          	li	a3,87
200001ca:	04d78023          	sb	a3,64(a5) # 40001040 <_eusrstack+0x1fff9040>
E:\Project\tp78\mounriver_project\RF_CH582M\obj/../StdPeriphDriver/CH58x_sys.c:77
        R8_SAFE_ACCESS_SIG = SAFE_ACCESS_SIG2;
200001ce:	fa800713          	li	a4,-88
200001d2:	04e78023          	sb	a4,64(a5)
E:\Project\tp78\mounriver_project\RF_CH582M\obj/../StdPeriphDriver/CH58x_sys.c:78
        SAFEOPERATE;
200001d6:	0001                	nop
200001d8:	0001                	nop
E:\Project\tp78\mounriver_project\RF_CH582M\obj/../StdPeriphDriver/CH58x_sys.c:79
        R16_CLK_SYS_CFG = (1 << 6) | (sc & 0x1f);
200001da:	01f57613          	andi	a2,a0,31
200001de:	04066613          	ori	a2,a2,64
200001e2:	00c79423          	sh	a2,8(a5)
E:\Project\tp78\mounriver_project\RF_CH582M\obj/../StdPeriphDriver/CH58x_sys.c:80
        __nop();
200001e6:	0001                	nop
E:\Project\tp78\mounriver_project\RF_CH582M\obj/../StdPeriphDriver/CH58x_sys.c:81
        __nop();
200001e8:	0001                	nop
E:\Project\tp78\mounriver_project\RF_CH582M\obj/../StdPeriphDriver/CH58x_sys.c:82
        __nop();
200001ea:	0001                	nop
E:\Project\tp78\mounriver_project\RF_CH582M\obj/../StdPeriphDriver/CH58x_sys.c:83
        __nop();
200001ec:	0001                	nop
E:\Project\tp78\mounriver_project\RF_CH582M\obj/../StdPeriphDriver/CH58x_sys.c:84
        R8_SAFE_ACCESS_SIG = 0;
200001ee:	04078023          	sb	zero,64(a5)
E:\Project\tp78\mounriver_project\RF_CH582M\obj/../StdPeriphDriver/CH58x_sys.c:87
            R8_SAFE_ACCESS_SIG = SAFE_ACCESS_SIG1;
200001f2:	04d78023          	sb	a3,64(a5)
E:\Project\tp78\mounriver_project\RF_CH582M\obj/../StdPeriphDriver/CH58x_sys.c:85
        if(sc == CLK_SOURCE_PLL_80MHz)
200001f6:	04600613          	li	a2,70
E:\Project\tp78\mounriver_project\RF_CH582M\obj/../StdPeriphDriver/CH58x_sys.c:88
            R8_SAFE_ACCESS_SIG = SAFE_ACCESS_SIG2;
200001fa:	04e78023          	sb	a4,64(a5)
E:\Project\tp78\mounriver_project\RF_CH582M\obj/../StdPeriphDriver/CH58x_sys.c:85
        if(sc == CLK_SOURCE_PLL_80MHz)
200001fe:	00c51863          	bne	a0,a2,2000020e <SetSysClock+0x148>
E:\Project\tp78\mounriver_project\RF_CH582M\obj/../StdPeriphDriver/CH58x_sys.c:89
            SAFEOPERATE;
20000202:	0001                	nop
20000204:	0001                	nop
E:\Project\tp78\mounriver_project\RF_CH582M\obj/../StdPeriphDriver/CH58x_sys.c:90
            R8_FLASH_CFG = 0X02;
20000206:	40002737          	lui	a4,0x40002
2000020a:	4689                	li	a3,2
2000020c:	bf89                	j	2000015e <SetSysClock+0x98>
E:\Project\tp78\mounriver_project\RF_CH582M\obj/../StdPeriphDriver/CH58x_sys.c:97
            SAFEOPERATE;
2000020e:	0001                	nop
20000210:	0001                	nop
E:\Project\tp78\mounriver_project\RF_CH582M\obj/../StdPeriphDriver/CH58x_sys.c:98
            R8_FLASH_CFG = 0X52;
20000212:	40002737          	lui	a4,0x40002
20000216:	05200693          	li	a3,82
2000021a:	b791                	j	2000015e <SetSysClock+0x98>
E:\Project\tp78\mounriver_project\RF_CH582M\obj/../StdPeriphDriver/CH58x_sys.c:104
        R8_SAFE_ACCESS_SIG = SAFE_ACCESS_SIG1;
2000021c:	04d78023          	sb	a3,64(a5)
E:\Project\tp78\mounriver_project\RF_CH582M\obj/../StdPeriphDriver/CH58x_sys.c:105
        R8_SAFE_ACCESS_SIG = SAFE_ACCESS_SIG2;
20000220:	04e78023          	sb	a4,64(a5)
E:\Project\tp78\mounriver_project\RF_CH582M\obj/../StdPeriphDriver/CH58x_sys.c:106
        SAFEOPERATE;
20000224:	0001                	nop
20000226:	0001                	nop
E:\Project\tp78\mounriver_project\RF_CH582M\obj/../StdPeriphDriver/CH58x_sys.c:107
        R16_CLK_SYS_CFG |= RB_CLK_SYS_MOD;
20000228:	0087d703          	lhu	a4,8(a5)
2000022c:	0c076713          	ori	a4,a4,192
20000230:	00e79423          	sh	a4,8(a5)
20000234:	bf0d                	j	20000166 <SetSysClock+0xa0>

20000236 <SYS_ResetExecute>:
SYS_ResetExecute():
E:\Project\tp78\mounriver_project\RF_CH582M\obj/../StdPeriphDriver/CH58x_sys.c:177
 *
 * @return  none
 */
__HIGH_CODE
void SYS_ResetExecute(void)
{
20000236:	1141                	addi	sp,sp,-16
E:\Project\tp78\mounriver_project\RF_CH582M\obj/../StdPeriphDriver/CH58x_sys.c:178
    FLASH_ROM_SW_RESET();
20000238:	4681                	li	a3,0
2000023a:	4601                	li	a2,0
2000023c:	4581                	li	a1,0
2000023e:	4511                	li	a0,4
E:\Project\tp78\mounriver_project\RF_CH582M\obj/../StdPeriphDriver/CH58x_sys.c:177
{
20000240:	c606                	sw	ra,12(sp)
E:\Project\tp78\mounriver_project\RF_CH582M\obj/../StdPeriphDriver/CH58x_sys.c:178
    FLASH_ROM_SW_RESET();
20000242:	2401                	jal	20000442 <FLASH_EEPROM_CMD>
E:\Project\tp78\mounriver_project\RF_CH582M\obj/../StdPeriphDriver/CH58x_sys.c:179
    R8_SAFE_ACCESS_SIG = SAFE_ACCESS_SIG1;
20000244:	400017b7          	lui	a5,0x40001
20000248:	05700713          	li	a4,87
2000024c:	04e78023          	sb	a4,64(a5) # 40001040 <_eusrstack+0x1fff9040>
E:\Project\tp78\mounriver_project\RF_CH582M\obj/../StdPeriphDriver/CH58x_sys.c:180
    R8_SAFE_ACCESS_SIG = SAFE_ACCESS_SIG2;
20000250:	fa800713          	li	a4,-88
20000254:	04e78023          	sb	a4,64(a5)
E:\Project\tp78\mounriver_project\RF_CH582M\obj/../StdPeriphDriver/CH58x_sys.c:181
    SAFEOPERATE;
20000258:	0001                	nop
2000025a:	0001                	nop
E:\Project\tp78\mounriver_project\RF_CH582M\obj/../StdPeriphDriver/CH58x_sys.c:182
    R8_RST_WDOG_CTRL |= RB_SOFTWARE_RESET;
2000025c:	0467c703          	lbu	a4,70(a5)
20000260:	00176713          	ori	a4,a4,1
20000264:	04e78323          	sb	a4,70(a5)
E:\Project\tp78\mounriver_project\RF_CH582M\obj/../StdPeriphDriver/CH58x_sys.c:183
    R8_SAFE_ACCESS_SIG = 0;
20000268:	04078023          	sb	zero,64(a5)
E:\Project\tp78\mounriver_project\RF_CH582M\obj/../StdPeriphDriver/CH58x_sys.c:184
}
2000026c:	40b2                	lw	ra,12(sp)
2000026e:	0141                	addi	sp,sp,16
20000270:	8082                	ret

20000272 <HardFault_Handler>:
HardFault_Handler():
E:\Project\tp78\mounriver_project\RF_CH582M\obj/../StdPeriphDriver/CH58x_sys.c:316
__INTERRUPT
__HIGH_CODE
__attribute__((weak))
void HardFault_Handler(void)
{
    FLASH_ROM_SW_RESET();
20000272:	4681                	li	a3,0
20000274:	4601                	li	a2,0
20000276:	4581                	li	a1,0
20000278:	4511                	li	a0,4
2000027a:	22e1                	jal	20000442 <FLASH_EEPROM_CMD>
E:\Project\tp78\mounriver_project\RF_CH582M\obj/../StdPeriphDriver/CH58x_sys.c:317
    R8_SAFE_ACCESS_SIG = SAFE_ACCESS_SIG1;
2000027c:	400017b7          	lui	a5,0x40001
20000280:	05700713          	li	a4,87
20000284:	04e78023          	sb	a4,64(a5) # 40001040 <_eusrstack+0x1fff9040>
E:\Project\tp78\mounriver_project\RF_CH582M\obj/../StdPeriphDriver/CH58x_sys.c:318
    R8_SAFE_ACCESS_SIG = SAFE_ACCESS_SIG2;
20000288:	fa800713          	li	a4,-88
2000028c:	04e78023          	sb	a4,64(a5)
E:\Project\tp78\mounriver_project\RF_CH582M\obj/../StdPeriphDriver/CH58x_sys.c:319
    SAFEOPERATE;
20000290:	0001                	nop
20000292:	0001                	nop
E:\Project\tp78\mounriver_project\RF_CH582M\obj/../StdPeriphDriver/CH58x_sys.c:320
    R16_INT32K_TUNE = 0xFFFF;
20000294:	577d                	li	a4,-1
20000296:	02e79623          	sh	a4,44(a5)
E:\Project\tp78\mounriver_project\RF_CH582M\obj/../StdPeriphDriver/CH58x_sys.c:321
    R8_RST_WDOG_CTRL |= RB_SOFTWARE_RESET;
2000029a:	0467c703          	lbu	a4,70(a5)
2000029e:	00176713          	ori	a4,a4,1
200002a2:	04e78323          	sb	a4,70(a5)
E:\Project\tp78\mounriver_project\RF_CH582M\obj/../StdPeriphDriver/CH58x_sys.c:322
    R8_SAFE_ACCESS_SIG = 0;
200002a6:	04078023          	sb	zero,64(a5)
E:\Project\tp78\mounriver_project\RF_CH582M\obj/../StdPeriphDriver/CH58x_sys.c:323 (discriminator 1)
    while(1);
200002aa:	a001                	j	200002aa <HardFault_Handler+0x38>

200002ac <mDelayuS>:
mDelayuS():
E:\Project\tp78\mounriver_project\RF_CH582M\obj/../StdPeriphDriver/CH58x_sys.c:340
__HIGH_CODE
void mDelayuS(uint16_t t)
{
    uint32_t i;
#if(FREQ_SYS == 60000000)
    i = t * 15;
200002ac:	47bd                	li	a5,15
200002ae:	02f50533          	mul	a0,a0,a5
E:\Project\tp78\mounriver_project\RF_CH582M\obj/../StdPeriphDriver/CH58x_sys.c:362 (discriminator 1)
#elif(FREQ_SYS == 1000000)
    i = t >> 2;
#endif
    do
    {
        __nop();
200002b2:	0001                	nop
E:\Project\tp78\mounriver_project\RF_CH582M\obj/../StdPeriphDriver/CH58x_sys.c:363 (discriminator 1)
    } while(--i);
200002b4:	157d                	addi	a0,a0,-1
200002b6:	fd75                	bnez	a0,200002b2 <mDelayuS+0x6>
E:\Project\tp78\mounriver_project\RF_CH582M\obj/../StdPeriphDriver/CH58x_sys.c:364
}
200002b8:	8082                	ret

200002ba <mDelaymS>:
mDelaymS():
E:\Project\tp78\mounriver_project\RF_CH582M\obj/../StdPeriphDriver/CH58x_sys.c:377
 *
 * @return  none
 */
__HIGH_CODE
void mDelaymS(uint16_t t)
{
200002ba:	1141                	addi	sp,sp,-16
200002bc:	c422                	sw	s0,8(sp)
200002be:	c226                	sw	s1,4(sp)
200002c0:	c606                	sw	ra,12(sp)
200002c2:	84aa                	mv	s1,a0
E:\Project\tp78\mounriver_project\RF_CH582M\obj/../StdPeriphDriver/CH58x_sys.c:380
    uint16_t i;

    for(i = 0; i < t; i++)
200002c4:	4401                	li	s0,0
E:\Project\tp78\mounriver_project\RF_CH582M\obj/../StdPeriphDriver/CH58x_sys.c:380 (discriminator 1)
200002c6:	00941763          	bne	s0,s1,200002d4 <mDelaymS+0x1a>
E:\Project\tp78\mounriver_project\RF_CH582M\obj/../StdPeriphDriver/CH58x_sys.c:384
    {
        mDelayuS(1000);
    }
}
200002ca:	40b2                	lw	ra,12(sp)
200002cc:	4422                	lw	s0,8(sp)
200002ce:	4492                	lw	s1,4(sp)
200002d0:	0141                	addi	sp,sp,16
200002d2:	8082                	ret
E:\Project\tp78\mounriver_project\RF_CH582M\obj/../StdPeriphDriver/CH58x_sys.c:380 (discriminator 3)
    for(i = 0; i < t; i++)
200002d4:	0405                	addi	s0,s0,1
E:\Project\tp78\mounriver_project\RF_CH582M\obj/../StdPeriphDriver/CH58x_sys.c:382 (discriminator 3)
        mDelayuS(1000);
200002d6:	3e800513          	li	a0,1000
E:\Project\tp78\mounriver_project\RF_CH582M\obj/../StdPeriphDriver/CH58x_sys.c:380 (discriminator 3)
    for(i = 0; i < t; i++)
200002da:	0442                	slli	s0,s0,0x10
E:\Project\tp78\mounriver_project\RF_CH582M\obj/../StdPeriphDriver/CH58x_sys.c:382 (discriminator 3)
        mDelayuS(1000);
200002dc:	3fc1                	jal	200002ac <mDelayuS>
E:\Project\tp78\mounriver_project\RF_CH582M\obj/../StdPeriphDriver/CH58x_sys.c:380 (discriminator 3)
    for(i = 0; i < t; i++)
200002de:	8041                	srli	s0,s0,0x10
200002e0:	b7dd                	j	200002c6 <mDelaymS+0xc>

200002e2 <APPJumpBoot>:
APPJumpBoot():
E:\Project\tp78\mounriver_project\RF_CH582M\obj/../HAL/ISP.c:15
#include "HAL.h"
#include "CONFIG.h"

__HIGH_CODE
void APPJumpBoot(void)   //此段代码必须运行在RAM中
{
200002e2:	1141                	addi	sp,sp,-16
200002e4:	c606                	sw	ra,12(sp)
E:\Project\tp78\mounriver_project\RF_CH582M\obj/../HAL/ISP.c:16 (discriminator 1)
  while(FLASH_ROM_ERASE(0, EEPROM_BLOCK_SIZE))
200002e6:	6685                	lui	a3,0x1
200002e8:	4601                	li	a2,0
200002ea:	4581                	li	a1,0
200002ec:	4505                	li	a0,1
200002ee:	2a91                	jal	20000442 <FLASH_EEPROM_CMD>
200002f0:	f97d                	bnez	a0,200002e6 <APPJumpBoot+0x4>
E:\Project\tp78\mounriver_project\RF_CH582M\obj/../HAL/ISP.c:20
  {
    ;//ROM 擦4K1个单位，擦0地址起始
  }
  FLASH_ROM_SW_RESET();
200002f2:	4681                	li	a3,0
200002f4:	4601                	li	a2,0
200002f6:	4581                	li	a1,0
200002f8:	4511                	li	a0,4
200002fa:	22a1                	jal	20000442 <FLASH_EEPROM_CMD>
E:\Project\tp78\mounriver_project\RF_CH582M\obj/../HAL/ISP.c:21
  R8_SAFE_ACCESS_SIG = SAFE_ACCESS_SIG1;
200002fc:	400017b7          	lui	a5,0x40001
20000300:	05700713          	li	a4,87
20000304:	04e78023          	sb	a4,64(a5) # 40001040 <_eusrstack+0x1fff9040>
E:\Project\tp78\mounriver_project\RF_CH582M\obj/../HAL/ISP.c:22
  R8_SAFE_ACCESS_SIG = SAFE_ACCESS_SIG2;  //安全访问模式
20000308:	fa800713          	li	a4,-88
2000030c:	04e78023          	sb	a4,64(a5)
E:\Project\tp78\mounriver_project\RF_CH582M\obj/../HAL/ISP.c:23
  SAFEOPERATE;
20000310:	0001                	nop
20000312:	0001                	nop
E:\Project\tp78\mounriver_project\RF_CH582M\obj/../HAL/ISP.c:24
  R16_INT32K_TUNE = 0xFFFF;
20000314:	577d                	li	a4,-1
20000316:	02e79623          	sh	a4,44(a5)
E:\Project\tp78\mounriver_project\RF_CH582M\obj/../HAL/ISP.c:25
  R8_RST_WDOG_CTRL |= RB_SOFTWARE_RESET;
2000031a:	0467c703          	lbu	a4,70(a5)
2000031e:	00176713          	ori	a4,a4,1
20000322:	04e78323          	sb	a4,70(a5)
E:\Project\tp78\mounriver_project\RF_CH582M\obj/../HAL/ISP.c:26
  R8_SAFE_ACCESS_SIG = 0;//进入后执行复位，复位类型为上电复位
20000326:	04078023          	sb	zero,64(a5)
E:\Project\tp78\mounriver_project\RF_CH582M\obj/../HAL/ISP.c:27 (discriminator 1)
  while(1);//营造空片的现象，启动时就会停在BOOT，等烧写，超时时间10s
2000032a:	a001                	j	2000032a <APPJumpBoot+0x48>

2000032c <SoftReset>:
SoftReset():
E:\Project\tp78\mounriver_project\RF_CH582M\obj/../HAL/ISP.c:33
}

__HIGH_CODE
void SoftReset(void)   //软件复位
{
  R8_SAFE_ACCESS_SIG = SAFE_ACCESS_SIG1;
2000032c:	400017b7          	lui	a5,0x40001
20000330:	05700713          	li	a4,87
20000334:	04e78023          	sb	a4,64(a5) # 40001040 <_eusrstack+0x1fff9040>
E:\Project\tp78\mounriver_project\RF_CH582M\obj/../HAL/ISP.c:34
  R8_SAFE_ACCESS_SIG = SAFE_ACCESS_SIG2;  //安全访问模式
20000338:	fa800713          	li	a4,-88
2000033c:	04e78023          	sb	a4,64(a5)
E:\Project\tp78\mounriver_project\RF_CH582M\obj/../HAL/ISP.c:35
  SAFEOPERATE;
20000340:	0001                	nop
20000342:	0001                	nop
E:\Project\tp78\mounriver_project\RF_CH582M\obj/../HAL/ISP.c:36
  R16_INT32K_TUNE = 0xFFFF;
20000344:	577d                	li	a4,-1
20000346:	02e79623          	sh	a4,44(a5)
E:\Project\tp78\mounriver_project\RF_CH582M\obj/../HAL/ISP.c:37
  R8_RST_WDOG_CTRL |= RB_SOFTWARE_RESET;
2000034a:	0467c703          	lbu	a4,70(a5)
2000034e:	00176713          	ori	a4,a4,1
20000352:	04e78323          	sb	a4,70(a5)
E:\Project\tp78\mounriver_project\RF_CH582M\obj/../HAL/ISP.c:38
  R8_SAFE_ACCESS_SIG = 0;
20000356:	04078023          	sb	zero,64(a5)
E:\Project\tp78\mounriver_project\RF_CH582M\obj/../HAL/ISP.c:39 (discriminator 1)
  while(1);
2000035a:	a001                	j	2000035a <SoftReset+0x2e>

2000035c <RTC_IRQHandler>:
RTC_IRQHandler():
E:\Project\tp78\mounriver_project\RF_CH582M\obj/../HAL/RTC.c:58
 */
__INTERRUPT
__HIGH_CODE
void RTC_IRQHandler(void)
{
    R8_RTC_FLAG_CTRL = (RB_RTC_TMR_CLR | RB_RTC_TRIG_CLR);
2000035c:	400017b7          	lui	a5,0x40001
20000360:	03000713          	li	a4,48
20000364:	02e78823          	sb	a4,48(a5) # 40001030 <_eusrstack+0x1fff9030>
E:\Project\tp78\mounriver_project\RF_CH582M\obj/../HAL/RTC.c:59
    RTCTigFlag = 1;
20000368:	4785                	li	a5,1
2000036a:	84f1ac23          	sw	a5,-1960(gp) # 200017a8 <RTCTigFlag>
E:\Project\tp78\mounriver_project\RF_CH582M\obj/../HAL/RTC.c:60
}
2000036e:	30200073          	mret

20000372 <USB_IRQHandler>:
USB_IRQHandler():
E:\Project\tp78\mounriver_project\RF_CH582M\obj/../HAL/USB.c:549

__INTERRUPT
__HIGH_CODE
void USB_IRQHandler( void )     //USB中断服务程序,使用寄存器组1
{
    USB_DevTransProcess();
20000372:	e0002097          	auipc	ra,0xe0002
20000376:	2a2080e7          	jalr	674(ra) # 2614 <USB_DevTransProcess>
E:\Project\tp78\mounriver_project\RF_CH582M\obj/../HAL/USB.c:550
}
2000037a:	30200073          	mret

2000037e <Main_Circulation>:
Main_Circulation():
E:\Project\tp78\mounriver_project\RF_CH582M\obj/../APP/RF_main.c:40
 * @return  none
 */
__HIGH_CODE
__attribute__((noinline))
void Main_Circulation()
{
2000037e:	1141                	addi	sp,sp,-16
20000380:	c606                	sw	ra,12(sp)
E:\Project\tp78\mounriver_project\RF_CH582M\obj/../APP/RF_main.c:43 (discriminator 1)
    while(1)
    {
        TMOS_SystemProcess();
20000382:	2d85                	jal	200009f2 <TMOS_SystemProcess>
20000384:	bffd                	j	20000382 <Main_Circulation+0x4>

20000386 <FLASH_ROM_BEG>:
FLASH_ROM_BEG():
20000386:	80040323          	sb	zero,-2042(s0)
2000038a:	4715                	li	a4,5
2000038c:	80e40323          	sb	a4,-2042(s0)
20000390:	0001                	nop
20000392:	80a40223          	sb	a0,-2044(s0)
20000396:	8082                	ret

20000398 <FLASH_ROM_END>:
FLASH_ROM_END():
20000398:	80640783          	lb	a5,-2042(s0)
2000039c:	fe07cee3          	bltz	a5,20000398 <FLASH_ROM_END>
200003a0:	80040323          	sb	zero,-2042(s0)
200003a4:	8082                	ret

200003a6 <FLASH_ROM_IN>:
FLASH_ROM_IN():
200003a6:	80640783          	lb	a5,-2042(s0)
200003aa:	fe07cee3          	bltz	a5,200003a6 <FLASH_ROM_IN>
200003ae:	80444503          	lbu	a0,-2044(s0)
200003b2:	8082                	ret

200003b4 <FLASH_ROM_OUT>:
FLASH_ROM_OUT():
200003b4:	80640783          	lb	a5,-2042(s0)
200003b8:	fe07cee3          	bltz	a5,200003b4 <FLASH_ROM_OUT>
200003bc:	80a40223          	sb	a0,-2044(s0)
200003c0:	8082                	ret

200003c2 <FLASH_ROM_ADDR>:
FLASH_ROM_ADDR():
200003c2:	1141                	addi	sp,sp,-16
200003c4:	c426                	sw	s1,8(sp)
200003c6:	c24a                	sw	s2,4(sp)
200003c8:	c04e                	sw	s3,0(sp)
200003ca:	c606                	sw	ra,12(sp)
200003cc:	0bf57713          	andi	a4,a0,191
200003d0:	47ad                	li	a5,11
200003d2:	89aa                	mv	s3,a0
200003d4:	892e                	mv	s2,a1
200003d6:	4495                	li	s1,5
200003d8:	00f70663          	beq	a4,a5,200003e4 <FLASH_ROM_ADDR+0x22>
200003dc:	4519                	li	a0,6
200003de:	3765                	jal	20000386 <FLASH_ROM_BEG>
200003e0:	3f65                	jal	20000398 <FLASH_ROM_END>
200003e2:	448d                	li	s1,3
200003e4:	854e                	mv	a0,s3
200003e6:	3745                	jal	20000386 <FLASH_ROM_BEG>
200003e8:	59fd                	li	s3,-1
200003ea:	14fd                	addi	s1,s1,-1
200003ec:	01349863          	bne	s1,s3,200003fc <FLASH_ROM_ADDR+0x3a>
200003f0:	40b2                	lw	ra,12(sp)
200003f2:	44a2                	lw	s1,8(sp)
200003f4:	4912                	lw	s2,4(sp)
200003f6:	4982                	lw	s3,0(sp)
200003f8:	0141                	addi	sp,sp,16
200003fa:	8082                	ret
200003fc:	01095513          	srli	a0,s2,0x10
20000400:	0ff57513          	andi	a0,a0,255
20000404:	3f45                	jal	200003b4 <FLASH_ROM_OUT>
20000406:	0922                	slli	s2,s2,0x8
20000408:	b7cd                	j	200003ea <FLASH_ROM_ADDR+0x28>

2000040a <FLASH_ROM_WAIT>:
FLASH_ROM_WAIT():
2000040a:	1101                	addi	sp,sp,-32
2000040c:	cc26                	sw	s1,24(sp)
2000040e:	ce06                	sw	ra,28(sp)
20000410:	000804b7          	lui	s1,0x80
20000414:	3751                	jal	20000398 <FLASH_ROM_END>
20000416:	4515                	li	a0,5
20000418:	37bd                	jal	20000386 <FLASH_ROM_BEG>
2000041a:	3771                	jal	200003a6 <FLASH_ROM_IN>
2000041c:	3769                	jal	200003a6 <FLASH_ROM_IN>
2000041e:	c62a                	sw	a0,12(sp)
20000420:	3fa5                	jal	20000398 <FLASH_ROM_END>
20000422:	4532                	lw	a0,12(sp)
20000424:	00157793          	andi	a5,a0,1
20000428:	eb89                	bnez	a5,2000043a <FLASH_ROM_WAIT+0x30>
2000042a:	00156513          	ori	a0,a0,1
2000042e:	0ff57513          	andi	a0,a0,255
20000432:	40f2                	lw	ra,28(sp)
20000434:	44e2                	lw	s1,24(sp)
20000436:	6105                	addi	sp,sp,32
20000438:	8082                	ret
2000043a:	14fd                	addi	s1,s1,-1
2000043c:	fce9                	bnez	s1,20000416 <FLASH_ROM_WAIT+0xc>
2000043e:	4501                	li	a0,0
20000440:	bfcd                	j	20000432 <FLASH_ROM_WAIT+0x28>

20000442 <FLASH_EEPROM_CMD>:
FLASH_EEPROM_CMD():
20000442:	7139                	addi	sp,sp,-64
20000444:	dc26                	sw	s1,56(sp)
20000446:	da4a                	sw	s2,52(sp)
20000448:	d84e                	sw	s3,48(sp)
2000044a:	d652                	sw	s4,44(sp)
2000044c:	d456                	sw	s5,40(sp)
2000044e:	d25a                	sw	s6,36(sp)
20000450:	d05e                	sw	s7,32(sp)
20000452:	de06                	sw	ra,60(sp)
20000454:	ce62                	sw	s8,28(sp)
20000456:	cc66                	sw	s9,24(sp)
20000458:	e000e7b7          	lui	a5,0xe000e
2000045c:	577d                	li	a4,-1
2000045e:	0007aa83          	lw	s5,0(a5) # e000e000 <_eusrstack+0xc0006000>
20000462:	c622                	sw	s0,12(sp)
20000464:	0047aa03          	lw	s4,4(a5)
20000468:	18e7a023          	sw	a4,384(a5)
2000046c:	18e7a223          	sw	a4,388(a5)
20000470:	400017b7          	lui	a5,0x40001
20000474:	05700713          	li	a4,87
20000478:	04e78023          	sb	a4,64(a5) # 40001040 <_eusrstack+0x1fff9040>
2000047c:	fa800713          	li	a4,-88
20000480:	04e78023          	sb	a4,64(a5)
20000484:	0447c783          	lbu	a5,68(a5)
20000488:	ff750b93          	addi	s7,a0,-9
2000048c:	84b6                	mv	s1,a3
2000048e:	07e2                	slli	a5,a5,0x18
20000490:	0ffbfb93          	andi	s7,s7,255
20000494:	4685                	li	a3,1
20000496:	89aa                	mv	s3,a0
20000498:	8b2e                	mv	s6,a1
2000049a:	8932                	mv	s2,a2
2000049c:	40002437          	lui	s0,0x40002
200004a0:	87e1                	srai	a5,a5,0x18
200004a2:	5701                	li	a4,-32
200004a4:	0176fa63          	bgeu	a3,s7,200004b8 <FLASH_EEPROM_CMD+0x76>
200004a8:	00d50863          	beq	a0,a3,200004b8 <FLASH_EEPROM_CMD+0x76>
200004ac:	4689                	li	a3,2
200004ae:	02000713          	li	a4,32
200004b2:	00d51363          	bne	a0,a3,200004b8 <FLASH_EEPROM_CMD+0x76>
200004b6:	5701                	li	a4,-32
200004b8:	8fd9                	or	a5,a5,a4
200004ba:	0ff7f793          	andi	a5,a5,255
200004be:	40001cb7          	lui	s9,0x40001
200004c2:	04fc8223          	sb	a5,68(s9) # 40001044 <_eusrstack+0x1fff9044>
200004c6:	4711                	li	a4,4
200004c8:	80e40323          	sb	a4,-2042(s0) # 40001806 <_eusrstack+0x1fff9806>
200004cc:	0ff00513          	li	a0,255
200004d0:	3d5d                	jal	20000386 <FLASH_ROM_BEG>
200004d2:	4c09                	li	s8,2
200004d4:	35d1                	jal	20000398 <FLASH_ROM_END>
200004d6:	117c6d63          	bltu	s8,s7,200005f0 <FLASH_EEPROM_CMD+0x1ae>
200004da:	000705b7          	lui	a1,0x70
200004de:	95da                	add	a1,a1,s6
200004e0:	00078737          	lui	a4,0x78
200004e4:	5579                	li	a0,-2
200004e6:	04e5f263          	bgeu	a1,a4,2000052a <FLASH_EEPROM_CMD+0xe8>
200004ea:	009587b3          	add	a5,a1,s1
200004ee:	02f76e63          	bltu	a4,a5,2000052a <FLASH_EEPROM_CMD+0xe8>
200004f2:	00080b37          	lui	s6,0x80
200004f6:	47a9                	li	a5,10
200004f8:	0165eb33          	or	s6,a1,s6
200004fc:	06f99963          	bne	s3,a5,2000056e <FLASH_EEPROM_CMD+0x12c>
20000500:	e489                	bnez	s1,2000050a <FLASH_EEPROM_CMD+0xc8>
20000502:	4481                	li	s1,0
20000504:	3d51                	jal	20000398 <FLASH_ROM_END>
20000506:	8526                	mv	a0,s1
20000508:	a00d                	j	2000052a <FLASH_EEPROM_CMD+0xe8>
2000050a:	85da                	mv	a1,s6
2000050c:	4509                	li	a0,2
2000050e:	3d55                	jal	200003c2 <FLASH_ROM_ADDR>
20000510:	0905                	addi	s2,s2,1
20000512:	fff94503          	lbu	a0,-1(s2)
20000516:	14fd                	addi	s1,s1,-1
20000518:	0b05                	addi	s6,s6,1
2000051a:	3d69                	jal	200003b4 <FLASH_ROM_OUT>
2000051c:	c481                	beqz	s1,20000524 <FLASH_EEPROM_CMD+0xe2>
2000051e:	0ffb7793          	andi	a5,s6,255
20000522:	f7fd                	bnez	a5,20000510 <FLASH_EEPROM_CMD+0xce>
20000524:	35dd                	jal	2000040a <FLASH_ROM_WAIT>
20000526:	fd69                	bnez	a0,20000500 <FLASH_EEPROM_CMD+0xbe>
20000528:	557d                	li	a0,-1
2000052a:	400017b7          	lui	a5,0x40001
2000052e:	05700713          	li	a4,87
20000532:	04e78023          	sb	a4,64(a5) # 40001040 <_eusrstack+0x1fff9040>
20000536:	fa800713          	li	a4,-88
2000053a:	04e78023          	sb	a4,64(a5)
2000053e:	0447c703          	lbu	a4,68(a5)
20000542:	8b41                	andi	a4,a4,16
20000544:	04e78223          	sb	a4,68(a5)
20000548:	50f2                	lw	ra,60(sp)
2000054a:	e000e7b7          	lui	a5,0xe000e
2000054e:	1157a023          	sw	s5,256(a5) # e000e100 <_eusrstack+0xc0006100>
20000552:	1147a223          	sw	s4,260(a5)
20000556:	54e2                	lw	s1,56(sp)
20000558:	4432                	lw	s0,12(sp)
2000055a:	5952                	lw	s2,52(sp)
2000055c:	59c2                	lw	s3,48(sp)
2000055e:	5a32                	lw	s4,44(sp)
20000560:	5aa2                	lw	s5,40(sp)
20000562:	5b12                	lw	s6,36(sp)
20000564:	5b82                	lw	s7,32(sp)
20000566:	4c72                	lw	s8,28(sp)
20000568:	4ce2                	lw	s9,24(sp)
2000056a:	6121                	addi	sp,sp,64
2000056c:	8082                	ret
2000056e:	47a5                	li	a5,9
20000570:	06f99563          	bne	s3,a5,200005da <FLASH_EEPROM_CMD+0x198>
20000574:	6985                	lui	s3,0x1
20000576:	0ff00913          	li	s2,255
2000057a:	009906b3          	add	a3,s2,s1
2000057e:	012b74b3          	and	s1,s6,s2
20000582:	94b6                	add	s1,s1,a3
20000584:	fff94913          	not	s2,s2
20000588:	009974b3          	and	s1,s2,s1
2000058c:	6b85                	lui	s7,0x1
2000058e:	01697933          	and	s2,s2,s6
20000592:	6b41                	lui	s6,0x10
20000594:	fff98793          	addi	a5,s3,-1 # fff <_einit+0xffb>
20000598:	0127f7b3          	and	a5,a5,s2
2000059c:	e399                	bnez	a5,200005a2 <FLASH_EEPROM_CMD+0x160>
2000059e:	0134fc63          	bgeu	s1,s3,200005b6 <FLASH_EEPROM_CMD+0x174>
200005a2:	0049d993          	srli	s3,s3,0x4
200005a6:	47c1                	li	a5,16
200005a8:	ff37e6e3          	bltu	a5,s3,20000594 <FLASH_EEPROM_CMD+0x152>
200005ac:	bf99                	j	20000502 <FLASH_EEPROM_CMD+0xc0>
200005ae:	6905                	lui	s2,0x1
200005b0:	69c1                	lui	s3,0x10
200005b2:	197d                	addi	s2,s2,-1
200005b4:	b7d9                	j	2000057a <FLASH_EEPROM_CMD+0x138>
200005b6:	0d800513          	li	a0,216
200005ba:	01698863          	beq	s3,s6,200005ca <FLASH_EEPROM_CMD+0x188>
200005be:	02000513          	li	a0,32
200005c2:	01798463          	beq	s3,s7,200005ca <FLASH_EEPROM_CMD+0x188>
200005c6:	08100513          	li	a0,129
200005ca:	85ca                	mv	a1,s2
200005cc:	3bdd                	jal	200003c2 <FLASH_ROM_ADDR>
200005ce:	3d35                	jal	2000040a <FLASH_ROM_WAIT>
200005d0:	dd21                	beqz	a0,20000528 <FLASH_EEPROM_CMD+0xe6>
200005d2:	994e                	add	s2,s2,s3
200005d4:	413484b3          	sub	s1,s1,s3
200005d8:	b7d9                	j	2000059e <FLASH_EEPROM_CMD+0x15c>
200005da:	85da                	mv	a1,s6
200005dc:	452d                	li	a0,11
200005de:	33d5                	jal	200003c2 <FLASH_ROM_ADDR>
200005e0:	94ca                	add	s1,s1,s2
200005e2:	f29900e3          	beq	s2,s1,20000502 <FLASH_EEPROM_CMD+0xc0>
200005e6:	0905                	addi	s2,s2,1
200005e8:	3b7d                	jal	200003a6 <FLASH_ROM_IN>
200005ea:	fea90fa3          	sb	a0,-1(s2) # fff <_einit+0xffb>
200005ee:	bfd5                	j	200005e2 <FLASH_EEPROM_CMD+0x1a0>
200005f0:	fff98793          	addi	a5,s3,-1 # ffff <_data_lma+0x9aa7>
200005f4:	0ff7f793          	andi	a5,a5,255
200005f8:	0cfc6163          	bltu	s8,a5,200006ba <.loop402+0x7a>
200005fc:	041cc783          	lbu	a5,65(s9)
20000600:	08300713          	li	a4,131
20000604:	04f71f63          	bne	a4,a5,20000662 <.loop402+0x22>
20000608:	00080737          	lui	a4,0x80
2000060c:	04eb6b63          	bltu	s6,a4,20000662 <.loop402+0x22>
20000610:	009b07b3          	add	a5,s6,s1
20000614:	001006b7          	lui	a3,0x100
20000618:	04d7f563          	bgeu	a5,a3,20000662 <.loop402+0x22>
2000061c:	00eb4b33          	xor	s6,s6,a4
20000620:	4789                	li	a5,2
20000622:	06f99363          	bne	s3,a5,20000688 <.loop402+0x48>
20000626:	8089                	srli	s1,s1,0x2
20000628:	49d5                	li	s3,21
2000062a:	ec048ce3          	beqz	s1,20000502 <FLASH_EEPROM_CMD+0xc0>
2000062e:	85da                	mv	a1,s6
20000630:	4509                	li	a0,2
20000632:	3b41                	jal	200003c2 <FLASH_ROM_ADDR>
20000634:	0911                	addi	s2,s2,4
20000636:	ffc92703          	lw	a4,-4(s2)
2000063a:	4791                	li	a5,4
2000063c:	80e42023          	sw	a4,-2048(s0)

20000640 <.loop402>:
20000640:	80640703          	lb	a4,-2042(s0)
20000644:	fe074ee3          	bltz	a4,20000640 <.loop402>
20000648:	81340323          	sb	s3,-2042(s0)
2000064c:	17fd                	addi	a5,a5,-1
2000064e:	fbed                	bnez	a5,20000640 <.loop402>
20000650:	14fd                	addi	s1,s1,-1
20000652:	0b11                	addi	s6,s6,4
20000654:	c481                	beqz	s1,2000065c <.loop402+0x1c>
20000656:	0ffb7793          	andi	a5,s6,255
2000065a:	ffe9                	bnez	a5,20000634 <FLASH_EEPROM_CMD+0x1f2>
2000065c:	337d                	jal	2000040a <FLASH_ROM_WAIT>
2000065e:	f571                	bnez	a0,2000062a <FLASH_EEPROM_CMD+0x1e8>
20000660:	b5e1                	j	20000528 <FLASH_EEPROM_CMD+0xe6>
20000662:	400017b7          	lui	a5,0x40001
20000666:	0457c703          	lbu	a4,69(a5) # 40001045 <_eusrstack+0x1fff9045>
2000066a:	000807b7          	lui	a5,0x80
2000066e:	02077713          	andi	a4,a4,32
20000672:	e319                	bnez	a4,20000678 <.loop402+0x38>
20000674:	000787b7          	lui	a5,0x78
20000678:	5579                	li	a0,-2
2000067a:	eafb78e3          	bgeu	s6,a5,2000052a <FLASH_EEPROM_CMD+0xe8>
2000067e:	009b0733          	add	a4,s6,s1
20000682:	f8e7ffe3          	bgeu	a5,a4,20000620 <FLASH_EEPROM_CMD+0x1de>
20000686:	b555                	j	2000052a <FLASH_EEPROM_CMD+0xe8>
20000688:	4785                	li	a5,1
2000068a:	f2f982e3          	beq	s3,a5,200005ae <FLASH_EEPROM_CMD+0x16c>
2000068e:	85da                	mv	a1,s6
20000690:	452d                	li	a0,11
20000692:	3b05                	jal	200003c2 <FLASH_ROM_ADDR>
20000694:	fff48993          	addi	s3,s1,-1 # 7ffff <_data_lma+0x79aa7>
20000698:	e60485e3          	beqz	s1,20000502 <FLASH_EEPROM_CMD+0xc0>
2000069c:	3329                	jal	200003a6 <FLASH_ROM_IN>
2000069e:	0039f793          	andi	a5,s3,3
200006a2:	eb91                	bnez	a5,200006b6 <.loop402+0x76>
200006a4:	80042683          	lw	a3,-2048(s0)
200006a8:	00092703          	lw	a4,0(s2)
200006ac:	00490793          	addi	a5,s2,4
200006b0:	e4e69ae3          	bne	a3,a4,20000504 <FLASH_EEPROM_CMD+0xc2>
200006b4:	893e                	mv	s2,a5
200006b6:	84ce                	mv	s1,s3
200006b8:	bff1                	j	20000694 <.loop402+0x54>
200006ba:	47b5                	li	a5,13
200006bc:	00f99663          	bne	s3,a5,200006c8 <.loop402+0x88>
200006c0:	0b900513          	li	a0,185
200006c4:	31c9                	jal	20000386 <FLASH_ROM_BEG>
200006c6:	bd35                	j	20000502 <FLASH_EEPROM_CMD+0xc0>
200006c8:	47b1                	li	a5,12
200006ca:	0ab00513          	li	a0,171
200006ce:	fef98be3          	beq	s3,a5,200006c4 <.loop402+0x84>
200006d2:	4799                	li	a5,6
200006d4:	04f99163          	bne	s3,a5,20000716 <.loop402+0xd6>
200006d8:	000805b7          	lui	a1,0x80
200006dc:	00bb65b3          	or	a1,s6,a1
200006e0:	452d                	li	a0,11
200006e2:	31c5                	jal	200003c2 <FLASH_ROM_ADDR>
200006e4:	4481                	li	s1,0
200006e6:	4b8d                	li	s7,3
200006e8:	49a1                	li	s3,8
200006ea:	3975                	jal	200003a6 <FLASH_ROM_IN>
200006ec:	01749663          	bne	s1,s7,200006f8 <.loop402+0xb8>
200006f0:	80042783          	lw	a5,-2048(s0)
200006f4:	00f92023          	sw	a5,0(s2)
200006f8:	0485                	addi	s1,s1,1
200006fa:	ff3498e3          	bne	s1,s3,200006ea <.loop402+0xaa>
200006fe:	80042783          	lw	a5,-2048(s0)
20000702:	012b1713          	slli	a4,s6,0x12
20000706:	00075563          	bgez	a4,20000710 <.loop402+0xd0>
2000070a:	00f91223          	sh	a5,4(s2)
2000070e:	bbd5                	j	20000502 <FLASH_EEPROM_CMD+0xc0>
20000710:	00f92223          	sw	a5,4(s2)
20000714:	b3fd                	j	20000502 <FLASH_EEPROM_CMD+0xc0>
20000716:	479d                	li	a5,7
20000718:	02f99963          	bne	s3,a5,2000074a <.loop402+0x10a>
2000071c:	4581                	li	a1,0
2000071e:	04b00513          	li	a0,75
20000722:	3145                	jal	200003c2 <FLASH_ROM_ADDR>
20000724:	44bd                	li	s1,15
20000726:	00092023          	sw	zero,0(s2)
2000072a:	00092223          	sw	zero,4(s2)
2000072e:	59fd                	li	s3,-1
20000730:	399d                	jal	200003a6 <FLASH_ROM_IN>
20000732:	0074f793          	andi	a5,s1,7
20000736:	97ca                	add	a5,a5,s2
20000738:	0007c703          	lbu	a4,0(a5) # 78000 <_data_lma+0x71aa8>
2000073c:	14fd                	addi	s1,s1,-1
2000073e:	8d39                	xor	a0,a0,a4
20000740:	00a78023          	sb	a0,0(a5)
20000744:	ff3496e3          	bne	s1,s3,20000730 <.loop402+0xf0>
20000748:	bb6d                	j	20000502 <FLASH_EEPROM_CMD+0xc0>
2000074a:	47a1                	li	a5,8
2000074c:	04f99263          	bne	s3,a5,20000790 <.loop402+0x150>
20000750:	396d                	jal	2000040a <FLASH_ROM_WAIT>
20000752:	4481                	li	s1,0
20000754:	000b0d63          	beqz	s6,2000076e <.loop402+0x12e>
20000758:	478d                	li	a5,3
2000075a:	03c00493          	li	s1,60
2000075e:	00fb0863          	beq	s6,a5,2000076e <.loop402+0x12e>
20000762:	05000493          	li	s1,80
20000766:	018b0463          	beq	s6,s8,2000076e <.loop402+0x12e>
2000076a:	04400493          	li	s1,68
2000076e:	07c57513          	andi	a0,a0,124
20000772:	d89508e3          	beq	a0,s1,20000502 <FLASH_EEPROM_CMD+0xc0>
20000776:	4519                	li	a0,6
20000778:	3139                	jal	20000386 <FLASH_ROM_BEG>
2000077a:	3939                	jal	20000398 <FLASH_ROM_END>
2000077c:	4505                	li	a0,1
2000077e:	3121                	jal	20000386 <FLASH_ROM_BEG>
20000780:	8526                	mv	a0,s1
20000782:	390d                	jal	200003b4 <FLASH_ROM_OUT>
20000784:	4509                	li	a0,2
20000786:	313d                	jal	200003b4 <FLASH_ROM_OUT>
20000788:	3149                	jal	2000040a <FLASH_ROM_WAIT>
2000078a:	d6051ce3          	bnez	a0,20000502 <FLASH_EEPROM_CMD+0xc0>
2000078e:	bb69                	j	20000528 <FLASH_EEPROM_CMD+0xe6>
20000790:	4791                	li	a5,4
20000792:	00f99963          	bne	s3,a5,200007a4 <.loop402+0x164>
20000796:	06600513          	li	a0,102
2000079a:	36f5                	jal	20000386 <FLASH_ROM_BEG>
2000079c:	3ef5                	jal	20000398 <FLASH_ROM_END>
2000079e:	09900513          	li	a0,153
200007a2:	b70d                	j	200006c4 <.loop402+0x84>
200007a4:	d4098fe3          	beqz	s3,20000502 <FLASH_EEPROM_CMD+0xc0>
200007a8:	54f1                	li	s1,-4
200007aa:	bba9                	j	20000504 <FLASH_EEPROM_CMD+0xc2>

200007ac <tmos_memcpy>:
tmos_memcpy():
200007ac:	cd19                	beqz	a0,200007ca <tmos_memcpy+0x1e>
200007ae:	cd91                	beqz	a1,200007ca <tmos_memcpy+0x1e>
200007b0:	ce09                	beqz	a2,200007ca <tmos_memcpy+0x1e>
200007b2:	4781                	li	a5,0
200007b4:	00f58733          	add	a4,a1,a5
200007b8:	00074683          	lbu	a3,0(a4) # 80000 <_data_lma+0x79aa8>
200007bc:	00f50733          	add	a4,a0,a5
200007c0:	0785                	addi	a5,a5,1
200007c2:	00d70023          	sb	a3,0(a4)
200007c6:	fec797e3          	bne	a5,a2,200007b4 <tmos_memcpy+0x8>
200007ca:	8082                	ret

200007cc <tmos_memcpy_word>:
tmos_memcpy_word():
200007cc:	c919                	beqz	a0,200007e2 <tmos_memcpy_word+0x16>
200007ce:	c991                	beqz	a1,200007e2 <tmos_memcpy_word+0x16>
200007d0:	ca09                	beqz	a2,200007e2 <tmos_memcpy_word+0x16>
200007d2:	0591                	addi	a1,a1,4
200007d4:	ffc5a783          	lw	a5,-4(a1) # 7fffc <_data_lma+0x79aa4>
200007d8:	0511                	addi	a0,a0,4
200007da:	167d                	addi	a2,a2,-1
200007dc:	fef52e23          	sw	a5,-4(a0)
200007e0:	bfc5                	j	200007d0 <tmos_memcpy_word+0x4>
200007e2:	8082                	ret

200007e4 <tmos_memset>:
tmos_memset():
200007e4:	c901                	beqz	a0,200007f4 <tmos_memset+0x10>
200007e6:	c619                	beqz	a2,200007f4 <tmos_memset+0x10>
200007e8:	962a                	add	a2,a2,a0
200007ea:	0505                	addi	a0,a0,1
200007ec:	feb50fa3          	sb	a1,-1(a0)
200007f0:	fea61de3          	bne	a2,a0,200007ea <tmos_memset+0x6>
200007f4:	8082                	ret

200007f6 <tmos_strlen>:
tmos_strlen():
200007f6:	4781                	li	a5,0
200007f8:	00f50733          	add	a4,a0,a5
200007fc:	00070703          	lb	a4,0(a4)
20000800:	e319                	bnez	a4,20000806 <tmos_strlen+0x10>
20000802:	853e                	mv	a0,a5
20000804:	8082                	ret
20000806:	0785                	addi	a5,a5,1
20000808:	bfc5                	j	200007f8 <tmos_strlen+0x2>

2000080a <tmos_memdup>:
tmos_memdup():
2000080a:	1101                	addi	sp,sp,-32
2000080c:	862e                	mv	a2,a1
2000080e:	ca26                	sw	s1,20(sp)
20000810:	84aa                	mv	s1,a0
20000812:	01061513          	slli	a0,a2,0x10
20000816:	04f00593          	li	a1,79
2000081a:	8141                	srli	a0,a0,0x10
2000081c:	cc22                	sw	s0,24(sp)
2000081e:	ce06                	sw	ra,28(sp)
20000820:	c632                	sw	a2,12(sp)
20000822:	571000ef          	jal	ra,20001592 <tmos_memory_allocate>
20000826:	842a                	mv	s0,a0
20000828:	c501                	beqz	a0,20000830 <tmos_memdup+0x26>
2000082a:	4632                	lw	a2,12(sp)
2000082c:	85a6                	mv	a1,s1
2000082e:	3fbd                	jal	200007ac <tmos_memcpy>
20000830:	8522                	mv	a0,s0
20000832:	40f2                	lw	ra,28(sp)
20000834:	4462                	lw	s0,24(sp)
20000836:	44d2                	lw	s1,20(sp)
20000838:	6105                	addi	sp,sp,32
2000083a:	8082                	ret

2000083c <tmos_memcmp>:
tmos_memcmp():
2000083c:	4785                	li	a5,1
2000083e:	c115                	beqz	a0,20000862 <tmos_memcmp+0x26>
20000840:	c18d                	beqz	a1,20000862 <tmos_memcmp+0x26>
20000842:	c205                	beqz	a2,20000862 <tmos_memcmp+0x26>
20000844:	4781                	li	a5,0
20000846:	00f506b3          	add	a3,a0,a5
2000084a:	00f58733          	add	a4,a1,a5
2000084e:	0006c683          	lbu	a3,0(a3) # 100000 <_data_lma+0xf9aa8>
20000852:	00074703          	lbu	a4,0(a4)
20000856:	00e69863          	bne	a3,a4,20000866 <tmos_memcmp+0x2a>
2000085a:	0785                	addi	a5,a5,1
2000085c:	fef615e3          	bne	a2,a5,20000846 <tmos_memcmp+0xa>
20000860:	4785                	li	a5,1
20000862:	853e                	mv	a0,a5
20000864:	8082                	ret
20000866:	4781                	li	a5,0
20000868:	bfed                	j	20000862 <tmos_memcmp+0x26>

2000086a <tmos_revmemcpy>:
tmos_revmemcpy():
2000086a:	fff60793          	addi	a5,a2,-1
2000086e:	95be                	add	a1,a1,a5
20000870:	962a                	add	a2,a2,a0
20000872:	00c51363          	bne	a0,a2,20000878 <tmos_revmemcpy+0xe>
20000876:	8082                	ret
20000878:	15fd                	addi	a1,a1,-1
2000087a:	0015c783          	lbu	a5,1(a1)
2000087e:	0505                	addi	a0,a0,1
20000880:	fef50fa3          	sb	a5,-1(a0)
20000884:	b7fd                	j	20000872 <tmos_revmemcpy+0x8>

20000886 <tmos_isbufset>:
tmos_isbufset():
20000886:	87aa                	mv	a5,a0
20000888:	4501                	li	a0,0
2000088a:	cf81                	beqz	a5,200008a2 <tmos_isbufset+0x1c>
2000088c:	ce09                	beqz	a2,200008a6 <tmos_isbufset+0x20>
2000088e:	963e                	add	a2,a2,a5
20000890:	0785                	addi	a5,a5,1
20000892:	fff7c703          	lbu	a4,-1(a5)
20000896:	00b71763          	bne	a4,a1,200008a4 <tmos_isbufset+0x1e>
2000089a:	fef61be3          	bne	a2,a5,20000890 <tmos_isbufset+0xa>
2000089e:	4505                	li	a0,1
200008a0:	8082                	ret
200008a2:	8082                	ret
200008a4:	4501                	li	a0,0
200008a6:	8082                	ret

200008a8 <tmos_proces_system_time>:
tmos_proces_system_time():
200008a8:	7179                	addi	sp,sp,-48
200008aa:	00003797          	auipc	a5,0x3
200008ae:	9b678793          	addi	a5,a5,-1610 # 20003260 <taskHead>
200008b2:	d422                	sw	s0,40(sp)
200008b4:	4380                	lw	s0,0(a5)
200008b6:	d606                	sw	ra,44(sp)
200008b8:	d226                	sw	s1,36(sp)
200008ba:	d04a                	sw	s2,32(sp)
200008bc:	ce4e                	sw	s3,28(sp)
200008be:	cc52                	sw	s4,24(sp)
200008c0:	ca56                	sw	s5,20(sp)
200008c2:	c85a                	sw	s6,16(sp)
200008c4:	c65e                	sw	s7,12(sp)
200008c6:	c462                	sw	s8,8(sp)
200008c8:	cc5d                	beqz	s0,20000986 <tmos_proces_system_time+0xde>
200008ca:	01c9c937          	lui	s2,0x1c9c
200008ce:	4b81                	li	s7,0
200008d0:	00003a17          	auipc	s4,0x3
200008d4:	9d8a0a13          	addi	s4,s4,-1576 # 200032a8 <fnGetClockCBs>
200008d8:	00003497          	auipc	s1,0x3
200008dc:	98c48493          	addi	s1,s1,-1652 # 20003264 <ble>
200008e0:	37f90913          	addi	s2,s2,895 # 1c9c37f <_data_lma+0x1c95e27>
200008e4:	00003a97          	auipc	s5,0x3
200008e8:	928a8a93          	addi	s5,s5,-1752 # 2000320c <gTmosPara>
200008ec:	a8c009b7          	lui	s3,0xa8c00
200008f0:	57400b37          	lui	s6,0x57400
200008f4:	00245783          	lhu	a5,2(s0)
200008f8:	e395                	bnez	a5,2000091c <tmos_proces_system_time+0x74>
200008fa:	445c                	lw	a5,12(s0)
200008fc:	000b9d63          	bnez	s7,20000916 <tmos_proces_system_time+0x6e>
20000900:	00003717          	auipc	a4,0x3
20000904:	96f72023          	sw	a5,-1696(a4) # 20003260 <taskHead>
20000908:	00c42c03          	lw	s8,12(s0)
2000090c:	8522                	mv	a0,s0
2000090e:	557000ef          	jal	ra,20001664 <tmos_memory_free>
20000912:	8462                	mv	s0,s8
20000914:	a899                	j	2000096a <tmos_proces_system_time+0xc2>
20000916:	00fba623          	sw	a5,12(s7) # 100c <_einit+0x1008>
2000091a:	b7fd                	j	20000908 <tmos_proces_system_time+0x60>
2000091c:	000a2783          	lw	a5,0(s4)
20000920:	9782                	jalr	a5
20000922:	01648683          	lb	a3,22(s1)
20000926:	441c                	lw	a5,8(s0)
20000928:	0606db63          	bgez	a3,2000099e <tmos_proces_system_time+0xf6>
2000092c:	40f50733          	sub	a4,a0,a5
20000930:	08e96763          	bltu	s2,a4,200009be <tmos_proces_system_time+0x116>
20000934:	00003797          	auipc	a5,0x3
20000938:	8e07a423          	sw	zero,-1816(a5) # 2000321c <gTmosPara+0x10>
2000093c:	00245583          	lhu	a1,2(s0)
20000940:	00044503          	lbu	a0,0(s0)
20000944:	e0002097          	auipc	ra,0xe0002
20000948:	69c080e7          	jalr	1692(ra) # 2fe0 <tmos_set_event>
2000094c:	405c                	lw	a5,4(s0)
2000094e:	4458                	lw	a4,12(s0)
20000950:	cfa9                	beqz	a5,200009aa <tmos_proces_system_time+0x102>
20000952:	4414                	lw	a3,8(s0)
20000954:	97b6                	add	a5,a5,a3
20000956:	01648683          	lb	a3,22(s1)
2000095a:	0006c563          	bltz	a3,20000964 <tmos_proces_system_time+0xbc>
2000095e:	0137e363          	bltu	a5,s3,20000964 <tmos_proces_system_time+0xbc>
20000962:	97da                	add	a5,a5,s6
20000964:	c41c                	sw	a5,8(s0)
20000966:	8ba2                	mv	s7,s0
20000968:	843a                	mv	s0,a4
2000096a:	f449                	bnez	s0,200008f4 <tmos_proces_system_time+0x4c>
2000096c:	00003797          	auipc	a5,0x3
20000970:	8a078793          	addi	a5,a5,-1888 # 2000320c <gTmosPara>
20000974:	4b9c                	lw	a5,16(a5)
20000976:	4709                	li	a4,2
20000978:	06f77863          	bgeu	a4,a5,200009e8 <tmos_proces_system_time+0x140>
2000097c:	17f9                	addi	a5,a5,-2
2000097e:	00003717          	auipc	a4,0x3
20000982:	88f72f23          	sw	a5,-1890(a4) # 2000321c <gTmosPara+0x10>
20000986:	50b2                	lw	ra,44(sp)
20000988:	5422                	lw	s0,40(sp)
2000098a:	5492                	lw	s1,36(sp)
2000098c:	5902                	lw	s2,32(sp)
2000098e:	49f2                	lw	s3,28(sp)
20000990:	4a62                	lw	s4,24(sp)
20000992:	4ad2                	lw	s5,20(sp)
20000994:	4b42                	lw	s6,16(sp)
20000996:	4bb2                	lw	s7,12(sp)
20000998:	4c22                	lw	s8,8(sp)
2000099a:	6145                	addi	sp,sp,48
2000099c:	8082                	ret
2000099e:	f8f577e3          	bgeu	a0,a5,2000092c <tmos_proces_system_time+0x84>
200009a2:	40f98733          	sub	a4,s3,a5
200009a6:	972a                	add	a4,a4,a0
200009a8:	b761                	j	20000930 <tmos_proces_system_time+0x88>
200009aa:	000b9763          	bnez	s7,200009b8 <tmos_proces_system_time+0x110>
200009ae:	00003797          	auipc	a5,0x3
200009b2:	8ae7a923          	sw	a4,-1870(a5) # 20003260 <taskHead>
200009b6:	bf89                	j	20000908 <tmos_proces_system_time+0x60>
200009b8:	00eba623          	sw	a4,12(s7)
200009bc:	b7b1                	j	20000908 <tmos_proces_system_time+0x60>
200009be:	50d8                	lw	a4,36(s1)
200009c0:	cf09                	beqz	a4,200009da <tmos_proces_system_time+0x132>
200009c2:	0006df63          	bgez	a3,200009e0 <tmos_proces_system_time+0x138>
200009c6:	40a78533          	sub	a0,a5,a0
200009ca:	010aa783          	lw	a5,16(s5)
200009ce:	00f57663          	bgeu	a0,a5,200009da <tmos_proces_system_time+0x132>
200009d2:	00003797          	auipc	a5,0x3
200009d6:	84a7a523          	sw	a0,-1974(a5) # 2000321c <gTmosPara+0x10>
200009da:	8ba2                	mv	s7,s0
200009dc:	4440                	lw	s0,12(s0)
200009de:	b771                	j	2000096a <tmos_proces_system_time+0xc2>
200009e0:	fea7f3e3          	bgeu	a5,a0,200009c6 <tmos_proces_system_time+0x11e>
200009e4:	97ce                	add	a5,a5,s3
200009e6:	b7c5                	j	200009c6 <tmos_proces_system_time+0x11e>
200009e8:	00003797          	auipc	a5,0x3
200009ec:	8207aa23          	sw	zero,-1996(a5) # 2000321c <gTmosPara+0x10>
200009f0:	bf59                	j	20000986 <tmos_proces_system_time+0xde>

200009f2 <TMOS_SystemProcess>:
TMOS_SystemProcess():
200009f2:	1141                	addi	sp,sp,-16
200009f4:	c422                	sw	s0,8(sp)
200009f6:	00003417          	auipc	s0,0x3
200009fa:	84640413          	addi	s0,s0,-1978 # 2000323c <pfnProcessCBs>
200009fe:	401c                	lw	a5,0(s0)
20000a00:	c606                	sw	ra,12(sp)
20000a02:	c226                	sw	s1,4(sp)
20000a04:	c04a                	sw	s2,0(sp)
20000a06:	c791                	beqz	a5,20000a12 <TMOS_SystemProcess+0x20>
20000a08:	9782                	jalr	a5
20000a0a:	00003797          	auipc	a5,0x3
20000a0e:	8207a923          	sw	zero,-1998(a5) # 2000323c <pfnProcessCBs>
20000a12:	405c                	lw	a5,4(s0)
20000a14:	c391                	beqz	a5,20000a18 <TMOS_SystemProcess+0x26>
20000a16:	9782                	jalr	a5
20000a18:	401c                	lw	a5,0(s0)
20000a1a:	1c079063          	bnez	a5,20000bda <TMOS_SystemProcess+0x1e8>
20000a1e:	00003797          	auipc	a5,0x3
20000a22:	89f7c783          	lbu	a5,-1889(a5) # 200032bd <gBleIPPara+0x5>
20000a26:	8b85                	andi	a5,a5,1
20000a28:	c795                	beqz	a5,20000a54 <TMOS_SystemProcess+0x62>
20000a2a:	00003797          	auipc	a5,0x3
20000a2e:	880789a3          	sb	zero,-1901(a5) # 200032bd <gBleIPPara+0x5>
20000a32:	00003717          	auipc	a4,0x3
20000a36:	88d74703          	lbu	a4,-1907(a4) # 200032bf <gBleIPPara+0x7>
20000a3a:	4791                	li	a5,4
20000a3c:	00e7fc63          	bgeu	a5,a4,20000a54 <TMOS_SystemProcess+0x62>
20000a40:	2e81                	jal	20000d90 <ll_rx_wait_finish>
20000a42:	00003797          	auipc	a5,0x3
20000a46:	87d7c783          	lbu	a5,-1923(a5) # 200032bf <gBleIPPara+0x7>
20000a4a:	17f9                	addi	a5,a5,-2
20000a4c:	078a                	slli	a5,a5,0x2
20000a4e:	97a2                	add	a5,a5,s0
20000a50:	439c                	lw	a5,0(a5)
20000a52:	9782                	jalr	a5
20000a54:	00003917          	auipc	s2,0x3
20000a58:	8a490913          	addi	s2,s2,-1884 # 200032f8 <rfInfo>
20000a5c:	00c94783          	lbu	a5,12(s2)
20000a60:	8b91                	andi	a5,a5,4
20000a62:	c399                	beqz	a5,20000a68 <TMOS_SystemProcess+0x76>
20000a64:	265000ef          	jal	ra,200014c8 <RF_FrequencyHoppingChange>
20000a68:	441c                	lw	a5,8(s0)
20000a6a:	c391                	beqz	a5,20000a6e <TMOS_SystemProcess+0x7c>
20000a6c:	9782                	jalr	a5
20000a6e:	00002497          	auipc	s1,0x2
20000a72:	7ee48493          	addi	s1,s1,2030 # 2000325c <EventsArr>
20000a76:	4098                	lw	a4,0(s1)
20000a78:	00002617          	auipc	a2,0x2
20000a7c:	79564603          	lbu	a2,1941(a2) # 2000320d <gTmosPara+0x1>
20000a80:	00002797          	auipc	a5,0x2
20000a84:	78c7c783          	lbu	a5,1932(a5) # 2000320c <gTmosPara>
20000a88:	00179693          	slli	a3,a5,0x1
20000a8c:	96ba                	add	a3,a3,a4
20000a8e:	0006d683          	lhu	a3,0(a3)
20000a92:	cad5                	beqz	a3,20000b46 <TMOS_SystemProcess+0x154>
20000a94:	00002797          	auipc	a5,0x2
20000a98:	7787c783          	lbu	a5,1912(a5) # 2000320c <gTmosPara>
20000a9c:	0ac7ef63          	bltu	a5,a2,20000b5a <TMOS_SystemProcess+0x168>
20000aa0:	00002797          	auipc	a5,0x2
20000aa4:	76078623          	sb	zero,1900(a5) # 2000320c <gTmosPara>
20000aa8:	401c                	lw	a5,0(s0)
20000aaa:	12079863          	bnez	a5,20000bda <TMOS_SystemProcess+0x1e8>
20000aae:	00003797          	auipc	a5,0x3
20000ab2:	8137c783          	lbu	a5,-2029(a5) # 200032c1 <gBleIPPara+0x9>
20000ab6:	cf91                	beqz	a5,20000ad2 <TMOS_SystemProcess+0xe0>
20000ab8:	00003797          	auipc	a5,0x3
20000abc:	8077c783          	lbu	a5,-2041(a5) # 200032bf <gBleIPPara+0x7>
20000ac0:	eb89                	bnez	a5,20000ad2 <TMOS_SystemProcess+0xe0>
20000ac2:	00002797          	auipc	a5,0x2
20000ac6:	7e078fa3          	sb	zero,2047(a5) # 200032c1 <gBleIPPara+0x9>
20000aca:	e0003097          	auipc	ra,0xe0003
20000ace:	1c2080e7          	jalr	450(ra) # 3c8c <ll_multi_states_process>
20000ad2:	00002797          	auipc	a5,0x2
20000ad6:	7d678793          	addi	a5,a5,2006 # 200032a8 <fnGetClockCBs>
20000ada:	439c                	lw	a5,0(a5)
20000adc:	0e078f63          	beqz	a5,20000bda <TMOS_SystemProcess+0x1e8>
20000ae0:	a8c007b7          	lui	a5,0xa8c00
20000ae4:	00002717          	auipc	a4,0x2
20000ae8:	72f72c23          	sw	a5,1848(a4) # 2000321c <gTmosPara+0x10>
20000aec:	3b75                	jal	200008a8 <tmos_proces_system_time>
20000aee:	00002797          	auipc	a5,0x2
20000af2:	77678793          	addi	a5,a5,1910 # 20003264 <ble>
20000af6:	53dc                	lw	a5,36(a5)
20000af8:	c3ed                	beqz	a5,20000bda <TMOS_SystemProcess+0x1e8>
20000afa:	00002717          	auipc	a4,0x2
20000afe:	71270713          	addi	a4,a4,1810 # 2000320c <gTmosPara>
20000b02:	4b18                	lw	a4,16(a4)
20000b04:	00002797          	auipc	a5,0x2
20000b08:	7757c783          	lbu	a5,1909(a5) # 20003279 <ble+0x15>
20000b0c:	0cf76763          	bltu	a4,a5,20000bda <TMOS_SystemProcess+0x1e8>
20000b10:	00002717          	auipc	a4,0x2
20000b14:	7af74703          	lbu	a4,1967(a4) # 200032bf <gBleIPPara+0x7>
20000b18:	4791                	li	a5,4
20000b1a:	0ce7e063          	bltu	a5,a4,20000bda <TMOS_SystemProcess+0x1e8>
20000b1e:	00c94783          	lbu	a5,12(s2)
20000b22:	8b91                	andi	a5,a5,4
20000b24:	ebdd                	bnez	a5,20000bda <TMOS_SystemProcess+0x1e8>
20000b26:	4090                	lw	a2,0(s1)
20000b28:	00002697          	auipc	a3,0x2
20000b2c:	6e56c683          	lbu	a3,1765(a3) # 2000320d <gTmosPara+0x1>
20000b30:	0ad7cb63          	blt	a5,a3,20000be6 <TMOS_SystemProcess+0x1f4>
20000b34:	4422                	lw	s0,8(sp)
20000b36:	40b2                	lw	ra,12(sp)
20000b38:	4492                	lw	s1,4(sp)
20000b3a:	4902                	lw	s2,0(sp)
20000b3c:	0141                	addi	sp,sp,16
20000b3e:	e0002317          	auipc	t1,0xe0002
20000b42:	33e30067          	jr	830(t1) # 2e7c <tmos_proces_sleep>
20000b46:	0785                	addi	a5,a5,1
20000b48:	0ff7f793          	andi	a5,a5,255
20000b4c:	00002697          	auipc	a3,0x2
20000b50:	6cf68023          	sb	a5,1728(a3) # 2000320c <gTmosPara>
20000b54:	f2c7e6e3          	bltu	a5,a2,20000a80 <TMOS_SystemProcess+0x8e>
20000b58:	bf35                	j	20000a94 <TMOS_SystemProcess+0xa2>
20000b5a:	0786                	slli	a5,a5,0x1
20000b5c:	973e                	add	a4,a4,a5
20000b5e:	00075583          	lhu	a1,0(a4)
20000b62:	00071023          	sh	zero,0(a4)
20000b66:	00002797          	auipc	a5,0x2
20000b6a:	6e079923          	sh	zero,1778(a5) # 20003258 <eventsClear>
20000b6e:	00002797          	auipc	a5,0x2
20000b72:	6ca78793          	addi	a5,a5,1738 # 20003238 <tasksArr>
20000b76:	439c                	lw	a5,0(a5)
20000b78:	00002517          	auipc	a0,0x2
20000b7c:	69454503          	lbu	a0,1684(a0) # 2000320c <gTmosPara>
20000b80:	00251713          	slli	a4,a0,0x2
20000b84:	97ba                	add	a5,a5,a4
20000b86:	439c                	lw	a5,0(a5)
20000b88:	9782                	jalr	a5
20000b8a:	00002797          	auipc	a5,0x2
20000b8e:	6ce7d783          	lhu	a5,1742(a5) # 20003258 <eventsClear>
20000b92:	00002717          	auipc	a4,0x2
20000b96:	67a74703          	lbu	a4,1658(a4) # 2000320c <gTmosPara>
20000b9a:	fff7c793          	not	a5,a5
20000b9e:	8d7d                	and	a0,a0,a5
20000ba0:	00171793          	slli	a5,a4,0x1
20000ba4:	4098                	lw	a4,0(s1)
20000ba6:	973e                	add	a4,a4,a5
20000ba8:	00075783          	lhu	a5,0(a4)
20000bac:	8d5d                	or	a0,a0,a5
20000bae:	00a71023          	sh	a0,0(a4)
20000bb2:	00002797          	auipc	a5,0x2
20000bb6:	65a7c783          	lbu	a5,1626(a5) # 2000320c <gTmosPara>
20000bba:	c791                	beqz	a5,20000bc6 <TMOS_SystemProcess+0x1d4>
20000bbc:	0785                	addi	a5,a5,1
20000bbe:	00002717          	auipc	a4,0x2
20000bc2:	64f70723          	sb	a5,1614(a4) # 2000320c <gTmosPara>
20000bc6:	00002717          	auipc	a4,0x2
20000bca:	64674703          	lbu	a4,1606(a4) # 2000320c <gTmosPara>
20000bce:	00002797          	auipc	a5,0x2
20000bd2:	63f7c783          	lbu	a5,1599(a5) # 2000320d <gTmosPara+0x1>
20000bd6:	ecf775e3          	bgeu	a4,a5,20000aa0 <TMOS_SystemProcess+0xae>
20000bda:	40b2                	lw	ra,12(sp)
20000bdc:	4422                	lw	s0,8(sp)
20000bde:	4492                	lw	s1,4(sp)
20000be0:	4902                	lw	s2,0(sp)
20000be2:	0141                	addi	sp,sp,16
20000be4:	8082                	ret
20000be6:	00179713          	slli	a4,a5,0x1
20000bea:	9732                	add	a4,a4,a2
20000bec:	00075703          	lhu	a4,0(a4)
20000bf0:	f76d                	bnez	a4,20000bda <TMOS_SystemProcess+0x1e8>
20000bf2:	0785                	addi	a5,a5,1
20000bf4:	bf35                	j	20000b30 <TMOS_SystemProcess+0x13e>

20000bf6 <clockGetHSEValue>:
clockGetHSEValue():
20000bf6:	67ad                	lui	a5,0xb
20000bf8:	4000c737          	lui	a4,0x4000c
20000bfc:	07bd                	addi	a5,a5,15
20000bfe:	20f72623          	sw	a5,524(a4) # 4000c20c <_eusrstack+0x2000420c>
20000c02:	0000100f          	fence.i
20000c06:	00002797          	auipc	a5,0x2
20000c0a:	60678793          	addi	a5,a5,1542 # 2000320c <gTmosPara>
20000c0e:	4fc8                	lw	a0,28(a5)
20000c10:	26872783          	lw	a5,616(a4)
20000c14:	66bd                	lui	a3,0xf
20000c16:	06bd                	addi	a3,a3,15
20000c18:	fff7c793          	not	a5,a5
20000c1c:	8399                	srli	a5,a5,0x6
20000c1e:	056a                	slli	a0,a0,0x1a
20000c20:	20d72623          	sw	a3,524(a4)
20000c24:	8d5d                	or	a0,a0,a5
20000c26:	8082                	ret

20000c28 <clockGetLSEValue>:
clockGetLSEValue():
20000c28:	1141                	addi	sp,sp,-16
20000c2a:	400017b7          	lui	a5,0x40001
20000c2e:	5f98                	lw	a4,56(a5)
20000c30:	c63a                	sw	a4,12(sp)
20000c32:	5f94                	lw	a3,56(a5)
20000c34:	4732                	lw	a4,12(sp)
20000c36:	fee69ce3          	bne	a3,a4,20000c2e <clockGetLSEValue+0x6>
20000c3a:	4532                	lw	a0,12(sp)
20000c3c:	0141                	addi	sp,sp,16
20000c3e:	8082                	ret

20000c40 <TMOS_TimerIRQHandler>:
TMOS_TimerIRQHandler():
20000c40:	8082                	ret

20000c42 <BB_IRQLibHandler>:
BB_IRQLibHandler():
20000c42:	715d                	addi	sp,sp,-80
20000c44:	d23a                	sw	a4,36(sp)
20000c46:	00002717          	auipc	a4,0x2
20000c4a:	66a70713          	addi	a4,a4,1642 # 200032b0 <gptrBBReg>
20000c4e:	d436                	sw	a3,40(sp)
20000c50:	4314                	lw	a3,0(a4)
20000c52:	d03e                	sw	a5,32(sp)
20000c54:	de22                	sw	s0,60(sp)
20000c56:	5e9c                	lw	a5,56(a3)
20000c58:	ca4a                	sw	s2,20(sp)
20000c5a:	c686                	sw	ra,76(sp)
20000c5c:	8399                	srli	a5,a5,0x6
20000c5e:	c496                	sw	t0,72(sp)
20000c60:	c29a                	sw	t1,68(sp)
20000c62:	c09e                	sw	t2,64(sp)
20000c64:	dc26                	sw	s1,56(sp)
20000c66:	da2a                	sw	a0,52(sp)
20000c68:	d82e                	sw	a1,48(sp)
20000c6a:	d632                	sw	a2,44(sp)
20000c6c:	ce42                	sw	a6,28(sp)
20000c6e:	cc46                	sw	a7,24(sp)
20000c70:	c872                	sw	t3,16(sp)
20000c72:	c676                	sw	t4,12(sp)
20000c74:	c47a                	sw	t5,8(sp)
20000c76:	c27e                	sw	t6,4(sp)
20000c78:	8b85                	andi	a5,a5,1
20000c7a:	843a                	mv	s0,a4
20000c7c:	00002917          	auipc	s2,0x2
20000c80:	63090913          	addi	s2,s2,1584 # 200032ac <gptrAESReg>
20000c84:	cbd1                	beqz	a5,20000d18 <BB_IRQLibHandler+0xd6>
20000c86:	5e9c                	lw	a5,56(a3)
20000c88:	00002497          	auipc	s1,0x2
20000c8c:	63048493          	addi	s1,s1,1584 # 200032b8 <gBleIPPara>
20000c90:	f9f7f793          	andi	a5,a5,-97
20000c94:	de9c                	sw	a5,56(a3)
20000c96:	00002717          	auipc	a4,0x2
20000c9a:	62874703          	lbu	a4,1576(a4) # 200032be <gBleIPPara+0x6>
20000c9e:	08000793          	li	a5,128
20000ca2:	00f71b63          	bne	a4,a5,20000cb8 <BB_IRQLibHandler+0x76>
20000ca6:	00092783          	lw	a5,0(s2)
20000caa:	439c                	lw	a5,0(a5)
20000cac:	0407f793          	andi	a5,a5,64
20000cb0:	00002717          	auipc	a4,0x2
20000cb4:	60f70723          	sb	a5,1550(a4) # 200032be <gBleIPPara+0x6>
20000cb8:	0004c783          	lbu	a5,0(s1)
20000cbc:	0407f793          	andi	a5,a5,64
20000cc0:	c39d                	beqz	a5,20000ce6 <BB_IRQLibHandler+0xa4>
20000cc2:	00002797          	auipc	a5,0x2
20000cc6:	5e678793          	addi	a5,a5,1510 # 200032a8 <fnGetClockCBs>
20000cca:	439c                	lw	a5,0(a5)
20000ccc:	9782                	jalr	a5
20000cce:	00002797          	auipc	a5,0x2
20000cd2:	5ea7ad23          	sw	a0,1530(a5) # 200032c8 <gBleIPPara+0x10>
20000cd6:	0004c783          	lbu	a5,0(s1)
20000cda:	0bf7f793          	andi	a5,a5,191
20000cde:	00002717          	auipc	a4,0x2
20000ce2:	5cf70d23          	sb	a5,1498(a4) # 200032b8 <gBleIPPara>
20000ce6:	0044c783          	lbu	a5,4(s1)
20000cea:	0407f793          	andi	a5,a5,64
20000cee:	e78d                	bnez	a5,20000d18 <BB_IRQLibHandler+0xd6>
20000cf0:	4785                	li	a5,1
20000cf2:	00002717          	auipc	a4,0x2
20000cf6:	5cf705a3          	sb	a5,1483(a4) # 200032bd <gBleIPPara+0x5>
20000cfa:	00002797          	auipc	a5,0x2
20000cfe:	5da78793          	addi	a5,a5,1498 # 200032d4 <gptrLLEReg>
20000d02:	439c                	lw	a5,0(a5)
20000d04:	6709                	lui	a4,0x2
20000d06:	c798                	sw	a4,8(a5)
20000d08:	fc000713          	li	a4,-64
20000d0c:	00002697          	auipc	a3,0x2
20000d10:	5ae68823          	sb	a4,1456(a3) # 200032bc <gBleIPPara+0x4>
20000d14:	44d8                	lw	a4,12(s1)
20000d16:	d3f8                	sw	a4,100(a5)
20000d18:	401c                	lw	a5,0(s0)
20000d1a:	5f98                	lw	a4,56(a5)
20000d1c:	8311                	srli	a4,a4,0x4
20000d1e:	8b05                	andi	a4,a4,1
20000d20:	cb09                	beqz	a4,20000d32 <BB_IRQLibHandler+0xf0>
20000d22:	5f98                	lw	a4,56(a5)
20000d24:	9b3d                	andi	a4,a4,-17
20000d26:	df98                	sw	a4,56(a5)
20000d28:	4705                	li	a4,1
20000d2a:	00002697          	auipc	a3,0x2
20000d2e:	58e68923          	sb	a4,1426(a3) # 200032bc <gBleIPPara+0x4>
20000d32:	5f98                	lw	a4,56(a5)
20000d34:	831d                	srli	a4,a4,0x7
20000d36:	8b05                	andi	a4,a4,1
20000d38:	cb11                	beqz	a4,20000d4c <BB_IRQLibHandler+0x10a>
20000d3a:	5f98                	lw	a4,56(a5)
20000d3c:	f7f77713          	andi	a4,a4,-129
20000d40:	df98                	sw	a4,56(a5)
20000d42:	4785                	li	a5,1
20000d44:	00002717          	auipc	a4,0x2
20000d48:	56f70c23          	sb	a5,1400(a4) # 200032bc <gBleIPPara+0x4>
20000d4c:	00092783          	lw	a5,0(s2)
20000d50:	43d8                	lw	a4,4(a5)
20000d52:	8305                	srli	a4,a4,0x1
20000d54:	8b05                	andi	a4,a4,1
20000d56:	c719                	beqz	a4,20000d64 <BB_IRQLibHandler+0x122>
20000d58:	43d8                	lw	a4,4(a5)
20000d5a:	9b75                	andi	a4,a4,-3
20000d5c:	c3d8                	sw	a4,4(a5)
20000d5e:	43d8                	lw	a4,4(a5)
20000d60:	9b79                	andi	a4,a4,-2
20000d62:	c3d8                	sw	a4,4(a5)
20000d64:	5472                	lw	s0,60(sp)
20000d66:	40b6                	lw	ra,76(sp)
20000d68:	42a6                	lw	t0,72(sp)
20000d6a:	4316                	lw	t1,68(sp)
20000d6c:	4386                	lw	t2,64(sp)
20000d6e:	54e2                	lw	s1,56(sp)
20000d70:	5552                	lw	a0,52(sp)
20000d72:	55c2                	lw	a1,48(sp)
20000d74:	5632                	lw	a2,44(sp)
20000d76:	56a2                	lw	a3,40(sp)
20000d78:	5712                	lw	a4,36(sp)
20000d7a:	5782                	lw	a5,32(sp)
20000d7c:	4872                	lw	a6,28(sp)
20000d7e:	48e2                	lw	a7,24(sp)
20000d80:	4952                	lw	s2,20(sp)
20000d82:	4e42                	lw	t3,16(sp)
20000d84:	4eb2                	lw	t4,12(sp)
20000d86:	4f22                	lw	t5,8(sp)
20000d88:	4f92                	lw	t6,4(sp)
20000d8a:	6161                	addi	sp,sp,80
20000d8c:	30200073          	mret

20000d90 <ll_rx_wait_finish>:
ll_rx_wait_finish():
20000d90:	00002797          	auipc	a5,0x2
20000d94:	54478793          	addi	a5,a5,1348 # 200032d4 <gptrLLEReg>
20000d98:	4394                	lw	a3,0(a5)
20000d9a:	00002797          	auipc	a5,0x2
20000d9e:	51e78793          	addi	a5,a5,1310 # 200032b8 <gBleIPPara>
20000da2:	0007c703          	lbu	a4,0(a5)
20000da6:	8b05                	andi	a4,a4,1
20000da8:	cb11                	beqz	a4,20000dbc <ll_rx_wait_finish+0x2c>
20000daa:	00002797          	auipc	a5,0x2
20000dae:	50078923          	sb	zero,1298(a5) # 200032bc <gBleIPPara+0x4>
20000db2:	00002797          	auipc	a5,0x2
20000db6:	500785a3          	sb	zero,1291(a5) # 200032bd <gBleIPPara+0x5>
20000dba:	8082                	ret
20000dbc:	0017c703          	lbu	a4,1(a5)
20000dc0:	8b05                	andi	a4,a4,1
20000dc2:	f765                	bnez	a4,20000daa <ll_rx_wait_finish+0x1a>
20000dc4:	52f8                	lw	a4,100(a3)
20000dc6:	ff71                	bnez	a4,20000da2 <ll_rx_wait_finish+0x12>
20000dc8:	0057c783          	lbu	a5,5(a5)
20000dcc:	b7dd                	j	20000db2 <ll_rx_wait_finish+0x22>

20000dce <ble_ll_chkcrc>:
ble_ll_chkcrc():
20000dce:	00002817          	auipc	a6,0x2
20000dd2:	4e280813          	addi	a6,a6,1250 # 200032b0 <gptrBBReg>
20000dd6:	00082703          	lw	a4,0(a6)
20000dda:	5f1c                	lw	a5,56(a4)
20000ddc:	8395                	srli	a5,a5,0x5
20000dde:	8b85                	andi	a5,a5,1
20000de0:	ebd5                	bnez	a5,20000e94 <ble_ll_chkcrc+0xc6>
20000de2:	c61d                	beqz	a2,20000e10 <ble_ll_chkcrc+0x42>
20000de4:	00002797          	auipc	a5,0x2
20000de8:	54c78793          	addi	a5,a5,1356 # 20003330 <gBleLlPara>
20000dec:	04679883          	lh	a7,70(a5)
20000df0:	00060303          	lb	t1,0(a2)
20000df4:	5b1c                	lw	a5,48(a4)
20000df6:	83bd                	srli	a5,a5,0xf
20000df8:	08030b63          	beqz	t1,20000e8e <ble_ll_chkcrc+0xc0>
20000dfc:	1ff7f793          	andi	a5,a5,511
20000e00:	411787b3          	sub	a5,a5,a7
20000e04:	979a                	add	a5,a5,t1
20000e06:	4709                	li	a4,2
20000e08:	02e7c7b3          	div	a5,a5,a4
20000e0c:	00f60023          	sb	a5,0(a2)
20000e10:	ca85                	beqz	a3,20000e40 <ble_ll_chkcrc+0x72>
20000e12:	00082783          	lw	a5,0(a6)
20000e16:	5b98                	lw	a4,48(a5)
20000e18:	0746                	slli	a4,a4,0x11
20000e1a:	01675793          	srli	a5,a4,0x16
20000e1e:	00075663          	bgez	a4,20000e2a <ble_ll_chkcrc+0x5c>
20000e22:	c007e793          	ori	a5,a5,-1024
20000e26:	07c2                	slli	a5,a5,0x10
20000e28:	83c1                	srli	a5,a5,0x10
20000e2a:	00069703          	lh	a4,0(a3)
20000e2e:	07c2                	slli	a5,a5,0x10
20000e30:	87c1                	srai	a5,a5,0x10
20000e32:	c709                	beqz	a4,20000e3c <ble_ll_chkcrc+0x6e>
20000e34:	97ba                	add	a5,a5,a4
20000e36:	4709                	li	a4,2
20000e38:	02e7c7b3          	div	a5,a5,a4
20000e3c:	00f69023          	sh	a5,0(a3)
20000e40:	c99d                	beqz	a1,20000e76 <ble_ll_chkcrc+0xa8>
20000e42:	00154783          	lbu	a5,1(a0)
20000e46:	cb85                	beqz	a5,20000e76 <ble_ll_chkcrc+0xa8>
20000e48:	00002697          	auipc	a3,0x2
20000e4c:	4766c683          	lbu	a3,1142(a3) # 200032be <gBleIPPara+0x6>
20000e50:	0406f693          	andi	a3,a3,64
20000e54:	00978713          	addi	a4,a5,9
20000e58:	4791                	li	a5,4
20000e5a:	ca85                	beqz	a3,20000e8a <ble_ll_chkcrc+0xbc>
20000e5c:	953a                	add	a0,a0,a4
20000e5e:	00054703          	lbu	a4,0(a0)
20000e62:	4685                	li	a3,1
20000e64:	06f77613          	andi	a2,a4,111
20000e68:	02d61163          	bne	a2,a3,20000e8a <ble_ll_chkcrc+0xbc>
20000e6c:	0762                	slli	a4,a4,0x18
20000e6e:	8761                	srai	a4,a4,0x18
20000e70:	47b1                	li	a5,12
20000e72:	00074c63          	bltz	a4,20000e8a <ble_ll_chkcrc+0xbc>
20000e76:	00082783          	lw	a5,0(a6)
20000e7a:	5f9c                	lw	a5,56(a5)
20000e7c:	83ed                	srli	a5,a5,0x1b
20000e7e:	8b8d                	andi	a5,a5,3
20000e80:	00002717          	auipc	a4,0x2
20000e84:	44f701a3          	sb	a5,1091(a4) # 200032c3 <gBleIPPara+0xb>
20000e88:	4781                	li	a5,0
20000e8a:	853e                	mv	a0,a5
20000e8c:	8082                	ret
20000e8e:	411787b3          	sub	a5,a5,a7
20000e92:	bfad                	j	20000e0c <ble_ll_chkcrc+0x3e>
20000e94:	4789                	li	a5,2
20000e96:	bfd5                	j	20000e8a <ble_ll_chkcrc+0xbc>

20000e98 <ll_tx_wait_finish>:
ll_tx_wait_finish():
20000e98:	1141                	addi	sp,sp,-16
20000e9a:	c422                	sw	s0,8(sp)
20000e9c:	c606                	sw	ra,12(sp)
20000e9e:	00002417          	auipc	s0,0x2
20000ea2:	43640413          	addi	s0,s0,1078 # 200032d4 <gptrLLEReg>
20000ea6:	4018                	lw	a4,0(s0)
20000ea8:	e949                	bnez	a0,20000f3a <ll_tx_wait_finish+0xa2>
20000eaa:	87ae                	mv	a5,a1
20000eac:	5374                	lw	a3,100(a4)
20000eae:	fefd                	bnez	a3,20000eac <ll_tx_wait_finish+0x14>
20000eb0:	853e                	mv	a0,a5
20000eb2:	85b2                	mv	a1,a2
20000eb4:	00002797          	auipc	a5,0x2
20000eb8:	40078323          	sb	zero,1030(a5) # 200032ba <gBleIPPara+0x2>
20000ebc:	e0003097          	auipc	ra,0xe0003
20000ec0:	b70080e7          	jalr	-1168(ra) # 3a2c <BLE_SetPHYTxMode>
20000ec4:	00002797          	auipc	a5,0x2
20000ec8:	3ec78793          	addi	a5,a5,1004 # 200032b0 <gptrBBReg>
20000ecc:	439c                	lw	a5,0(a5)
20000ece:	008006b7          	lui	a3,0x800
20000ed2:	4398                	lw	a4,0(a5)
20000ed4:	8f55                	or	a4,a4,a3
20000ed6:	c398                	sw	a4,0(a5)
20000ed8:	57d8                	lw	a4,44(a5)
20000eda:	9b71                	andi	a4,a4,-4
20000edc:	d7d8                	sw	a4,44(a5)
20000ede:	00002797          	auipc	a5,0x2
20000ee2:	3c078fa3          	sb	zero,991(a5) # 200032bd <gBleIPPara+0x5>
20000ee6:	00002797          	auipc	a5,0x2
20000eea:	3c0789a3          	sb	zero,979(a5) # 200032b9 <gBleIPPara+0x1>
20000eee:	401c                	lw	a5,0(s0)
20000ef0:	4709                	li	a4,2
20000ef2:	c398                	sw	a4,0(a5)
20000ef4:	e000f7b7          	lui	a5,0xe000f
20000ef8:	d107a703          	lw	a4,-752(a5) # e000ed10 <_eusrstack+0xc0006d10>
20000efc:	9b6d                	andi	a4,a4,-5
20000efe:	d0e7a823          	sw	a4,-752(a5)
20000f02:	d107a703          	lw	a4,-752(a5)
20000f06:	9b5d                	andi	a4,a4,-9
20000f08:	d0e7a823          	sw	a4,-752(a5)
20000f0c:	10500073          	wfi
20000f10:	4014                	lw	a3,0(s0)
20000f12:	00002717          	auipc	a4,0x2
20000f16:	3a670713          	addi	a4,a4,934 # 200032b8 <gBleIPPara>
20000f1a:	00274783          	lbu	a5,2(a4)
20000f1e:	8b85                	andi	a5,a5,1
20000f20:	eb89                	bnez	a5,20000f32 <ll_tx_wait_finish+0x9a>
20000f22:	00374783          	lbu	a5,3(a4)
20000f26:	8b85                	andi	a5,a5,1
20000f28:	c7d9                	beqz	a5,20000fb6 <ll_tx_wait_finish+0x11e>
20000f2a:	00002797          	auipc	a5,0x2
20000f2e:	38078923          	sb	zero,914(a5) # 200032bc <gBleIPPara+0x4>
20000f32:	40b2                	lw	ra,12(sp)
20000f34:	4422                	lw	s0,8(sp)
20000f36:	0141                	addi	sp,sp,16
20000f38:	8082                	ret
20000f3a:	478d                	li	a5,3
20000f3c:	02f51063          	bne	a0,a5,20000f5c <ll_tx_wait_finish+0xc4>
20000f40:	00002797          	auipc	a5,0x2
20000f44:	37078793          	addi	a5,a5,880 # 200032b0 <gptrBBReg>
20000f48:	439c                	lw	a5,0(a5)
20000f4a:	008006b7          	lui	a3,0x800
20000f4e:	4398                	lw	a4,0(a5)
20000f50:	8f55                	or	a4,a4,a3
20000f52:	c398                	sw	a4,0(a5)
20000f54:	57d8                	lw	a4,44(a5)
20000f56:	9b71                	andi	a4,a4,-4
20000f58:	d7d8                	sw	a4,44(a5)
20000f5a:	bf5d                	j	20000f10 <ll_tx_wait_finish+0x78>
20000f5c:	4785                	li	a5,1
20000f5e:	faf519e3          	bne	a0,a5,20000f10 <ll_tx_wait_finish+0x78>
20000f62:	67b5                	lui	a5,0xd
20000f64:	07bd                	addi	a5,a5,15
20000f66:	c75c                	sw	a5,12(a4)
20000f68:	0000100f          	fence.i
20000f6c:	401c                	lw	a5,0(s0)
20000f6e:	6709                	lui	a4,0x2
20000f70:	4609                	li	a2,2
20000f72:	c798                	sw	a4,8(a5)
20000f74:	f8000713          	li	a4,-128
20000f78:	00002697          	auipc	a3,0x2
20000f7c:	34e68223          	sb	a4,836(a3) # 200032bc <gBleIPPara+0x4>
20000f80:	00002717          	auipc	a4,0x2
20000f84:	33070713          	addi	a4,a4,816 # 200032b0 <gptrBBReg>
20000f88:	4314                	lw	a3,0(a4)
20000f8a:	4298                	lw	a4,0(a3)
20000f8c:	8331                	srli	a4,a4,0xc
20000f8e:	8b0d                	andi	a4,a4,3
20000f90:	00c71963          	bne	a4,a2,20000fa2 <ll_tx_wait_finish+0x10a>
20000f94:	43e00713          	li	a4,1086
20000f98:	d3f8                	sw	a4,100(a5)
20000f9a:	673d                	lui	a4,0xf
20000f9c:	073d                	addi	a4,a4,15
20000f9e:	c7d8                	sw	a4,12(a5)
20000fa0:	bf85                	j	20000f10 <ll_tx_wait_finish+0x78>
20000fa2:	4298                	lw	a4,0(a3)
20000fa4:	8331                	srli	a4,a4,0xc
20000fa6:	8b0d                	andi	a4,a4,3
20000fa8:	e701                	bnez	a4,20000fb0 <ll_tx_wait_finish+0x118>
20000faa:	19600713          	li	a4,406
20000fae:	b7ed                	j	20000f98 <ll_tx_wait_finish+0x100>
20000fb0:	1be00713          	li	a4,446
20000fb4:	b7d5                	j	20000f98 <ll_tx_wait_finish+0x100>
20000fb6:	52fc                	lw	a5,100(a3)
20000fb8:	f3ad                	bnez	a5,20000f1a <ll_tx_wait_finish+0x82>
20000fba:	bfa5                	j	20000f32 <ll_tx_wait_finish+0x9a>

20000fbc <BLE_CheckHoppingMap>:
BLE_CheckHoppingMap():
20000fbc:	715d                	addi	sp,sp,-80
20000fbe:	de4e                	sw	s3,60(sp)
20000fc0:	00002997          	auipc	s3,0x2
20000fc4:	2f098993          	addi	s3,s3,752 # 200032b0 <gptrBBReg>
20000fc8:	0009a703          	lw	a4,0(s3)
20000fcc:	c686                	sw	ra,76(sp)
20000fce:	c4a2                	sw	s0,72(sp)
20000fd0:	c2a6                	sw	s1,68(sp)
20000fd2:	c0ca                	sw	s2,64(sp)
20000fd4:	dc52                	sw	s4,56(sp)
20000fd6:	431c                	lw	a5,0(a4)
20000fd8:	00002917          	auipc	s2,0x2
20000fdc:	34090913          	addi	s2,s2,832 # 20003318 <gptrRFENDReg>
20000fe0:	00002a17          	auipc	s4,0x2
20000fe4:	2f4a0a13          	addi	s4,s4,756 # 200032d4 <gptrLLEReg>
20000fe8:	e7f7f793          	andi	a5,a5,-385
20000fec:	0807e793          	ori	a5,a5,128
20000ff0:	c31c                	sw	a5,0(a4)
20000ff2:	00092683          	lw	a3,0(s2)
20000ff6:	ffce0737          	lui	a4,0xffce0
20000ffa:	177d                	addi	a4,a4,-1
20000ffc:	469c                	lw	a5,8(a3)
20000ffe:	02800613          	li	a2,40
20001002:	842a                	mv	s0,a0
20001004:	8ff9                	and	a5,a5,a4
20001006:	c69c                	sw	a5,8(a3)
20001008:	000a2783          	lw	a5,0(s4)
2000100c:	08000713          	li	a4,128
20001010:	0028                	addi	a0,sp,8
20001012:	cbb8                	sw	a4,80(a5)
20001014:	84ae                	mv	s1,a1
20001016:	08100593          	li	a1,129
2000101a:	fcaff0ef          	jal	ra,200007e4 <tmos_memset>
2000101e:	e0003097          	auipc	ra,0xe0003
20001022:	c3a080e7          	jalr	-966(ra) # 3c58 <ll_multi_states_check>
20001026:	e0003097          	auipc	ra,0xe0003
2000102a:	d0a080e7          	jalr	-758(ra) # 3d30 <ble_ll_hw_api_shut>
2000102e:	0009a783          	lw	a5,0(s3)
20001032:	1ff47693          	andi	a3,s0,511
20001036:	fffc0eb7          	lui	t4,0xfffc0
2000103a:	0007a423          	sw	zero,8(a5) # d008 <_data_lma+0x6ab0>
2000103e:	4b98                	lw	a4,16(a5)
20001040:	f8100513          	li	a0,-127
20001044:	85ce                	mv	a1,s3
20001046:	03f76713          	ori	a4,a4,63
2000104a:	cb98                	sw	a4,16(a5)
2000104c:	4ff8                	lw	a4,92(a5)
2000104e:	884a                	mv	a6,s2
20001050:	00040fb7          	lui	t6,0x40
20001054:	e0077713          	andi	a4,a4,-512
20001058:	8f55                	or	a4,a4,a3
2000105a:	cff8                	sw	a4,92(a5)
2000105c:	4398                	lw	a4,0(a5)
2000105e:	76f5                	lui	a3,0xffffd
20001060:	16fd                	addi	a3,a3,-1
20001062:	8f75                	and	a4,a4,a3
20001064:	c398                	sw	a4,0(a5)
20001066:	4398                	lw	a4,0(a5)
20001068:	003306b7          	lui	a3,0x330
2000106c:	4291                	li	t0,4
2000106e:	e7f77713          	andi	a4,a4,-385
20001072:	c398                	sw	a4,0(a5)
20001074:	4398                	lw	a4,0(a5)
20001076:	1efd                	addi	t4,t4,-1
20001078:	4385                	li	t2,1
2000107a:	e7f77713          	andi	a4,a4,-385
2000107e:	10076713          	ori	a4,a4,256
20001082:	c398                	sw	a4,0(a5)
20001084:	00092703          	lw	a4,0(s2)
20001088:	02800f13          	li	t5,40
2000108c:	471c                	lw	a5,8(a4)
2000108e:	8fd5                	or	a5,a5,a3
20001090:	c71c                	sw	a5,8(a4)
20001092:	000a2783          	lw	a5,0(s4)
20001096:	0d900713          	li	a4,217
2000109a:	0034                	addi	a3,sp,8
2000109c:	cbb8                	sw	a4,80(a5)
2000109e:	4701                	li	a4,0
200010a0:	00375893          	srli	a7,a4,0x3
200010a4:	98a6                	add	a7,a7,s1
200010a6:	0008c783          	lbu	a5,0(a7)
200010aa:	00777613          	andi	a2,a4,7
200010ae:	40c7d7b3          	sra	a5,a5,a2
200010b2:	8b85                	andi	a5,a5,1
200010b4:	c7dd                	beqz	a5,20001162 <BLE_CheckHoppingMap+0x1a6>
200010b6:	419c                	lw	a5,0(a1)
200010b8:	00082e03          	lw	t3,0(a6)
200010bc:	04079c23          	sh	zero,88(a5)
200010c0:	06079023          	sh	zero,96(a5)
200010c4:	02ce2303          	lw	t1,44(t3)
200010c8:	ffd37313          	andi	t1,t1,-3
200010cc:	026e2623          	sw	t1,44(t3)
200010d0:	0007ae03          	lw	t3,0(a5)
200010d4:	07f77313          	andi	t1,a4,127
200010d8:	f80e7e13          	andi	t3,t3,-128
200010dc:	006e6333          	or	t1,t3,t1
200010e0:	0067a023          	sw	t1,0(a5)
200010e4:	0247a303          	lw	t1,36(a5)
200010e8:	01f36333          	or	t1,t1,t6
200010ec:	0267a223          	sw	t1,36(a5)
200010f0:	4301                	li	t1,0
200010f2:	0607de03          	lhu	t3,96(a5)
200010f6:	03c30763          	beq	t1,t3,20001124 <BLE_CheckHoppingMap+0x168>
200010fa:	0307a303          	lw	t1,48(a5)
200010fe:	00068e03          	lb	t3,0(a3) # 330000 <_data_lma+0x329aa8>
20001102:	00f35313          	srli	t1,t1,0xf
20001106:	0362                	slli	t1,t1,0x18
20001108:	41835313          	srai	t1,t1,0x18
2000110c:	006e5863          	bge	t3,t1,2000111c <BLE_CheckHoppingMap+0x160>
20001110:	0307a303          	lw	t1,48(a5)
20001114:	00f35313          	srli	t1,t1,0xf
20001118:	00668023          	sb	t1,0(a3)
2000111c:	0607d303          	lhu	t1,96(a5)
20001120:	0ff37313          	andi	t1,t1,255
20001124:	0587de03          	lhu	t3,88(a5)
20001128:	fdc2f5e3          	bgeu	t0,t3,200010f2 <BLE_CheckHoppingMap+0x136>
2000112c:	0247a303          	lw	t1,36(a5)
20001130:	01d37333          	and	t1,t1,t4
20001134:	0267a223          	sw	t1,36(a5)
20001138:	00068783          	lb	a5,0(a3)
2000113c:	00f45c63          	bge	s0,a5,20001154 <BLE_CheckHoppingMap+0x198>
20001140:	0008c303          	lbu	t1,0(a7)
20001144:	00c39633          	sll	a2,t2,a2
20001148:	fff64613          	not	a2,a2
2000114c:	00667633          	and	a2,a2,t1
20001150:	00c88023          	sb	a2,0(a7)
20001154:	863e                	mv	a2,a5
20001156:	00a7d363          	bge	a5,a0,2000115c <BLE_CheckHoppingMap+0x1a0>
2000115a:	862a                	mv	a2,a0
2000115c:	01861513          	slli	a0,a2,0x18
20001160:	8561                	srai	a0,a0,0x18
20001162:	0705                	addi	a4,a4,1
20001164:	0ff77713          	andi	a4,a4,255
20001168:	0685                	addi	a3,a3,1
2000116a:	f3e71be3          	bne	a4,t5,200010a0 <BLE_CheckHoppingMap+0xe4>
2000116e:	40b6                	lw	ra,76(sp)
20001170:	4426                	lw	s0,72(sp)
20001172:	4496                	lw	s1,68(sp)
20001174:	4906                	lw	s2,64(sp)
20001176:	59f2                	lw	s3,60(sp)
20001178:	5a62                	lw	s4,56(sp)
2000117a:	6161                	addi	sp,sp,80
2000117c:	8082                	ret

2000117e <LLE_IRQLibHandler>:
LLE_IRQLibHandler():
2000117e:	1101                	addi	sp,sp,-32
20001180:	c836                	sw	a3,16(sp)
20001182:	00002697          	auipc	a3,0x2
20001186:	15268693          	addi	a3,a3,338 # 200032d4 <gptrLLEReg>
2000118a:	c43e                	sw	a5,8(sp)
2000118c:	429c                	lw	a5,0(a3)
2000118e:	c63a                	sw	a4,12(sp)
20001190:	ca32                	sw	a2,20(sp)
20001192:	47d8                	lw	a4,12(a5)
20001194:	ce2a                	sw	a0,28(sp)
20001196:	cc2e                	sw	a1,24(sp)
20001198:	01171613          	slli	a2,a4,0x11
2000119c:	02065563          	bgez	a2,200011c6 <LLE_IRQLibHandler+0x48>
200011a0:	4798                	lw	a4,8(a5)
200011a2:	01171613          	slli	a2,a4,0x11
200011a6:	02065063          	bgez	a2,200011c6 <LLE_IRQLibHandler+0x48>
200011aa:	577d                	li	a4,-1
200011ac:	d7b8                	sw	a4,104(a5)
200011ae:	00002717          	auipc	a4,0x2
200011b2:	05e70713          	addi	a4,a4,94 # 2000320c <gTmosPara>
200011b6:	4f58                	lw	a4,28(a4)
200011b8:	0705                	addi	a4,a4,1
200011ba:	00002617          	auipc	a2,0x2
200011be:	06e62723          	sw	a4,110(a2) # 20003228 <gTmosPara+0x1c>
200011c2:	6711                	lui	a4,0x4
200011c4:	c798                	sw	a4,8(a5)
200011c6:	4798                	lw	a4,8(a5)
200011c8:	830d                	srli	a4,a4,0x3
200011ca:	8b05                	andi	a4,a4,1
200011cc:	c31d                	beqz	a4,200011f2 <LLE_IRQLibHandler+0x74>
200011ce:	00002717          	auipc	a4,0x2
200011d2:	0ec74703          	lbu	a4,236(a4) # 200032ba <gBleIPPara+0x2>
200011d6:	00176713          	ori	a4,a4,1
200011da:	00002617          	auipc	a2,0x2
200011de:	0ee60023          	sb	a4,224(a2) # 200032ba <gBleIPPara+0x2>
200011e2:	f8000713          	li	a4,-128
200011e6:	00002617          	auipc	a2,0x2
200011ea:	0ce60b23          	sb	a4,214(a2) # 200032bc <gBleIPPara+0x4>
200011ee:	4721                	li	a4,8
200011f0:	c798                	sw	a4,8(a5)
200011f2:	4798                	lw	a4,8(a5)
200011f4:	8b05                	andi	a4,a4,1
200011f6:	cf09                	beqz	a4,20001210 <LLE_IRQLibHandler+0x92>
200011f8:	00002717          	auipc	a4,0x2
200011fc:	0c174703          	lbu	a4,193(a4) # 200032b9 <gBleIPPara+0x1>
20001200:	00176713          	ori	a4,a4,1
20001204:	00002617          	auipc	a2,0x2
20001208:	0ae60aa3          	sb	a4,181(a2) # 200032b9 <gBleIPPara+0x1>
2000120c:	4705                	li	a4,1
2000120e:	c798                	sw	a4,8(a5)
20001210:	4798                	lw	a4,8(a5)
20001212:	8309                	srli	a4,a4,0x2
20001214:	8b05                	andi	a4,a4,1
20001216:	e709                	bnez	a4,20001220 <LLE_IRQLibHandler+0xa2>
20001218:	4798                	lw	a4,8(a5)
2000121a:	8305                	srli	a4,a4,0x1
2000121c:	8b05                	andi	a4,a4,1
2000121e:	cf39                	beqz	a4,2000127c <LLE_IRQLibHandler+0xfe>
20001220:	4798                	lw	a4,8(a5)
20001222:	00002617          	auipc	a2,0x2
20001226:	09660613          	addi	a2,a2,150 # 200032b8 <gBleIPPara>
2000122a:	00002517          	auipc	a0,0x2
2000122e:	08650513          	addi	a0,a0,134 # 200032b0 <gptrBBReg>
20001232:	8309                	srli	a4,a4,0x2
20001234:	8b05                	andi	a4,a4,1
20001236:	10070c63          	beqz	a4,2000134e <LLE_IRQLibHandler+0x1d0>
2000123a:	4118                	lw	a4,0(a0)
2000123c:	4318                	lw	a4,0(a4)
2000123e:	8331                	srli	a4,a4,0xc
20001240:	8b0d                	andi	a4,a4,3
20001242:	10071363          	bnez	a4,20001348 <LLE_IRQLibHandler+0x1ca>
20001246:	4bac                	lw	a1,80(a5)
20001248:	4e18                	lw	a4,24(a2)
2000124a:	0205f593          	andi	a1,a1,32
2000124e:	00174703          	lbu	a4,1(a4)
20001252:	c5e9                	beqz	a1,2000131c <LLE_IRQLibHandler+0x19e>
20001254:	e77d                	bnez	a4,20001342 <LLE_IRQLibHandler+0x1c4>
20001256:	06700713          	li	a4,103
2000125a:	cfd8                	sw	a4,28(a5)
2000125c:	00064703          	lbu	a4,0(a2)
20001260:	00176713          	ori	a4,a4,1
20001264:	00002617          	auipc	a2,0x2
20001268:	04e60a23          	sb	a4,84(a2) # 200032b8 <gBleIPPara>
2000126c:	4711                	li	a4,4
2000126e:	c798                	sw	a4,8(a5)
20001270:	4118                	lw	a4,0(a0)
20001272:	575c                	lw	a5,44(a4)
20001274:	9bf1                	andi	a5,a5,-4
20001276:	0017e793          	ori	a5,a5,1
2000127a:	d75c                	sw	a5,44(a4)
2000127c:	429c                	lw	a5,0(a3)
2000127e:	4798                	lw	a4,8(a5)
20001280:	01371693          	slli	a3,a4,0x13
20001284:	0206d663          	bgez	a3,200012b0 <LLE_IRQLibHandler+0x132>
20001288:	00002697          	auipc	a3,0x2
2000128c:	1186c683          	lbu	a3,280(a3) # 200033a0 <gBleLlPara+0x70>
20001290:	8ac1                	andi	a3,a3,16
20001292:	00002717          	auipc	a4,0x2
20001296:	09e70713          	addi	a4,a4,158 # 20003330 <gBleLlPara>
2000129a:	c6e1                	beqz	a3,20001362 <LLE_IRQLibHandler+0x1e4>
2000129c:	07074703          	lbu	a4,112(a4)
200012a0:	02076713          	ori	a4,a4,32
200012a4:	00002697          	auipc	a3,0x2
200012a8:	0ee68e23          	sb	a4,252(a3) # 200033a0 <gBleLlPara+0x70>
200012ac:	6705                	lui	a4,0x1
200012ae:	c798                	sw	a4,8(a5)
200012b0:	4798                	lw	a4,8(a5)
200012b2:	01271693          	slli	a3,a4,0x12
200012b6:	0206d163          	bgez	a3,200012d8 <LLE_IRQLibHandler+0x15a>
200012ba:	00002717          	auipc	a4,0x2
200012be:	00274703          	lbu	a4,2(a4) # 200032bc <gBleIPPara+0x4>
200012c2:	0762                	slli	a4,a4,0x18
200012c4:	8761                	srai	a4,a4,0x18
200012c6:	00075763          	bgez	a4,200012d4 <LLE_IRQLibHandler+0x156>
200012ca:	4705                	li	a4,1
200012cc:	00002697          	auipc	a3,0x2
200012d0:	fee68823          	sb	a4,-16(a3) # 200032bc <gBleIPPara+0x4>
200012d4:	6709                	lui	a4,0x2
200012d6:	c798                	sw	a4,8(a5)
200012d8:	4798                	lw	a4,8(a5)
200012da:	01071693          	slli	a3,a4,0x10
200012de:	0206d663          	bgez	a3,2000130a <LLE_IRQLibHandler+0x18c>
200012e2:	00002697          	auipc	a3,0x2
200012e6:	0bf6c683          	lbu	a3,191(a3) # 200033a1 <gBleLlPara+0x71>
200012ea:	8a85                	andi	a3,a3,1
200012ec:	00002717          	auipc	a4,0x2
200012f0:	04470713          	addi	a4,a4,68 # 20003330 <gBleLlPara>
200012f4:	c6c9                	beqz	a3,2000137e <LLE_IRQLibHandler+0x200>
200012f6:	07174703          	lbu	a4,113(a4)
200012fa:	00276713          	ori	a4,a4,2
200012fe:	00002697          	auipc	a3,0x2
20001302:	0ae681a3          	sb	a4,163(a3) # 200033a1 <gBleLlPara+0x71>
20001306:	6721                	lui	a4,0x8
20001308:	c798                	sw	a4,8(a5)
2000130a:	4572                	lw	a0,28(sp)
2000130c:	45e2                	lw	a1,24(sp)
2000130e:	4652                	lw	a2,20(sp)
20001310:	46c2                	lw	a3,16(sp)
20001312:	4732                	lw	a4,12(sp)
20001314:	47a2                	lw	a5,8(sp)
20001316:	6105                	addi	sp,sp,32
20001318:	30200073          	mret
2000131c:	df0d                	beqz	a4,20001256 <LLE_IRQLibHandler+0xd8>
2000131e:	4585                	li	a1,1
20001320:	00b71563          	bne	a4,a1,2000132a <LLE_IRQLibHandler+0x1ac>
20001324:	06b00713          	li	a4,107
20001328:	bf0d                	j	2000125a <LLE_IRQLibHandler+0xdc>
2000132a:	4589                	li	a1,2
2000132c:	00b71563          	bne	a4,a1,20001336 <LLE_IRQLibHandler+0x1b8>
20001330:	06f00713          	li	a4,111
20001334:	b71d                	j	2000125a <LLE_IRQLibHandler+0xdc>
20001336:	458d                	li	a1,3
20001338:	00b71563          	bne	a4,a1,20001342 <LLE_IRQLibHandler+0x1c4>
2000133c:	07300713          	li	a4,115
20001340:	bf29                	j	2000125a <LLE_IRQLibHandler+0xdc>
20001342:	07500713          	li	a4,117
20001346:	bf11                	j	2000125a <LLE_IRQLibHandler+0xdc>
20001348:	07600713          	li	a4,118
2000134c:	b739                	j	2000125a <LLE_IRQLibHandler+0xdc>
2000134e:	00364703          	lbu	a4,3(a2)
20001352:	00176713          	ori	a4,a4,1
20001356:	00002617          	auipc	a2,0x2
2000135a:	f6e602a3          	sb	a4,-155(a2) # 200032bb <gBleIPPara+0x3>
2000135e:	4709                	li	a4,2
20001360:	b739                	j	2000126e <LLE_IRQLibHandler+0xf0>
20001362:	07074683          	lbu	a3,112(a4) # 8070 <_data_lma+0x1b18>
20001366:	4609                	li	a2,2
20001368:	8abd                	andi	a3,a3,15
2000136a:	00c68863          	beq	a3,a2,2000137a <LLE_IRQLibHandler+0x1fc>
2000136e:	07074703          	lbu	a4,112(a4)
20001372:	468d                	li	a3,3
20001374:	8b3d                	andi	a4,a4,15
20001376:	f2d71be3          	bne	a4,a3,200012ac <LLE_IRQLibHandler+0x12e>
2000137a:	4711                	li	a4,4
2000137c:	b725                	j	200012a4 <LLE_IRQLibHandler+0x126>
2000137e:	07174683          	lbu	a3,113(a4)
20001382:	8a91                	andi	a3,a3,4
20001384:	d2c9                	beqz	a3,20001306 <LLE_IRQLibHandler+0x188>
20001386:	07174703          	lbu	a4,113(a4)
2000138a:	00876713          	ori	a4,a4,8
2000138e:	bf85                	j	200012fe <LLE_IRQLibHandler+0x180>

20001390 <RF_HopGetChannel>:
RF_HopGetChannel():
20001390:	00002717          	auipc	a4,0x2
20001394:	f4870713          	addi	a4,a4,-184 # 200032d8 <rfConfig>
20001398:	01b74683          	lbu	a3,27(a4)
2000139c:	00002797          	auipc	a5,0x2
200013a0:	f697c783          	lbu	a5,-151(a5) # 20003305 <rfInfo+0xd>
200013a4:	97b6                	add	a5,a5,a3
200013a6:	0ff7f793          	andi	a5,a5,255
200013aa:	46fd                	li	a3,31
200013ac:	04f6ea63          	bltu	a3,a5,20001400 <RF_HopGetChannel+0x70>
200013b0:	4b4c                	lw	a1,20(a4)
200013b2:	00002697          	auipc	a3,0x2
200013b6:	f2f683a3          	sb	a5,-217(a3) # 200032d9 <rfConfig+0x1>
200013ba:	00002797          	auipc	a5,0x2
200013be:	f1f7c783          	lbu	a5,-225(a5) # 200032d9 <rfConfig+0x1>
200013c2:	4705                	li	a4,1
200013c4:	00f71733          	sll	a4,a4,a5
200013c8:	00002697          	auipc	a3,0x2
200013cc:	f2f68ea3          	sb	a5,-195(a3) # 20003305 <rfInfo+0xd>
200013d0:	8f6d                	and	a4,a4,a1
200013d2:	ef1d                	bnez	a4,20001410 <RF_HopGetChannel+0x80>
200013d4:	00002697          	auipc	a3,0x2
200013d8:	f356c683          	lbu	a3,-203(a3) # 20003309 <rfInfo+0x11>
200013dc:	02d7f6b3          	remu	a3,a5,a3
200013e0:	02000513          	li	a0,32
200013e4:	4781                	li	a5,0
200013e6:	00f5d633          	srl	a2,a1,a5
200013ea:	8a05                	andi	a2,a2,1
200013ec:	0ff7f813          	andi	a6,a5,255
200013f0:	ce09                	beqz	a2,2000140a <RF_HopGetChannel+0x7a>
200013f2:	00e69963          	bne	a3,a4,20001404 <RF_HopGetChannel+0x74>
200013f6:	00002797          	auipc	a5,0x2
200013fa:	ef0781a3          	sb	a6,-285(a5) # 200032d9 <rfConfig+0x1>
200013fe:	8082                	ret
20001400:	1781                	addi	a5,a5,-32
20001402:	b77d                	j	200013b0 <RF_HopGetChannel+0x20>
20001404:	0705                	addi	a4,a4,1
20001406:	0ff77713          	andi	a4,a4,255
2000140a:	0785                	addi	a5,a5,1
2000140c:	fca79de3          	bne	a5,a0,200013e6 <RF_HopGetChannel+0x56>
20001410:	8082                	ret

20001412 <RF_FrequencyHoppingGet>:
RF_FrequencyHoppingGet():
20001412:	00002797          	auipc	a5,0x2
20001416:	e9678793          	addi	a5,a5,-362 # 200032a8 <fnGetClockCBs>
2000141a:	439c                	lw	a5,0(a5)
2000141c:	1101                	addi	sp,sp,-32
2000141e:	cc22                	sw	s0,24(sp)
20001420:	c64e                	sw	s3,12(sp)
20001422:	ce06                	sw	ra,28(sp)
20001424:	ca26                	sw	s1,20(sp)
20001426:	c84a                	sw	s2,16(sp)
20001428:	c452                	sw	s4,8(sp)
2000142a:	c256                	sw	s5,4(sp)
2000142c:	9782                	jalr	a5
2000142e:	00002797          	auipc	a5,0x2
20001432:	eca78793          	addi	a5,a5,-310 # 200032f8 <rfInfo>
20001436:	4780                	lw	s0,8(a5)
20001438:	4981                	li	s3,0
2000143a:	06a40563          	beq	s0,a0,200014a4 <RF_FrequencyHoppingGet+0x92>
2000143e:	84be                	mv	s1,a5
20001440:	00002797          	auipc	a5,0x2
20001444:	e2478793          	addi	a5,a5,-476 # 20003264 <ble>
20001448:	01678703          	lb	a4,22(a5)
2000144c:	893e                	mv	s2,a5
2000144e:	06075563          	bgez	a4,200014b8 <RF_FrequencyHoppingGet+0xa6>
20001452:	8d01                	sub	a0,a0,s0
20001454:	00555413          	srli	s0,a0,0x5
20001458:	00002797          	auipc	a5,0x2
2000145c:	e9a7c783          	lbu	a5,-358(a5) # 200032f2 <rfConfig+0x1a>
20001460:	01f57993          	andi	s3,a0,31
20001464:	02f46d63          	bltu	s0,a5,2000149e <RF_FrequencyHoppingGet+0x8c>
20001468:	a8c00a37          	lui	s4,0xa8c00
2000146c:	57400ab7          	lui	s5,0x57400
20001470:	3705                	jal	20001390 <RF_HopGetChannel>
20001472:	449c                	lw	a5,8(s1)
20001474:	00002697          	auipc	a3,0x2
20001478:	e7e6c683          	lbu	a3,-386(a3) # 200032f2 <rfConfig+0x1a>
2000147c:	00569713          	slli	a4,a3,0x5
20001480:	973e                	add	a4,a4,a5
20001482:	01690783          	lb	a5,22(s2)
20001486:	8c15                	sub	s0,s0,a3
20001488:	0007c563          	bltz	a5,20001492 <RF_FrequencyHoppingGet+0x80>
2000148c:	01476363          	bltu	a4,s4,20001492 <RF_FrequencyHoppingGet+0x80>
20001490:	9756                	add	a4,a4,s5
20001492:	00002797          	auipc	a5,0x2
20001496:	e6e7a723          	sw	a4,-402(a5) # 20003300 <rfInfo+0x8>
2000149a:	fcd47be3          	bgeu	s0,a3,20001470 <RF_FrequencyHoppingGet+0x5e>
2000149e:	0416                	slli	s0,s0,0x5
200014a0:	013469b3          	or	s3,s0,s3
200014a4:	40f2                	lw	ra,28(sp)
200014a6:	4462                	lw	s0,24(sp)
200014a8:	854e                	mv	a0,s3
200014aa:	44d2                	lw	s1,20(sp)
200014ac:	4942                	lw	s2,16(sp)
200014ae:	49b2                	lw	s3,12(sp)
200014b0:	4a22                	lw	s4,8(sp)
200014b2:	4a92                	lw	s5,4(sp)
200014b4:	6105                	addi	sp,sp,32
200014b6:	8082                	ret
200014b8:	f8857de3          	bgeu	a0,s0,20001452 <RF_FrequencyHoppingGet+0x40>
200014bc:	a8c007b7          	lui	a5,0xa8c00
200014c0:	40878433          	sub	s0,a5,s0
200014c4:	9522                	add	a0,a0,s0
200014c6:	b779                	j	20001454 <RF_FrequencyHoppingGet+0x42>

200014c8 <RF_FrequencyHoppingChange>:
RF_FrequencyHoppingChange():
200014c8:	00002797          	auipc	a5,0x2
200014cc:	de078793          	addi	a5,a5,-544 # 200032a8 <fnGetClockCBs>
200014d0:	439c                	lw	a5,0(a5)
200014d2:	1141                	addi	sp,sp,-16
200014d4:	c422                	sw	s0,8(sp)
200014d6:	c606                	sw	ra,12(sp)
200014d8:	c226                	sw	s1,4(sp)
200014da:	9782                	jalr	a5
200014dc:	00002797          	auipc	a5,0x2
200014e0:	e1c78793          	addi	a5,a5,-484 # 200032f8 <rfInfo>
200014e4:	4780                	lw	s0,8(a5)
200014e6:	06a40963          	beq	s0,a0,20001558 <RF_FrequencyHoppingChange+0x90>
200014ea:	84be                	mv	s1,a5
200014ec:	00002797          	auipc	a5,0x2
200014f0:	d7878793          	addi	a5,a5,-648 # 20003264 <ble>
200014f4:	01678783          	lb	a5,22(a5)
200014f8:	0407d863          	bgez	a5,20001548 <RF_FrequencyHoppingChange+0x80>
200014fc:	8d01                	sub	a0,a0,s0
200014fe:	00555413          	srli	s0,a0,0x5
20001502:	00002797          	auipc	a5,0x2
20001506:	df07c783          	lbu	a5,-528(a5) # 200032f2 <rfConfig+0x1a>
2000150a:	04f46763          	bltu	s0,a5,20001558 <RF_FrequencyHoppingChange+0x90>
2000150e:	3549                	jal	20001390 <RF_HopGetChannel>
20001510:	4498                	lw	a4,8(s1)
20001512:	00002797          	auipc	a5,0x2
20001516:	de07c783          	lbu	a5,-544(a5) # 200032f2 <rfConfig+0x1a>
2000151a:	00579693          	slli	a3,a5,0x5
2000151e:	9736                	add	a4,a4,a3
20001520:	8c1d                	sub	s0,s0,a5
20001522:	00002697          	auipc	a3,0x2
20001526:	dce6af23          	sw	a4,-546(a3) # 20003300 <rfInfo+0x8>
2000152a:	fef472e3          	bgeu	s0,a5,2000150e <RF_FrequencyHoppingChange+0x46>
2000152e:	4422                	lw	s0,8(sp)
20001530:	40b2                	lw	ra,12(sp)
20001532:	4492                	lw	s1,4(sp)
20001534:	00002517          	auipc	a0,0x2
20001538:	da554503          	lbu	a0,-603(a0) # 200032d9 <rfConfig+0x1>
2000153c:	4581                	li	a1,0
2000153e:	0141                	addi	sp,sp,16
20001540:	e0003317          	auipc	t1,0xe0003
20001544:	a0a30067          	jr	-1526(t1) # 3f4a <RF_DevSetChannel>
20001548:	fa857ae3          	bgeu	a0,s0,200014fc <RF_FrequencyHoppingChange+0x34>
2000154c:	a8c007b7          	lui	a5,0xa8c00
20001550:	40878433          	sub	s0,a5,s0
20001554:	9522                	add	a0,a0,s0
20001556:	b765                	j	200014fe <RF_FrequencyHoppingChange+0x36>
20001558:	40b2                	lw	ra,12(sp)
2000155a:	4422                	lw	s0,8(sp)
2000155c:	4492                	lw	s1,4(sp)
2000155e:	0141                	addi	sp,sp,16
20001560:	8082                	ret

20001562 <RFEND_WaitTune>:
RFEND_WaitTune():
20001562:	00002797          	auipc	a5,0x2
20001566:	db678793          	addi	a5,a5,-586 # 20003318 <gptrRFENDReg>
2000156a:	4398                	lw	a4,0(a5)
2000156c:	000257b7          	lui	a5,0x25
20001570:	9f078793          	addi	a5,a5,-1552 # 249f0 <_data_lma+0x1e498>
20001574:	09072683          	lw	a3,144(a4)
20001578:	00569613          	slli	a2,a3,0x5
2000157c:	00065863          	bgez	a2,2000158c <RFEND_WaitTune+0x2a>
20001580:	09072683          	lw	a3,144(a4)
20001584:	00669613          	slli	a2,a3,0x6
20001588:	00064463          	bltz	a2,20001590 <RFEND_WaitTune+0x2e>
2000158c:	17fd                	addi	a5,a5,-1
2000158e:	f3fd                	bnez	a5,20001574 <RFEND_WaitTune+0x12>
20001590:	8082                	ret

20001592 <tmos_memory_allocate>:
tmos_memory_allocate():
20001592:	c571                	beqz	a0,2000165e <tmos_memory_allocate+0xcc>
20001594:	87aa                	mv	a5,a0
20001596:	4501                	li	a0,0
20001598:	c5e9                	beqz	a1,20001662 <tmos_memory_allocate+0xd0>
2000159a:	078d                	addi	a5,a5,3
2000159c:	07c2                	slli	a5,a5,0x10
2000159e:	83c1                	srli	a5,a5,0x10
200015a0:	9bf1                	andi	a5,a5,-4
200015a2:	07c2                	slli	a5,a5,0x10
200015a4:	83c1                	srli	a5,a5,0x10
200015a6:	03400713          	li	a4,52
200015aa:	02f76f63          	bltu	a4,a5,200015e8 <tmos_memory_allocate+0x56>
200015ae:	00002717          	auipc	a4,0x2
200015b2:	d7a70713          	addi	a4,a4,-646 # 20003328 <MemCtlStart>
200015b6:	4308                	lw	a0,0(a4)
200015b8:	00002717          	auipc	a4,0x2
200015bc:	d6870713          	addi	a4,a4,-664 # 20003320 <MemCtlEnd>
200015c0:	4314                	lw	a3,0(a4)
200015c2:	02a69863          	bne	a3,a0,200015f2 <tmos_memory_allocate+0x60>
200015c6:	00002717          	auipc	a4,0x2
200015ca:	c9e70713          	addi	a4,a4,-866 # 20003264 <ble>
200015ce:	5b18                	lw	a4,48(a4)
200015d0:	4501                	li	a0,0
200015d2:	cb41                	beqz	a4,20001662 <tmos_memory_allocate+0xd0>
200015d4:	1141                	addi	sp,sp,-16
200015d6:	07c2                	slli	a5,a5,0x10
200015d8:	c606                	sw	ra,12(sp)
200015da:	4505                	li	a0,1
200015dc:	8ddd                	or	a1,a1,a5
200015de:	9702                	jalr	a4
200015e0:	40b2                	lw	ra,12(sp)
200015e2:	4501                	li	a0,0
200015e4:	0141                	addi	sp,sp,16
200015e6:	8082                	ret
200015e8:	00002717          	auipc	a4,0x2
200015ec:	d3c70713          	addi	a4,a4,-708 # 20003324 <MemCtlPartition>
200015f0:	b7d9                	j	200015b6 <tmos_memory_allocate+0x24>
200015f2:	00655703          	lhu	a4,6(a0)
200015f6:	e335                	bnez	a4,2000165a <tmos_memory_allocate+0xc8>
200015f8:	00455703          	lhu	a4,4(a0)
200015fc:	04f76f63          	bltu	a4,a5,2000165a <tmos_memory_allocate+0xc8>
20001600:	40f706b3          	sub	a3,a4,a5
20001604:	4621                	li	a2,8
20001606:	02d67c63          	bgeu	a2,a3,2000163e <tmos_memory_allocate+0xac>
2000160a:	00052803          	lw	a6,0(a0)
2000160e:	00878693          	addi	a3,a5,8
20001612:	8f1d                	sub	a4,a4,a5
20001614:	96aa                	add	a3,a3,a0
20001616:	1761                	addi	a4,a4,-8
20001618:	00002617          	auipc	a2,0x2
2000161c:	bfa65603          	lhu	a2,-1030(a2) # 20003212 <gTmosPara+0x6>
20001620:	00e69223          	sh	a4,4(a3)
20001624:	0106a023          	sw	a6,0(a3)
20001628:	00069323          	sh	zero,6(a3)
2000162c:	c114                	sw	a3,0(a0)
2000162e:	00f51223          	sh	a5,4(a0)
20001632:	ff860713          	addi	a4,a2,-8
20001636:	00002697          	auipc	a3,0x2
2000163a:	bce69e23          	sh	a4,-1060(a3) # 20003212 <gTmosPara+0x6>
2000163e:	00b51323          	sh	a1,6(a0)
20001642:	00002597          	auipc	a1,0x2
20001646:	bd05d583          	lhu	a1,-1072(a1) # 20003212 <gTmosPara+0x6>
2000164a:	40f587b3          	sub	a5,a1,a5
2000164e:	00002717          	auipc	a4,0x2
20001652:	bcf71223          	sh	a5,-1084(a4) # 20003212 <gTmosPara+0x6>
20001656:	0521                	addi	a0,a0,8
20001658:	8082                	ret
2000165a:	4108                	lw	a0,0(a0)
2000165c:	b79d                	j	200015c2 <tmos_memory_allocate+0x30>
2000165e:	4501                	li	a0,0
20001660:	8082                	ret
20001662:	8082                	ret

20001664 <tmos_memory_free>:
tmos_memory_free():
20001664:	c10d                	beqz	a0,20001686 <tmos_memory_free+0x22>
20001666:	00002797          	auipc	a5,0x2
2000166a:	cc278793          	addi	a5,a5,-830 # 20003328 <MemCtlStart>
2000166e:	0007a303          	lw	t1,0(a5)
20001672:	00002797          	auipc	a5,0x2
20001676:	cae78793          	addi	a5,a5,-850 # 20003320 <MemCtlEnd>
2000167a:	0007a883          	lw	a7,0(a5)
2000167e:	4681                	li	a3,0
20001680:	879a                	mv	a5,t1
20001682:	0117e363          	bltu	a5,a7,20001688 <tmos_memory_free+0x24>
20001686:	8082                	ret
20001688:	0007a803          	lw	a6,0(a5)
2000168c:	0af56d63          	bltu	a0,a5,20001746 <tmos_memory_free+0xe2>
20001690:	0aa86b63          	bltu	a6,a0,20001746 <tmos_memory_free+0xe2>
20001694:	00878713          	addi	a4,a5,8
20001698:	fee567e3          	bltu	a0,a4,20001686 <tmos_memory_free+0x22>
2000169c:	0067d603          	lhu	a2,6(a5)
200016a0:	6721                	lui	a4,0x8
200016a2:	0705                	addi	a4,a4,1
200016a4:	00e61763          	bne	a2,a4,200016b2 <tmos_memory_free+0x4e>
200016a8:	80d1c703          	lbu	a4,-2035(gp) # 2000175d <l2capNumRecvDataPkts>
200016ac:	0705                	addi	a4,a4,1
200016ae:	80e186a3          	sb	a4,-2035(gp) # 2000175d <l2capNumRecvDataPkts>
200016b2:	00002597          	auipc	a1,0x2
200016b6:	b5a58593          	addi	a1,a1,-1190 # 2000320c <gTmosPara>
200016ba:	0047d603          	lhu	a2,4(a5)
200016be:	0065d703          	lhu	a4,6(a1)
200016c2:	00079323          	sh	zero,6(a5)
200016c6:	9732                	add	a4,a4,a2
200016c8:	0742                	slli	a4,a4,0x10
200016ca:	8341                	srli	a4,a4,0x10
200016cc:	00002517          	auipc	a0,0x2
200016d0:	b4e51323          	sh	a4,-1210(a0) # 20003212 <gTmosPara+0x6>
200016d4:	02678a63          	beq	a5,t1,20001708 <tmos_memory_free+0xa4>
200016d8:	00002517          	auipc	a0,0x2
200016dc:	c4c50513          	addi	a0,a0,-948 # 20003324 <MemCtlPartition>
200016e0:	4108                	lw	a0,0(a0)
200016e2:	02f50363          	beq	a0,a5,20001708 <tmos_memory_free+0xa4>
200016e6:	0066d503          	lhu	a0,6(a3)
200016ea:	ed19                	bnez	a0,20001708 <tmos_memory_free+0xa4>
200016ec:	0046d783          	lhu	a5,4(a3)
200016f0:	0106a023          	sw	a6,0(a3)
200016f4:	0721                	addi	a4,a4,8
200016f6:	963e                	add	a2,a2,a5
200016f8:	0621                	addi	a2,a2,8
200016fa:	00c69223          	sh	a2,4(a3)
200016fe:	00002797          	auipc	a5,0x2
20001702:	b0e79a23          	sh	a4,-1260(a5) # 20003212 <gTmosPara+0x6>
20001706:	87b6                	mv	a5,a3
20001708:	4398                	lw	a4,0(a5)
2000170a:	f7170ee3          	beq	a4,a7,20001686 <tmos_memory_free+0x22>
2000170e:	00002697          	auipc	a3,0x2
20001712:	c1668693          	addi	a3,a3,-1002 # 20003324 <MemCtlPartition>
20001716:	4294                	lw	a3,0(a3)
20001718:	f6d707e3          	beq	a4,a3,20001686 <tmos_memory_free+0x22>
2000171c:	00675683          	lhu	a3,6(a4) # 8006 <_data_lma+0x1aae>
20001720:	f2bd                	bnez	a3,20001686 <tmos_memory_free+0x22>
20001722:	0047d683          	lhu	a3,4(a5)
20001726:	00475603          	lhu	a2,4(a4)
2000172a:	4318                	lw	a4,0(a4)
2000172c:	06a1                	addi	a3,a3,8
2000172e:	96b2                	add	a3,a3,a2
20001730:	00d79223          	sh	a3,4(a5)
20001734:	c398                	sw	a4,0(a5)
20001736:	0065d783          	lhu	a5,6(a1)
2000173a:	07a1                	addi	a5,a5,8
2000173c:	00002717          	auipc	a4,0x2
20001740:	acf71b23          	sh	a5,-1322(a4) # 20003212 <gTmosPara+0x6>
20001744:	8082                	ret
20001746:	86be                	mv	a3,a5
20001748:	87c2                	mv	a5,a6
2000174a:	bf25                	j	20001682 <tmos_memory_free+0x1e>

Disassembly of section .text:

00001750 <handle_reset>:
handle_reset():
E:\Project\tp78\mounriver_project\RF_CH582M\obj/../Startup/startup_CH583.S:125
	.weak	handle_reset
	.align	1
handle_reset:
.option push 
.option	norelax 
	la gp, __global_pointer$
    1750:	20001197          	auipc	gp,0x20001
    1754:	80018193          	addi	gp,gp,-2048 # 20001f50 <__global_pointer$>
E:\Project\tp78\mounriver_project\RF_CH582M\obj/../Startup/startup_CH583.S:128
.option	pop 
1:
	la sp, _eusrstack 
    1758:	20007117          	auipc	sp,0x20007
    175c:	8a810113          	addi	sp,sp,-1880 # 20008000 <_eusrstack>
E:\Project\tp78\mounriver_project\RF_CH582M\obj/../Startup/startup_CH583.S:132

/* Load highcode code  section from flash to RAM */
2:
    la a0, _highcode_lma
    1760:	00400513          	li	a0,4
E:\Project\tp78\mounriver_project\RF_CH582M\obj/../Startup/startup_CH583.S:133
    la a1, _highcode_vma_start
    1764:	1ffff597          	auipc	a1,0x1ffff
    1768:	89c58593          	addi	a1,a1,-1892 # 20000000 <_highcode_vma_start>
E:\Project\tp78\mounriver_project\RF_CH582M\obj/../Startup/startup_CH583.S:134
    la a2, _highcode_vma_end
    176c:	20000617          	auipc	a2,0x20000
    1770:	fe060613          	addi	a2,a2,-32 # 2000174c <_highcode_vma_end>
E:\Project\tp78\mounriver_project\RF_CH582M\obj/../Startup/startup_CH583.S:135
    bgeu a1, a2, 2f
    1774:	00c5fa63          	bgeu	a1,a2,1788 <handle_reset+0x38>
E:\Project\tp78\mounriver_project\RF_CH582M\obj/../Startup/startup_CH583.S:137
1:
    lw t0, (a0)
    1778:	00052283          	lw	t0,0(a0)
E:\Project\tp78\mounriver_project\RF_CH582M\obj/../Startup/startup_CH583.S:138
    sw t0, (a1)
    177c:	0055a023          	sw	t0,0(a1)
E:\Project\tp78\mounriver_project\RF_CH582M\obj/../Startup/startup_CH583.S:139
    addi a0, a0, 4
    1780:	0511                	addi	a0,a0,4
E:\Project\tp78\mounriver_project\RF_CH582M\obj/../Startup/startup_CH583.S:140
    addi a1, a1, 4
    1782:	0591                	addi	a1,a1,4
E:\Project\tp78\mounriver_project\RF_CH582M\obj/../Startup/startup_CH583.S:141
    bltu a1, a2, 1b
    1784:	fec5eae3          	bltu	a1,a2,1778 <handle_reset+0x28>
E:\Project\tp78\mounriver_project\RF_CH582M\obj/../Startup/startup_CH583.S:145

/* Load data section from flash to RAM */
2:
	la a0, _data_lma
    1788:	00005517          	auipc	a0,0x5
    178c:	dd050513          	addi	a0,a0,-560 # 6558 <_data_lma>
E:\Project\tp78\mounriver_project\RF_CH582M\obj/../Startup/startup_CH583.S:146
	la a1, _data_vma
    1790:	20000597          	auipc	a1,0x20000
    1794:	fbc58593          	addi	a1,a1,-68 # 2000174c <_highcode_vma_end>
E:\Project\tp78\mounriver_project\RF_CH582M\obj/../Startup/startup_CH583.S:147
	la a2, _edata
    1798:	80818613          	addi	a2,gp,-2040 # 20001758 <_edata>
E:\Project\tp78\mounriver_project\RF_CH582M\obj/../Startup/startup_CH583.S:148
	bgeu a1, a2, 2f
    179c:	00c5fa63          	bgeu	a1,a2,17b0 <handle_reset+0x60>
E:\Project\tp78\mounriver_project\RF_CH582M\obj/../Startup/startup_CH583.S:150
1:
	lw t0, (a0)
    17a0:	00052283          	lw	t0,0(a0)
E:\Project\tp78\mounriver_project\RF_CH582M\obj/../Startup/startup_CH583.S:151
	sw t0, (a1)
    17a4:	0055a023          	sw	t0,0(a1)
E:\Project\tp78\mounriver_project\RF_CH582M\obj/../Startup/startup_CH583.S:152
	addi a0, a0, 4
    17a8:	0511                	addi	a0,a0,4
E:\Project\tp78\mounriver_project\RF_CH582M\obj/../Startup/startup_CH583.S:153
	addi a1, a1, 4
    17aa:	0591                	addi	a1,a1,4
E:\Project\tp78\mounriver_project\RF_CH582M\obj/../Startup/startup_CH583.S:154
	bltu a1, a2, 1b
    17ac:	fec5eae3          	bltu	a1,a2,17a0 <handle_reset+0x50>
E:\Project\tp78\mounriver_project\RF_CH582M\obj/../Startup/startup_CH583.S:157
2:
	/* clear bss section */
	la a0, _sbss
    17b0:	80818513          	addi	a0,gp,-2040 # 20001758 <_edata>
E:\Project\tp78\mounriver_project\RF_CH582M\obj/../Startup/startup_CH583.S:158
	la a1, _ebss
    17b4:	20002597          	auipc	a1,0x20002
    17b8:	c9458593          	addi	a1,a1,-876 # 20003448 <_ebss>
E:\Project\tp78\mounriver_project\RF_CH582M\obj/../Startup/startup_CH583.S:159
	bgeu a0, a1, 2f
    17bc:	00b57763          	bgeu	a0,a1,17ca <handle_reset+0x7a>
E:\Project\tp78\mounriver_project\RF_CH582M\obj/../Startup/startup_CH583.S:161
1:
	sw zero, (a0)
    17c0:	00052023          	sw	zero,0(a0)
E:\Project\tp78\mounriver_project\RF_CH582M\obj/../Startup/startup_CH583.S:162
	addi a0, a0, 4
    17c4:	0511                	addi	a0,a0,4
E:\Project\tp78\mounriver_project\RF_CH582M\obj/../Startup/startup_CH583.S:163
	bltu a0, a1, 1b
    17c6:	feb56de3          	bltu	a0,a1,17c0 <handle_reset+0x70>
E:\Project\tp78\mounriver_project\RF_CH582M\obj/../Startup/startup_CH583.S:166
2:
	/* 流水线控制位 & 动态预测控制位 */
	li t0, 0x1f
    17ca:	42fd                	li	t0,31
E:\Project\tp78\mounriver_project\RF_CH582M\obj/../Startup/startup_CH583.S:167
	csrw 0xbc0, t0
    17cc:	bc029073          	csrw	0xbc0,t0
E:\Project\tp78\mounriver_project\RF_CH582M\obj/../Startup/startup_CH583.S:169
	/* 打开嵌套中断、硬件压栈功能 */
	li t0, 0x3
    17d0:	428d                	li	t0,3
E:\Project\tp78\mounriver_project\RF_CH582M\obj/../Startup/startup_CH583.S:170
	csrw 0x804, t0
    17d2:	80429073          	csrw	0x804,t0
E:\Project\tp78\mounriver_project\RF_CH582M\obj/../Startup/startup_CH583.S:172
	
    li t0, 0x88
    17d6:	08800293          	li	t0,136
E:\Project\tp78\mounriver_project\RF_CH582M\obj/../Startup/startup_CH583.S:173
    csrs mstatus, t0
    17da:	3002a073          	csrs	mstatus,t0
E:\Project\tp78\mounriver_project\RF_CH582M\obj/../Startup/startup_CH583.S:174
	la t0, _vector_base
    17de:	1ffff297          	auipc	t0,0x1ffff
    17e2:	82228293          	addi	t0,t0,-2014 # 20000000 <_highcode_vma_start>
E:\Project\tp78\mounriver_project\RF_CH582M\obj/../Startup/startup_CH583.S:177

	/* 配置向量表模式为绝对地址模式 */
    ori t0, t0, 3
    17e6:	0032e293          	ori	t0,t0,3
E:\Project\tp78\mounriver_project\RF_CH582M\obj/../Startup/startup_CH583.S:178
	csrw mtvec, t0
    17ea:	30529073          	csrw	mtvec,t0
E:\Project\tp78\mounriver_project\RF_CH582M\obj/../Startup/startup_CH583.S:180

	la t0, main
    17ee:	00001297          	auipc	t0,0x1
    17f2:	49428293          	addi	t0,t0,1172 # 2c82 <main>
E:\Project\tp78\mounriver_project\RF_CH582M\obj/../Startup/startup_CH583.S:181
	csrw mepc, t0
    17f6:	34129073          	csrw	mepc,t0
E:\Project\tp78\mounriver_project\RF_CH582M\obj/../Startup/startup_CH583.S:184
	
	
	mret
    17fa:	30200073          	mret

000017fe <ADC_InterTSSampInit>:
ADC_InterTSSampInit():
E:\Project\tp78\mounriver_project\RF_CH582M\obj/../StdPeriphDriver/CH58x_adc.c:94
 *
 * @return  none
 */
void ADC_InterTSSampInit(void)
{
    R8_TKEY_CFG &= ~RB_TKEY_PWR_ON;
    17fe:	400017b7          	lui	a5,0x40001
    1802:	0577c703          	lbu	a4,87(a5) # 40001057 <_eusrstack+0x1fff9057>
    1806:	0fe77713          	andi	a4,a4,254
    180a:	04e78ba3          	sb	a4,87(a5)
E:\Project\tp78\mounriver_project\RF_CH582M\obj/../StdPeriphDriver/CH58x_adc.c:95
    R8_TEM_SENSOR = RB_TEM_SEN_PWR_ON;
    180e:	f8000713          	li	a4,-128
    1812:	04e78da3          	sb	a4,91(a5)
E:\Project\tp78\mounriver_project\RF_CH582M\obj/../StdPeriphDriver/CH58x_adc.c:96
    R8_ADC_CHANNEL = CH_INTE_VTEMP;
    1816:	473d                	li	a4,15
    1818:	04e78c23          	sb	a4,88(a5)
E:\Project\tp78\mounriver_project\RF_CH582M\obj/../StdPeriphDriver/CH58x_adc.c:97
    R8_ADC_CFG = RB_ADC_POWER_ON | RB_ADC_DIFF_EN | (3 << 4);
    181c:	03500713          	li	a4,53
    1820:	04e78ca3          	sb	a4,89(a5)
E:\Project\tp78\mounriver_project\RF_CH582M\obj/../StdPeriphDriver/CH58x_adc.c:98
}
    1824:	8082                	ret

00001826 <Calibration_LSI>:
Calibration_LSI():
E:\Project\tp78\mounriver_project\RF_CH582M\obj/../StdPeriphDriver/CH58x_clk.c:142
 *                              Level_128 -   用时 4.2ms 600ppm  (32M 主频)  800ppm  (60M 主频)
 *
 * @return  none
 */
void Calibration_LSI(Cali_LevelTypeDef cali_Lv)
{
    1826:	1141                	addi	sp,sp,-16
    1828:	c422                	sw	s0,8(sp)
    182a:	c606                	sw	ra,12(sp)
    182c:	842a                	mv	s0,a0
E:\Project\tp78\mounriver_project\RF_CH582M\obj/../StdPeriphDriver/CH58x_clk.c:148
    UINT32 i;
    INT32  cnt_offset;
    UINT8  retry = 0;
    INT32  freq_sys;

    freq_sys = GetSysClock();
    182e:	29c9                	jal	1d00 <GetSysClock>
E:\Project\tp78\mounriver_project\RF_CH582M\obj/../StdPeriphDriver/CH58x_clk.c:149
    R8_SAFE_ACCESS_SIG = SAFE_ACCESS_SIG1;
    1830:	40001737          	lui	a4,0x40001
    1834:	05700693          	li	a3,87
    1838:	04d70023          	sb	a3,64(a4) # 40001040 <_eusrstack+0x1fff9040>
E:\Project\tp78\mounriver_project\RF_CH582M\obj/../StdPeriphDriver/CH58x_clk.c:150
    R8_SAFE_ACCESS_SIG = SAFE_ACCESS_SIG2;
    183c:	fa800793          	li	a5,-88
    1840:	04f70023          	sb	a5,64(a4)
E:\Project\tp78\mounriver_project\RF_CH582M\obj/../StdPeriphDriver/CH58x_clk.c:151
    SAFEOPERATE;
    1844:	0001                	nop
    1846:	0001                	nop
E:\Project\tp78\mounriver_project\RF_CH582M\obj/../StdPeriphDriver/CH58x_clk.c:152
    R8_CK32K_CONFIG |= RB_CLK_OSC32K_FILT;
    1848:	02f74603          	lbu	a2,47(a4)
    184c:	00866613          	ori	a2,a2,8
    1850:	02c707a3          	sb	a2,47(a4)
E:\Project\tp78\mounriver_project\RF_CH582M\obj/../StdPeriphDriver/CH58x_clk.c:153
    R8_CK32K_CONFIG &= ~RB_CLK_OSC32K_FILT;
    1854:	02f74603          	lbu	a2,47(a4)
    1858:	0f767613          	andi	a2,a2,247
    185c:	02c707a3          	sb	a2,47(a4)
E:\Project\tp78\mounriver_project\RF_CH582M\obj/../StdPeriphDriver/CH58x_clk.c:154
    R8_XT32K_TUNE &= ~3;
    1860:	02e74603          	lbu	a2,46(a4)
    1864:	0fc67613          	andi	a2,a2,252
    1868:	02c70723          	sb	a2,46(a4)
E:\Project\tp78\mounriver_project\RF_CH582M\obj/../StdPeriphDriver/CH58x_clk.c:155
    R8_XT32K_TUNE |= 1;
    186c:	02e74603          	lbu	a2,46(a4)
    1870:	00166613          	ori	a2,a2,1
    1874:	02c70723          	sb	a2,46(a4)
E:\Project\tp78\mounriver_project\RF_CH582M\obj/../StdPeriphDriver/CH58x_clk.c:158

    // 粗调
    R8_SAFE_ACCESS_SIG = SAFE_ACCESS_SIG1;
    1878:	04d70023          	sb	a3,64(a4)
E:\Project\tp78\mounriver_project\RF_CH582M\obj/../StdPeriphDriver/CH58x_clk.c:159
    R8_SAFE_ACCESS_SIG = SAFE_ACCESS_SIG2;
    187c:	04f70023          	sb	a5,64(a4)
E:\Project\tp78\mounriver_project\RF_CH582M\obj/../StdPeriphDriver/CH58x_clk.c:160
    SAFEOPERATE;
    1880:	0001                	nop
    1882:	0001                	nop
E:\Project\tp78\mounriver_project\RF_CH582M\obj/../StdPeriphDriver/CH58x_clk.c:161
    R8_OSC_CAL_CTRL &= ~RB_OSC_CNT_TOTAL;
    1884:	05374603          	lbu	a2,83(a4)
    1888:	0f867613          	andi	a2,a2,248
    188c:	04c709a3          	sb	a2,83(a4)
E:\Project\tp78\mounriver_project\RF_CH582M\obj/../StdPeriphDriver/CH58x_clk.c:162
    R8_OSC_CAL_CTRL |= 1;
    1890:	05374603          	lbu	a2,83(a4)
    1894:	00166613          	ori	a2,a2,1
    1898:	04c709a3          	sb	a2,83(a4)
E:\Project\tp78\mounriver_project\RF_CH582M\obj/../StdPeriphDriver/CH58x_clk.c:163
    R8_SAFE_ACCESS_SIG = SAFE_ACCESS_SIG1;
    189c:	04d70023          	sb	a3,64(a4)
E:\Project\tp78\mounriver_project\RF_CH582M\obj/../StdPeriphDriver/CH58x_clk.c:164
    R8_SAFE_ACCESS_SIG = SAFE_ACCESS_SIG2;
    18a0:	04f70023          	sb	a5,64(a4)
E:\Project\tp78\mounriver_project\RF_CH582M\obj/../StdPeriphDriver/CH58x_clk.c:165
    SAFEOPERATE;
    18a4:	0001                	nop
    18a6:	0001                	nop
E:\Project\tp78\mounriver_project\RF_CH582M\obj/../StdPeriphDriver/CH58x_clk.c:166
    R8_OSC_CAL_CTRL |= RB_OSC_CNT_EN;
    18a8:	05374783          	lbu	a5,83(a4)
E:\Project\tp78\mounriver_project\RF_CH582M\obj/../StdPeriphDriver/CH58x_clk.c:167
    R16_OSC_CAL_CNT |= RB_OSC_CAL_OV_CLR;
    18ac:	6691                	lui	a3,0x4
E:\Project\tp78\mounriver_project\RF_CH582M\obj/../StdPeriphDriver/CH58x_clk.c:171
    while( (R8_OSC_CAL_CTRL&RB_OSC_CNT_EN)!= RB_OSC_CNT_EN )
    {
        R8_SAFE_ACCESS_SIG = SAFE_ACCESS_SIG1;
        R8_SAFE_ACCESS_SIG = SAFE_ACCESS_SIG2;
    18ae:	fa800613          	li	a2,-88
E:\Project\tp78\mounriver_project\RF_CH582M\obj/../StdPeriphDriver/CH58x_clk.c:166
    R8_OSC_CAL_CTRL |= RB_OSC_CNT_EN;
    18b2:	0207e793          	ori	a5,a5,32
    18b6:	04f709a3          	sb	a5,83(a4)
E:\Project\tp78\mounriver_project\RF_CH582M\obj/../StdPeriphDriver/CH58x_clk.c:167
    R16_OSC_CAL_CNT |= RB_OSC_CAL_OV_CLR;
    18ba:	05075783          	lhu	a5,80(a4)
    18be:	8fd5                	or	a5,a5,a3
    18c0:	04f71823          	sh	a5,80(a4)
E:\Project\tp78\mounriver_project\RF_CH582M\obj/../StdPeriphDriver/CH58x_clk.c:170
        R8_SAFE_ACCESS_SIG = SAFE_ACCESS_SIG1;
    18c4:	05700693          	li	a3,87
E:\Project\tp78\mounriver_project\RF_CH582M\obj/../StdPeriphDriver/CH58x_clk.c:168
    while( (R8_OSC_CAL_CTRL&RB_OSC_CNT_EN)!= RB_OSC_CNT_EN )
    18c8:	400017b7          	lui	a5,0x40001
    18cc:	0537c703          	lbu	a4,83(a5) # 40001053 <_eusrstack+0x1fff9053>
    18d0:	02077713          	andi	a4,a4,32
    18d4:	c761                	beqz	a4,199c <Calibration_LSI+0x176>
E:\Project\tp78\mounriver_project\RF_CH582M\obj/../StdPeriphDriver/CH58x_clk.c:184
        while(R8_OSC_CAL_CTRL & RB_OSC_CNT_HALT);
        R16_OSC_CAL_CNT |= RB_OSC_CAL_OV_CLR;
        while(!(R8_OSC_CAL_CTRL & RB_OSC_CNT_HALT));
        i = R16_OSC_CAL_CNT; // 实时校准后采样值
        cnt_offset = (i & 0x3FFF) + R8_OSC_CAL_OV_CNT * 0x3FFF - 2000 * (freq_sys / 1000) / CAB_LSIFQ;
        if(((cnt_offset > -37 * (freq_sys / 1000) / CAB_LSIFQ) && (cnt_offset < 37 * (freq_sys / 1000) / CAB_LSIFQ)) || retry > 2)
    18d6:	c1800813          	li	a6,-1000
    18da:	3e800593          	li	a1,1000
    18de:	03054833          	div	a6,a0,a6
    18e2:	02500793          	li	a5,37
E:\Project\tp78\mounriver_project\RF_CH582M\obj/../StdPeriphDriver/CH58x_clk.c:183
        cnt_offset = (i & 0x3FFF) + R8_OSC_CAL_OV_CNT * 0x3FFF - 2000 * (freq_sys / 1000) / CAB_LSIFQ;
    18e6:	6891                	lui	a7,0x4
E:\Project\tp78\mounriver_project\RF_CH582M\obj/../StdPeriphDriver/CH58x_clk.c:184
        if(((cnt_offset > -37 * (freq_sys / 1000) / CAB_LSIFQ) && (cnt_offset < 37 * (freq_sys / 1000) / CAB_LSIFQ)) || retry > 2)
    18e8:	6721                	lui	a4,0x8
E:\Project\tp78\mounriver_project\RF_CH582M\obj/../StdPeriphDriver/CH58x_clk.c:183
        cnt_offset = (i & 0x3FFF) + R8_OSC_CAL_OV_CNT * 0x3FFF - 2000 * (freq_sys / 1000) / CAB_LSIFQ;
    18ea:	e8088e13          	addi	t3,a7,-384 # 3e80 <BLE_IPCoreInit+0xa>
E:\Project\tp78\mounriver_project\RF_CH582M\obj/../StdPeriphDriver/CH58x_clk.c:184
        if(((cnt_offset > -37 * (freq_sys / 1000) / CAB_LSIFQ) && (cnt_offset < 37 * (freq_sys / 1000) / CAB_LSIFQ)) || retry > 2)
    18ee:	d0070713          	addi	a4,a4,-768 # 7d00 <_data_lma+0x17a8>
    18f2:	4311                	li	t1,4
E:\Project\tp78\mounriver_project\RF_CH582M\obj/../StdPeriphDriver/CH58x_clk.c:177
        while(!(R8_OSC_CAL_CTRL & RB_OSC_CNT_HALT));
    18f4:	400016b7          	lui	a3,0x40001
E:\Project\tp78\mounriver_project\RF_CH582M\obj/../StdPeriphDriver/CH58x_clk.c:180
        R16_OSC_CAL_CNT |= RB_OSC_CAL_OV_CLR;
    18f8:	6291                	lui	t0,0x4
E:\Project\tp78\mounriver_project\RF_CH582M\obj/../StdPeriphDriver/CH58x_clk.c:183
        cnt_offset = (i & 0x3FFF) + R8_OSC_CAL_OV_CNT * 0x3FFF - 2000 * (freq_sys / 1000) / CAB_LSIFQ;
    18fa:	18fd                	addi	a7,a7,-1
E:\Project\tp78\mounriver_project\RF_CH582M\obj/../StdPeriphDriver/CH58x_clk.c:187
            break;
        retry++;
        cnt_offset = (cnt_offset > 0) ? (((cnt_offset * 2) / (37 * (freq_sys / 1000) / CAB_LSIFQ)) + 1) / 2 : (((cnt_offset * 2) / (37 * (freq_sys / 1000) / CAB_LSIFQ)) - 1) / 2;
    18fc:	4e89                	li	t4,2
E:\Project\tp78\mounriver_project\RF_CH582M\obj/../StdPeriphDriver/CH58x_clk.c:188
        R8_SAFE_ACCESS_SIG = SAFE_ACCESS_SIG1;
    18fe:	05700f93          	li	t6,87
E:\Project\tp78\mounriver_project\RF_CH582M\obj/../StdPeriphDriver/CH58x_clk.c:189
        R8_SAFE_ACCESS_SIG = SAFE_ACCESS_SIG2;
    1902:	fa800f13          	li	t5,-88
E:\Project\tp78\mounriver_project\RF_CH582M\obj/../StdPeriphDriver/CH58x_clk.c:184
        if(((cnt_offset > -37 * (freq_sys / 1000) / CAB_LSIFQ) && (cnt_offset < 37 * (freq_sys / 1000) / CAB_LSIFQ)) || retry > 2)
    1906:	02b545b3          	div	a1,a0,a1
    190a:	02f80833          	mul	a6,a6,a5
    190e:	02f587b3          	mul	a5,a1,a5
E:\Project\tp78\mounriver_project\RF_CH582M\obj/../StdPeriphDriver/CH58x_clk.c:183
        cnt_offset = (i & 0x3FFF) + R8_OSC_CAL_OV_CNT * 0x3FFF - 2000 * (freq_sys / 1000) / CAB_LSIFQ;
    1912:	03c54e33          	div	t3,a0,t3
E:\Project\tp78\mounriver_project\RF_CH582M\obj/../StdPeriphDriver/CH58x_clk.c:184
        if(((cnt_offset > -37 * (freq_sys / 1000) / CAB_LSIFQ) && (cnt_offset < 37 * (freq_sys / 1000) / CAB_LSIFQ)) || retry > 2)
    1916:	02e84833          	div	a6,a6,a4
    191a:	02e7c7b3          	div	a5,a5,a4
E:\Project\tp78\mounriver_project\RF_CH582M\obj/../StdPeriphDriver/CH58x_clk.c:177 (discriminator 1)
        while(!(R8_OSC_CAL_CTRL & RB_OSC_CNT_HALT));
    191e:	0536c703          	lbu	a4,83(a3) # 40001053 <_eusrstack+0x1fff9053>
    1922:	8b21                	andi	a4,a4,8
    1924:	df6d                	beqz	a4,191e <Calibration_LSI+0xf8>
E:\Project\tp78\mounriver_project\RF_CH582M\obj/../StdPeriphDriver/CH58x_clk.c:178
        i = R16_OSC_CAL_CNT; // 用于丢弃
    1926:	0506d703          	lhu	a4,80(a3)
E:\Project\tp78\mounriver_project\RF_CH582M\obj/../StdPeriphDriver/CH58x_clk.c:179 (discriminator 1)
        while(R8_OSC_CAL_CTRL & RB_OSC_CNT_HALT);
    192a:	0536c703          	lbu	a4,83(a3)
    192e:	8b21                	andi	a4,a4,8
    1930:	ff6d                	bnez	a4,192a <Calibration_LSI+0x104>
E:\Project\tp78\mounriver_project\RF_CH582M\obj/../StdPeriphDriver/CH58x_clk.c:180
        R16_OSC_CAL_CNT |= RB_OSC_CAL_OV_CLR;
    1932:	0506d703          	lhu	a4,80(a3)
    1936:	00576733          	or	a4,a4,t0
    193a:	04e69823          	sh	a4,80(a3)
E:\Project\tp78\mounriver_project\RF_CH582M\obj/../StdPeriphDriver/CH58x_clk.c:181 (discriminator 1)
        while(!(R8_OSC_CAL_CTRL & RB_OSC_CNT_HALT));
    193e:	0536c703          	lbu	a4,83(a3)
    1942:	8b21                	andi	a4,a4,8
    1944:	df6d                	beqz	a4,193e <Calibration_LSI+0x118>
E:\Project\tp78\mounriver_project\RF_CH582M\obj/../StdPeriphDriver/CH58x_clk.c:182
        i = R16_OSC_CAL_CNT; // 实时校准后采样值
    1946:	0506d603          	lhu	a2,80(a3)
E:\Project\tp78\mounriver_project\RF_CH582M\obj/../StdPeriphDriver/CH58x_clk.c:183
        cnt_offset = (i & 0x3FFF) + R8_OSC_CAL_OV_CNT * 0x3FFF - 2000 * (freq_sys / 1000) / CAB_LSIFQ;
    194a:	0526c703          	lbu	a4,82(a3)
    194e:	00c8f633          	and	a2,a7,a2
    1952:	02e88733          	mul	a4,a7,a4
    1956:	963a                	add	a2,a2,a4
    1958:	41c60633          	sub	a2,a2,t3
E:\Project\tp78\mounriver_project\RF_CH582M\obj/../StdPeriphDriver/CH58x_clk.c:184
        if(((cnt_offset > -37 * (freq_sys / 1000) / CAB_LSIFQ) && (cnt_offset < 37 * (freq_sys / 1000) / CAB_LSIFQ)) || retry > 2)
    195c:	00c85463          	bge	a6,a2,1964 <Calibration_LSI+0x13e>
E:\Project\tp78\mounriver_project\RF_CH582M\obj/../StdPeriphDriver/CH58x_clk.c:184 (discriminator 1)
    1960:	04f64d63          	blt	a2,a5,19ba <Calibration_LSI+0x194>
    1964:	137d                	addi	t1,t1,-1
    1966:	0ff37313          	andi	t1,t1,255
E:\Project\tp78\mounriver_project\RF_CH582M\obj/../StdPeriphDriver/CH58x_clk.c:184 (discriminator 3)
    196a:	04030863          	beqz	t1,19ba <Calibration_LSI+0x194>
E:\Project\tp78\mounriver_project\RF_CH582M\obj/../StdPeriphDriver/CH58x_clk.c:187
        cnt_offset = (cnt_offset > 0) ? (((cnt_offset * 2) / (37 * (freq_sys / 1000) / CAB_LSIFQ)) + 1) / 2 : (((cnt_offset * 2) / (37 * (freq_sys / 1000) / CAB_LSIFQ)) - 1) / 2;
    196e:	00161713          	slli	a4,a2,0x1
    1972:	02f74733          	div	a4,a4,a5
    1976:	04c05063          	blez	a2,19b6 <Calibration_LSI+0x190>
E:\Project\tp78\mounriver_project\RF_CH582M\obj/../StdPeriphDriver/CH58x_clk.c:187 (discriminator 1)
    197a:	0705                	addi	a4,a4,1
E:\Project\tp78\mounriver_project\RF_CH582M\obj/../StdPeriphDriver/CH58x_clk.c:188 (discriminator 2)
        R8_SAFE_ACCESS_SIG = SAFE_ACCESS_SIG1;
    197c:	05f68023          	sb	t6,64(a3)
E:\Project\tp78\mounriver_project\RF_CH582M\obj/../StdPeriphDriver/CH58x_clk.c:189 (discriminator 2)
        R8_SAFE_ACCESS_SIG = SAFE_ACCESS_SIG2;
    1980:	05e68023          	sb	t5,64(a3)
E:\Project\tp78\mounriver_project\RF_CH582M\obj/../StdPeriphDriver/CH58x_clk.c:187 (discriminator 2)
        cnt_offset = (cnt_offset > 0) ? (((cnt_offset * 2) / (37 * (freq_sys / 1000) / CAB_LSIFQ)) + 1) / 2 : (((cnt_offset * 2) / (37 * (freq_sys / 1000) / CAB_LSIFQ)) - 1) / 2;
    1984:	03d74733          	div	a4,a4,t4
E:\Project\tp78\mounriver_project\RF_CH582M\obj/../StdPeriphDriver/CH58x_clk.c:190 (discriminator 2)
        SAFEOPERATE;
    1988:	0001                	nop
    198a:	0001                	nop
E:\Project\tp78\mounriver_project\RF_CH582M\obj/../StdPeriphDriver/CH58x_clk.c:191 (discriminator 2)
        R16_INT32K_TUNE += cnt_offset;
    198c:	02c6d603          	lhu	a2,44(a3)
    1990:	9732                	add	a4,a4,a2
    1992:	0742                	slli	a4,a4,0x10
    1994:	8341                	srli	a4,a4,0x10
    1996:	02e69623          	sh	a4,44(a3)
E:\Project\tp78\mounriver_project\RF_CH582M\obj/../StdPeriphDriver/CH58x_clk.c:177 (discriminator 2)
        while(!(R8_OSC_CAL_CTRL & RB_OSC_CNT_HALT));
    199a:	b751                	j	191e <Calibration_LSI+0xf8>
E:\Project\tp78\mounriver_project\RF_CH582M\obj/../StdPeriphDriver/CH58x_clk.c:170
        R8_SAFE_ACCESS_SIG = SAFE_ACCESS_SIG1;
    199c:	04d78023          	sb	a3,64(a5)
E:\Project\tp78\mounriver_project\RF_CH582M\obj/../StdPeriphDriver/CH58x_clk.c:171
        R8_SAFE_ACCESS_SIG = SAFE_ACCESS_SIG2;
    19a0:	04c78023          	sb	a2,64(a5)
E:\Project\tp78\mounriver_project\RF_CH582M\obj/../StdPeriphDriver/CH58x_clk.c:172
        SAFEOPERATE;
    19a4:	0001                	nop
    19a6:	0001                	nop
E:\Project\tp78\mounriver_project\RF_CH582M\obj/../StdPeriphDriver/CH58x_clk.c:173
        R8_OSC_CAL_CTRL |= RB_OSC_CNT_EN;
    19a8:	0537c703          	lbu	a4,83(a5)
    19ac:	02076713          	ori	a4,a4,32
    19b0:	04e789a3          	sb	a4,83(a5)
    19b4:	bf21                	j	18cc <Calibration_LSI+0xa6>
E:\Project\tp78\mounriver_project\RF_CH582M\obj/../StdPeriphDriver/CH58x_clk.c:187 (discriminator 2)
        cnt_offset = (cnt_offset > 0) ? (((cnt_offset * 2) / (37 * (freq_sys / 1000) / CAB_LSIFQ)) + 1) / 2 : (((cnt_offset * 2) / (37 * (freq_sys / 1000) / CAB_LSIFQ)) - 1) / 2;
    19b6:	177d                	addi	a4,a4,-1
    19b8:	b7d1                	j	197c <Calibration_LSI+0x156>
E:\Project\tp78\mounriver_project\RF_CH582M\obj/../StdPeriphDriver/CH58x_clk.c:196 (discriminator 1)
    }

    // 细调
    // 配置细调参数后，丢弃2次捕获值（软件行为）上判断已有一次，这里只留一次
    while(!(R8_OSC_CAL_CTRL & RB_OSC_CNT_HALT));
    19ba:	400017b7          	lui	a5,0x40001
    19be:	0537c683          	lbu	a3,83(a5) # 40001053 <_eusrstack+0x1fff9053>
    19c2:	05378713          	addi	a4,a5,83
    19c6:	8aa1                	andi	a3,a3,8
    19c8:	dafd                	beqz	a3,19be <Calibration_LSI+0x198>
E:\Project\tp78\mounriver_project\RF_CH582M\obj/../StdPeriphDriver/CH58x_clk.c:197
    i = R16_OSC_CAL_CNT; // 用于丢弃
    19ca:	0507d683          	lhu	a3,80(a5)
E:\Project\tp78\mounriver_project\RF_CH582M\obj/../StdPeriphDriver/CH58x_clk.c:198
    R16_OSC_CAL_CNT |= RB_OSC_CAL_OV_CLR;
    19ce:	0507d683          	lhu	a3,80(a5)
    19d2:	6611                	lui	a2,0x4
    19d4:	8ed1                	or	a3,a3,a2
    19d6:	04d79823          	sh	a3,80(a5)
E:\Project\tp78\mounriver_project\RF_CH582M\obj/../StdPeriphDriver/CH58x_clk.c:199
    R8_SAFE_ACCESS_SIG = SAFE_ACCESS_SIG1;
    19da:	05700693          	li	a3,87
    19de:	04d78023          	sb	a3,64(a5)
E:\Project\tp78\mounriver_project\RF_CH582M\obj/../StdPeriphDriver/CH58x_clk.c:200
    R8_SAFE_ACCESS_SIG = SAFE_ACCESS_SIG2;
    19e2:	fa800693          	li	a3,-88
    19e6:	04d78023          	sb	a3,64(a5)
E:\Project\tp78\mounriver_project\RF_CH582M\obj/../StdPeriphDriver/CH58x_clk.c:201
    SAFEOPERATE;
    19ea:	0001                	nop
    19ec:	0001                	nop
E:\Project\tp78\mounriver_project\RF_CH582M\obj/../StdPeriphDriver/CH58x_clk.c:202
    R8_OSC_CAL_CTRL &= ~RB_OSC_CNT_TOTAL;
    19ee:	00074783          	lbu	a5,0(a4)
    19f2:	0f87f793          	andi	a5,a5,248
    19f6:	00f70023          	sb	a5,0(a4)
E:\Project\tp78\mounriver_project\RF_CH582M\obj/../StdPeriphDriver/CH58x_clk.c:203
    R8_OSC_CAL_CTRL |= cali_Lv;
    19fa:	00074783          	lbu	a5,0(a4)
    19fe:	8fc1                	or	a5,a5,s0
    1a00:	0ff7f793          	andi	a5,a5,255
    1a04:	00f70023          	sb	a5,0(a4)
E:\Project\tp78\mounriver_project\RF_CH582M\obj/../StdPeriphDriver/CH58x_clk.c:204
    while(R8_OSC_CAL_CTRL & RB_OSC_CNT_HALT);
    1a08:	40001737          	lui	a4,0x40001
E:\Project\tp78\mounriver_project\RF_CH582M\obj/../StdPeriphDriver/CH58x_clk.c:204 (discriminator 1)
    1a0c:	05374783          	lbu	a5,83(a4) # 40001053 <_eusrstack+0x1fff9053>
    1a10:	8ba1                	andi	a5,a5,8
    1a12:	ffed                	bnez	a5,1a0c <Calibration_LSI+0x1e6>
E:\Project\tp78\mounriver_project\RF_CH582M\obj/../StdPeriphDriver/CH58x_clk.c:205
    while(!(R8_OSC_CAL_CTRL & RB_OSC_CNT_HALT));
    1a14:	400017b7          	lui	a5,0x40001
E:\Project\tp78\mounriver_project\RF_CH582M\obj/../StdPeriphDriver/CH58x_clk.c:205 (discriminator 1)
    1a18:	0537c703          	lbu	a4,83(a5) # 40001053 <_eusrstack+0x1fff9053>
    1a1c:	8b21                	andi	a4,a4,8
    1a1e:	df6d                	beqz	a4,1a18 <Calibration_LSI+0x1f2>
E:\Project\tp78\mounriver_project\RF_CH582M\obj/../StdPeriphDriver/CH58x_clk.c:207
    i = R16_OSC_CAL_CNT; // 实时校准后采样值
    cnt_offset = (i & 0x3FFF) + R8_OSC_CAL_OV_CNT * 0x3FFF - 4000 * (1 << cali_Lv) * (freq_sys / 1000000) / CAB_LSIFQ * 1000;
    1a20:	000f4637          	lui	a2,0xf4
    1a24:	24060613          	addi	a2,a2,576 # f4240 <_data_lma+0xedce8>
    1a28:	02c54533          	div	a0,a0,a2
E:\Project\tp78\mounriver_project\RF_CH582M\obj/../StdPeriphDriver/CH58x_clk.c:206
    i = R16_OSC_CAL_CNT; // 实时校准后采样值
    1a2c:	0507d683          	lhu	a3,80(a5)
E:\Project\tp78\mounriver_project\RF_CH582M\obj/../StdPeriphDriver/CH58x_clk.c:207
    cnt_offset = (i & 0x3FFF) + R8_OSC_CAL_OV_CNT * 0x3FFF - 4000 * (1 << cali_Lv) * (freq_sys / 1000000) / CAB_LSIFQ * 1000;
    1a30:	0527c783          	lbu	a5,82(a5)
    1a34:	6711                	lui	a4,0x4
    1a36:	177d                	addi	a4,a4,-1
    1a38:	8ef9                	and	a3,a3,a4
    1a3a:	6621                	lui	a2,0x8
    1a3c:	d0060613          	addi	a2,a2,-768 # 7d00 <_data_lma+0x17a8>
    1a40:	02f70733          	mul	a4,a4,a5
    1a44:	6785                	lui	a5,0x1
    1a46:	96ba                	add	a3,a3,a4
    1a48:	fa078713          	addi	a4,a5,-96 # fa0 <_einit+0xf9c>
    1a4c:	00871733          	sll	a4,a4,s0
    1a50:	02a70733          	mul	a4,a4,a0
    1a54:	3e800513          	li	a0,1000
    1a58:	c8078793          	addi	a5,a5,-896
    1a5c:	4087d7b3          	sra	a5,a5,s0
    1a60:	02c74733          	div	a4,a4,a2
    1a64:	02a70733          	mul	a4,a4,a0
    1a68:	40e68733          	sub	a4,a3,a4
E:\Project\tp78\mounriver_project\RF_CH582M\obj/../StdPeriphDriver/CH58x_clk.c:208
    cnt_offset = (cnt_offset > 0) ? ((((cnt_offset * (3200 / (1 << cali_Lv))) / (1366 * (freq_sys / 1000) / CAB_LSIFQ)) + 1) / 2) << 5 : ((((cnt_offset * (3200 / (1 << cali_Lv))) / (1366 * (freq_sys / 1000) / CAB_LSIFQ)) - 1) / 2) << 5;
    1a6c:	55600693          	li	a3,1366
    1a70:	02d585b3          	mul	a1,a1,a3
    1a74:	02c5c5b3          	div	a1,a1,a2
    1a78:	02e787b3          	mul	a5,a5,a4
    1a7c:	02b7c7b3          	div	a5,a5,a1
    1a80:	04e05463          	blez	a4,1ac8 <Calibration_LSI+0x2a2>
E:\Project\tp78\mounriver_project\RF_CH582M\obj/../StdPeriphDriver/CH58x_clk.c:208 (discriminator 1)
    1a84:	0785                	addi	a5,a5,1
E:\Project\tp78\mounriver_project\RF_CH582M\obj/../StdPeriphDriver/CH58x_clk.c:208 (discriminator 2)
    1a86:	4709                	li	a4,2
E:\Project\tp78\mounriver_project\RF_CH582M\obj/../StdPeriphDriver/CH58x_clk.c:209 (discriminator 2)
    R8_SAFE_ACCESS_SIG = SAFE_ACCESS_SIG1;
    1a88:	05700693          	li	a3,87
E:\Project\tp78\mounriver_project\RF_CH582M\obj/../StdPeriphDriver/CH58x_clk.c:208 (discriminator 2)
    cnt_offset = (cnt_offset > 0) ? ((((cnt_offset * (3200 / (1 << cali_Lv))) / (1366 * (freq_sys / 1000) / CAB_LSIFQ)) + 1) / 2) << 5 : ((((cnt_offset * (3200 / (1 << cali_Lv))) / (1366 * (freq_sys / 1000) / CAB_LSIFQ)) - 1) / 2) << 5;
    1a8c:	02e7c7b3          	div	a5,a5,a4
E:\Project\tp78\mounriver_project\RF_CH582M\obj/../StdPeriphDriver/CH58x_clk.c:209 (discriminator 2)
    R8_SAFE_ACCESS_SIG = SAFE_ACCESS_SIG1;
    1a90:	40001737          	lui	a4,0x40001
    1a94:	04d70023          	sb	a3,64(a4) # 40001040 <_eusrstack+0x1fff9040>
E:\Project\tp78\mounriver_project\RF_CH582M\obj/../StdPeriphDriver/CH58x_clk.c:210 (discriminator 2)
    R8_SAFE_ACCESS_SIG = SAFE_ACCESS_SIG2;
    1a98:	fa800693          	li	a3,-88
    1a9c:	04d70023          	sb	a3,64(a4)
E:\Project\tp78\mounriver_project\RF_CH582M\obj/../StdPeriphDriver/CH58x_clk.c:208 (discriminator 2)
    cnt_offset = (cnt_offset > 0) ? ((((cnt_offset * (3200 / (1 << cali_Lv))) / (1366 * (freq_sys / 1000) / CAB_LSIFQ)) + 1) / 2) << 5 : ((((cnt_offset * (3200 / (1 << cali_Lv))) / (1366 * (freq_sys / 1000) / CAB_LSIFQ)) - 1) / 2) << 5;
    1aa0:	0796                	slli	a5,a5,0x5
E:\Project\tp78\mounriver_project\RF_CH582M\obj/../StdPeriphDriver/CH58x_clk.c:211 (discriminator 2)
    SAFEOPERATE;
    1aa2:	0001                	nop
    1aa4:	0001                	nop
E:\Project\tp78\mounriver_project\RF_CH582M\obj/../StdPeriphDriver/CH58x_clk.c:212 (discriminator 2)
    R16_INT32K_TUNE += cnt_offset;
    1aa6:	02c75683          	lhu	a3,44(a4)
    1aaa:	97b6                	add	a5,a5,a3
    1aac:	07c2                	slli	a5,a5,0x10
    1aae:	83c1                	srli	a5,a5,0x10
    1ab0:	02f71623          	sh	a5,44(a4)
E:\Project\tp78\mounriver_project\RF_CH582M\obj/../StdPeriphDriver/CH58x_clk.c:213 (discriminator 2)
    R8_OSC_CAL_CTRL &= ~RB_OSC_CNT_EN;
    1ab4:	05374783          	lbu	a5,83(a4)
    1ab8:	0df7f793          	andi	a5,a5,223
    1abc:	04f709a3          	sb	a5,83(a4)
E:\Project\tp78\mounriver_project\RF_CH582M\obj/../StdPeriphDriver/CH58x_clk.c:214 (discriminator 2)
}
    1ac0:	40b2                	lw	ra,12(sp)
    1ac2:	4422                	lw	s0,8(sp)
    1ac4:	0141                	addi	sp,sp,16
    1ac6:	8082                	ret
E:\Project\tp78\mounriver_project\RF_CH582M\obj/../StdPeriphDriver/CH58x_clk.c:208 (discriminator 2)
    cnt_offset = (cnt_offset > 0) ? ((((cnt_offset * (3200 / (1 << cali_Lv))) / (1366 * (freq_sys / 1000) / CAB_LSIFQ)) + 1) / 2) << 5 : ((((cnt_offset * (3200 / (1 << cali_Lv))) / (1366 * (freq_sys / 1000) / CAB_LSIFQ)) - 1) / 2) << 5;
    1ac8:	17fd                	addi	a5,a5,-1
    1aca:	bf75                	j	1a86 <Calibration_LSI+0x260>

00001acc <RTC_InitTime>:
RTC_InitTime():
E:\Project\tp78\mounriver_project\RF_CH582M\obj/../StdPeriphDriver/CH58x_clk.c:231
 * @param   s       - 配置秒，MAX_S = 59
 *
 * @return  none
 */
void RTC_InitTime(uint16_t y, uint16_t mon, uint16_t d, uint16_t h, uint16_t m, uint16_t s)
{
    1acc:	1141                	addi	sp,sp,-16
    1ace:	832a                	mv	t1,a0
E:\Project\tp78\mounriver_project\RF_CH582M\obj/../StdPeriphDriver/CH58x_clk.c:238
    uint16_t         year, month, day, sec2, t32k;
    volatile uint8_t clk_pin;

    year = y;
    month = mon;
    day = 0;
    1ad0:	4e01                	li	t3,0
E:\Project\tp78\mounriver_project\RF_CH582M\obj/../StdPeriphDriver/CH58x_clk.c:239
    while(year > BEGYEAR)
    1ad2:	7e400e93          	li	t4,2020
E:\Project\tp78\mounriver_project\RF_CH582M\obj/../StdPeriphDriver/CH58x_clk.c:241
    {
        day += YearLength(year - 1);
    1ad6:	19000f13          	li	t5,400
    1ada:	06400f93          	li	t6,100
E:\Project\tp78\mounriver_project\RF_CH582M\obj/../StdPeriphDriver/CH58x_clk.c:239
    while(year > BEGYEAR)
    1ade:	0e6ee463          	bltu	t4,t1,1bc6 <RTC_InitTime+0xfa>
E:\Project\tp78\mounriver_project\RF_CH582M\obj/../StdPeriphDriver/CH58x_clk.c:246
        year--;
    }
    while(month > 1)
    {
        day += monthLength(IsLeapYear(y), month - 2);
    1ae2:	19000893          	li	a7,400
    1ae6:	06400313          	li	t1,100
    1aea:	031578b3          	remu	a7,a0,a7
E:\Project\tp78\mounriver_project\RF_CH582M\obj/../StdPeriphDriver/CH58x_clk.c:244
    while(month > 1)
    1aee:	4e85                	li	t4,1
E:\Project\tp78\mounriver_project\RF_CH582M\obj/../StdPeriphDriver/CH58x_clk.c:246
        day += monthLength(IsLeapYear(y), month - 2);
    1af0:	4f0d                	li	t5,3
    1af2:	4fa1                	li	t6,8
    1af4:	02657333          	remu	t1,a0,t1
    1af8:	890d                	andi	a0,a0,3
    1afa:	00153513          	seqz	a0,a0
E:\Project\tp78\mounriver_project\RF_CH582M\obj/../StdPeriphDriver/CH58x_clk.c:244
    while(month > 1)
    1afe:	0ebeee63          	bltu	t4,a1,1bfa <RTC_InitTime+0x12e>
E:\Project\tp78\mounriver_project\RF_CH582M\obj/../StdPeriphDriver/CH58x_clk.c:250
        month--;
    }

    day += d - 1;
    1b02:	fff60813          	addi	a6,a2,-1
E:\Project\tp78\mounriver_project\RF_CH582M\obj/../StdPeriphDriver/CH58x_clk.c:251
    sec2 = (h % 24) * 1800 + m * 30 + s / 2;
    1b06:	4679                	li	a2,30
E:\Project\tp78\mounriver_project\RF_CH582M\obj/../StdPeriphDriver/CH58x_clk.c:250
    day += d - 1;
    1b08:	9872                	add	a6,a6,t3
    1b0a:	0842                	slli	a6,a6,0x10
    1b0c:	01085813          	srli	a6,a6,0x10
E:\Project\tp78\mounriver_project\RF_CH582M\obj/../StdPeriphDriver/CH58x_clk.c:251
    sec2 = (h % 24) * 1800 + m * 30 + s / 2;
    1b10:	02c70733          	mul	a4,a4,a2
    1b14:	0017d613          	srli	a2,a5,0x1
E:\Project\tp78\mounriver_project\RF_CH582M\obj/../StdPeriphDriver/CH58x_clk.c:252
    t32k = (s & 1) ? (0x8000) : (0);
    1b18:	07be                	slli	a5,a5,0xf
E:\Project\tp78\mounriver_project\RF_CH582M\obj/../StdPeriphDriver/CH58x_clk.c:251
    sec2 = (h % 24) * 1800 + m * 30 + s / 2;
    1b1a:	9732                	add	a4,a4,a2
    1b1c:	4661                	li	a2,24
    1b1e:	02c6f6b3          	remu	a3,a3,a2
    1b22:	70800613          	li	a2,1800
    1b26:	02c686b3          	mul	a3,a3,a2
    1b2a:	9736                	add	a4,a4,a3
E:\Project\tp78\mounriver_project\RF_CH582M\obj/../StdPeriphDriver/CH58x_clk.c:254
    t = sec2;
    t = t << 16 | t32k;
    1b2c:	66a1                	lui	a3,0x8
    1b2e:	8ff5                	and	a5,a5,a3
    1b30:	0742                	slli	a4,a4,0x10
    1b32:	8f5d                	or	a4,a4,a5
E:\Project\tp78\mounriver_project\RF_CH582M\obj/../StdPeriphDriver/CH58x_clk.c:258

    do
    {
        clk_pin = (R8_CK32K_CONFIG & RB_32K_CLK_PIN);
    1b34:	400016b7          	lui	a3,0x40001
E:\Project\tp78\mounriver_project\RF_CH582M\obj/../StdPeriphDriver/CH58x_clk.c:258 (discriminator 1)
    1b38:	02f6c783          	lbu	a5,47(a3) # 4000102f <_eusrstack+0x1fff902f>
    1b3c:	0807f793          	andi	a5,a5,128
    1b40:	00f107a3          	sb	a5,15(sp)
E:\Project\tp78\mounriver_project\RF_CH582M\obj/../StdPeriphDriver/CH58x_clk.c:259 (discriminator 1)
    } while(clk_pin != (R8_CK32K_CONFIG & RB_32K_CLK_PIN));
    1b44:	00f14603          	lbu	a2,15(sp)
    1b48:	02f6c783          	lbu	a5,47(a3)
    1b4c:	0807f793          	andi	a5,a5,128
    1b50:	fec794e3          	bne	a5,a2,1b38 <RTC_InitTime+0x6c>
E:\Project\tp78\mounriver_project\RF_CH582M\obj/../StdPeriphDriver/CH58x_clk.c:260
    if(!clk_pin)
    1b54:	00f14783          	lbu	a5,15(sp)
E:\Project\tp78\mounriver_project\RF_CH582M\obj/../StdPeriphDriver/CH58x_clk.c:266
    {
        while(!clk_pin)
        {
            do
            {
                clk_pin = (R8_CK32K_CONFIG & RB_32K_CLK_PIN);
    1b58:	400016b7          	lui	a3,0x40001
E:\Project\tp78\mounriver_project\RF_CH582M\obj/../StdPeriphDriver/CH58x_clk.c:260
    if(!clk_pin)
    1b5c:	0ff7f793          	andi	a5,a5,255
    1b60:	c7fd                	beqz	a5,1c4e <RTC_InitTime+0x182>
E:\Project\tp78\mounriver_project\RF_CH582M\obj/../StdPeriphDriver/CH58x_clk.c:271
            } while(clk_pin != (R8_CK32K_CONFIG & RB_32K_CLK_PIN));
        }
    }

    R8_SAFE_ACCESS_SIG = SAFE_ACCESS_SIG1;
    1b62:	400017b7          	lui	a5,0x40001
    1b66:	05700693          	li	a3,87
    1b6a:	04d78023          	sb	a3,64(a5) # 40001040 <_eusrstack+0x1fff9040>
E:\Project\tp78\mounriver_project\RF_CH582M\obj/../StdPeriphDriver/CH58x_clk.c:272
    R8_SAFE_ACCESS_SIG = SAFE_ACCESS_SIG2;
    1b6e:	fa800693          	li	a3,-88
    1b72:	04d78023          	sb	a3,64(a5)
E:\Project\tp78\mounriver_project\RF_CH582M\obj/../StdPeriphDriver/CH58x_clk.c:273
    SAFEOPERATE;
    1b76:	0001                	nop
    1b78:	0001                	nop
E:\Project\tp78\mounriver_project\RF_CH582M\obj/../StdPeriphDriver/CH58x_clk.c:274
    R32_RTC_TRIG = day;
    1b7a:	0307aa23          	sw	a6,52(a5)
E:\Project\tp78\mounriver_project\RF_CH582M\obj/../StdPeriphDriver/CH58x_clk.c:275
    R8_RTC_MODE_CTRL |= RB_RTC_LOAD_HI;
    1b7e:	0317c683          	lbu	a3,49(a5)
E:\Project\tp78\mounriver_project\RF_CH582M\obj/../StdPeriphDriver/CH58x_clk.c:276
    while((R32_RTC_TRIG & 0x3FFF) != (R32_RTC_CNT_DAY & 0x3FFF));
    1b82:	6611                	lui	a2,0x4
    1b84:	167d                	addi	a2,a2,-1
E:\Project\tp78\mounriver_project\RF_CH582M\obj/../StdPeriphDriver/CH58x_clk.c:275
    R8_RTC_MODE_CTRL |= RB_RTC_LOAD_HI;
    1b86:	0806e693          	ori	a3,a3,128
    1b8a:	02d788a3          	sb	a3,49(a5)
E:\Project\tp78\mounriver_project\RF_CH582M\obj/../StdPeriphDriver/CH58x_clk.c:276 (discriminator 1)
    while((R32_RTC_TRIG & 0x3FFF) != (R32_RTC_CNT_DAY & 0x3FFF));
    1b8e:	5bd4                	lw	a3,52(a5)
    1b90:	5fc8                	lw	a0,60(a5)
    1b92:	03478593          	addi	a1,a5,52
    1b96:	8ea9                	xor	a3,a3,a0
    1b98:	8ef1                	and	a3,a3,a2
    1b9a:	faf5                	bnez	a3,1b8e <RTC_InitTime+0xc2>
E:\Project\tp78\mounriver_project\RF_CH582M\obj/../StdPeriphDriver/CH58x_clk.c:277
    R8_SAFE_ACCESS_SIG = SAFE_ACCESS_SIG1;
    1b9c:	05700693          	li	a3,87
    1ba0:	04d78023          	sb	a3,64(a5)
E:\Project\tp78\mounriver_project\RF_CH582M\obj/../StdPeriphDriver/CH58x_clk.c:278
    R8_SAFE_ACCESS_SIG = SAFE_ACCESS_SIG2;
    1ba4:	fa800693          	li	a3,-88
    1ba8:	04d78023          	sb	a3,64(a5)
E:\Project\tp78\mounriver_project\RF_CH582M\obj/../StdPeriphDriver/CH58x_clk.c:279
    SAFEOPERATE;
    1bac:	0001                	nop
    1bae:	0001                	nop
E:\Project\tp78\mounriver_project\RF_CH582M\obj/../StdPeriphDriver/CH58x_clk.c:280
    R32_RTC_TRIG = t;
    1bb0:	c198                	sw	a4,0(a1)
E:\Project\tp78\mounriver_project\RF_CH582M\obj/../StdPeriphDriver/CH58x_clk.c:281
    R8_RTC_MODE_CTRL |= RB_RTC_LOAD_LO;
    1bb2:	0317c703          	lbu	a4,49(a5)
    1bb6:	04076713          	ori	a4,a4,64
    1bba:	02e788a3          	sb	a4,49(a5)
E:\Project\tp78\mounriver_project\RF_CH582M\obj/../StdPeriphDriver/CH58x_clk.c:282
    R8_SAFE_ACCESS_SIG = 0;
    1bbe:	04078023          	sb	zero,64(a5)
E:\Project\tp78\mounriver_project\RF_CH582M\obj/../StdPeriphDriver/CH58x_clk.c:283
}
    1bc2:	0141                	addi	sp,sp,16
    1bc4:	8082                	ret
E:\Project\tp78\mounriver_project\RF_CH582M\obj/../StdPeriphDriver/CH58x_clk.c:241
        day += YearLength(year - 1);
    1bc6:	137d                	addi	t1,t1,-1
    1bc8:	03e36833          	rem	a6,t1,t5
    1bcc:	16e00893          	li	a7,366
    1bd0:	00080e63          	beqz	a6,1bec <RTC_InitTime+0x120>
E:\Project\tp78\mounriver_project\RF_CH582M\obj/../StdPeriphDriver/CH58x_clk.c:241 (discriminator 2)
    1bd4:	03f36833          	rem	a6,t1,t6
    1bd8:	16d00893          	li	a7,365
    1bdc:	00080863          	beqz	a6,1bec <RTC_InitTime+0x120>
E:\Project\tp78\mounriver_project\RF_CH582M\obj/../StdPeriphDriver/CH58x_clk.c:241 (discriminator 3)
    1be0:	00337893          	andi	a7,t1,3
    1be4:	0018b893          	seqz	a7,a7
    1be8:	16d88893          	addi	a7,a7,365
E:\Project\tp78\mounriver_project\RF_CH582M\obj/../StdPeriphDriver/CH58x_clk.c:241 (discriminator 8)
    1bec:	011e0833          	add	a6,t3,a7
    1bf0:	01081e13          	slli	t3,a6,0x10
    1bf4:	010e5e13          	srli	t3,t3,0x10
E:\Project\tp78\mounriver_project\RF_CH582M\obj/../StdPeriphDriver/CH58x_clk.c:242 (discriminator 8)
        year--;
    1bf8:	b5dd                	j	1ade <RTC_InitTime+0x12>
E:\Project\tp78\mounriver_project\RF_CH582M\obj/../StdPeriphDriver/CH58x_clk.c:246
        day += monthLength(IsLeapYear(y), month - 2);
    1bfa:	03e59363          	bne	a1,t5,1c20 <RTC_InitTime+0x154>
E:\Project\tp78\mounriver_project\RF_CH582M\obj/../StdPeriphDriver/CH58x_clk.c:246 (discriminator 1)
    1bfe:	4805                	li	a6,1
    1c00:	00088663          	beqz	a7,1c0c <RTC_InitTime+0x140>
E:\Project\tp78\mounriver_project\RF_CH582M\obj/../StdPeriphDriver/CH58x_clk.c:246 (discriminator 4)
    1c04:	4801                	li	a6,0
    1c06:	00030363          	beqz	t1,1c0c <RTC_InitTime+0x140>
E:\Project\tp78\mounriver_project\RF_CH582M\obj/../StdPeriphDriver/CH58x_clk.c:246 (discriminator 5)
    1c0a:	882a                	mv	a6,a0
E:\Project\tp78\mounriver_project\RF_CH582M\obj/../StdPeriphDriver/CH58x_clk.c:246 (discriminator 10)
    1c0c:	0871                	addi	a6,a6,28
E:\Project\tp78\mounriver_project\RF_CH582M\obj/../StdPeriphDriver/CH58x_clk.c:246 (discriminator 24)
    1c0e:	9872                	add	a6,a6,t3
E:\Project\tp78\mounriver_project\RF_CH582M\obj/../StdPeriphDriver/CH58x_clk.c:247 (discriminator 24)
        month--;
    1c10:	15fd                	addi	a1,a1,-1
E:\Project\tp78\mounriver_project\RF_CH582M\obj/../StdPeriphDriver/CH58x_clk.c:246 (discriminator 24)
        day += monthLength(IsLeapYear(y), month - 2);
    1c12:	01081e13          	slli	t3,a6,0x10
E:\Project\tp78\mounriver_project\RF_CH582M\obj/../StdPeriphDriver/CH58x_clk.c:247 (discriminator 24)
        month--;
    1c16:	05c2                	slli	a1,a1,0x10
E:\Project\tp78\mounriver_project\RF_CH582M\obj/../StdPeriphDriver/CH58x_clk.c:246 (discriminator 24)
        day += monthLength(IsLeapYear(y), month - 2);
    1c18:	010e5e13          	srli	t3,t3,0x10
E:\Project\tp78\mounriver_project\RF_CH582M\obj/../StdPeriphDriver/CH58x_clk.c:247 (discriminator 24)
        month--;
    1c1c:	81c1                	srli	a1,a1,0x10
    1c1e:	b5c5                	j	1afe <RTC_InitTime+0x32>
    1c20:	0015f813          	andi	a6,a1,1
E:\Project\tp78\mounriver_project\RF_CH582M\obj/../StdPeriphDriver/CH58x_clk.c:246 (discriminator 2)
        day += monthLength(IsLeapYear(y), month - 2);
    1c24:	00bff463          	bgeu	t6,a1,1c2c <RTC_InitTime+0x160>
E:\Project\tp78\mounriver_project\RF_CH582M\obj/../StdPeriphDriver/CH58x_clk.c:246 (discriminator 13)
    1c28:	0879                	addi	a6,a6,30
    1c2a:	b7d5                	j	1c0e <RTC_InitTime+0x142>
    1c2c:	00183813          	seqz	a6,a6
    1c30:	bfe5                	j	1c28 <RTC_InitTime+0x15c>
E:\Project\tp78\mounriver_project\RF_CH582M\obj/../StdPeriphDriver/CH58x_clk.c:266 (discriminator 1)
                clk_pin = (R8_CK32K_CONFIG & RB_32K_CLK_PIN);
    1c32:	02f6c783          	lbu	a5,47(a3) # 4000102f <_eusrstack+0x1fff902f>
    1c36:	0807f793          	andi	a5,a5,128
    1c3a:	00f107a3          	sb	a5,15(sp)
E:\Project\tp78\mounriver_project\RF_CH582M\obj/../StdPeriphDriver/CH58x_clk.c:267 (discriminator 1)
            } while(clk_pin != (R8_CK32K_CONFIG & RB_32K_CLK_PIN));
    1c3e:	00f14603          	lbu	a2,15(sp)
    1c42:	02f6c783          	lbu	a5,47(a3)
    1c46:	0807f793          	andi	a5,a5,128
    1c4a:	fec794e3          	bne	a5,a2,1c32 <RTC_InitTime+0x166>
E:\Project\tp78\mounriver_project\RF_CH582M\obj/../StdPeriphDriver/CH58x_clk.c:262
        while(!clk_pin)
    1c4e:	00f14783          	lbu	a5,15(sp)
    1c52:	0ff7f793          	andi	a5,a5,255
    1c56:	dff1                	beqz	a5,1c32 <RTC_InitTime+0x166>
    1c58:	b729                	j	1b62 <RTC_InitTime+0x96>

00001c5a <GPIOB_ModeCfg>:
GPIOB_ModeCfg():
E:\Project\tp78\mounriver_project\RF_CH582M\obj/../StdPeriphDriver/CH58x_gpio.c:72
 *
 * @return  none
 */
void GPIOB_ModeCfg(uint32_t pin, GPIOModeTypeDef mode)
{
    switch(mode)
    1c5a:	4791                	li	a5,4
    1c5c:	02b7ee63          	bltu	a5,a1,1c98 <GPIOB_ModeCfg+0x3e>
    1c60:	00004717          	auipc	a4,0x4
    1c64:	73470713          	addi	a4,a4,1844 # 6394 <memcpy+0xb6>
    1c68:	058a                	slli	a1,a1,0x2
    1c6a:	95ba                	add	a1,a1,a4
    1c6c:	419c                	lw	a5,0(a1)
    1c6e:	97ba                	add	a5,a5,a4
    1c70:	8782                	jr	a5
E:\Project\tp78\mounriver_project\RF_CH582M\obj/../StdPeriphDriver/CH58x_gpio.c:75
    {
        case GPIO_ModeIN_Floating:
            R32_PB_PD_DRV &= ~pin;
    1c72:	400017b7          	lui	a5,0x40001
    1c76:	0d47a703          	lw	a4,212(a5) # 400010d4 <_eusrstack+0x1fff90d4>
    1c7a:	fff54513          	not	a0,a0
    1c7e:	8f69                	and	a4,a4,a0
    1c80:	0ce7aa23          	sw	a4,212(a5)
E:\Project\tp78\mounriver_project\RF_CH582M\obj/../StdPeriphDriver/CH58x_gpio.c:76
            R32_PB_PU &= ~pin;
    1c84:	0d07a703          	lw	a4,208(a5)
E:\Project\tp78\mounriver_project\RF_CH582M\obj/../StdPeriphDriver/CH58x_gpio.c:88
            R32_PB_DIR &= ~pin;
            break;

        case GPIO_ModeIN_PD:
            R32_PB_PD_DRV |= pin;
            R32_PB_PU &= ~pin;
    1c88:	8f69                	and	a4,a4,a0
    1c8a:	0ce7a823          	sw	a4,208(a5)
E:\Project\tp78\mounriver_project\RF_CH582M\obj/../StdPeriphDriver/CH58x_gpio.c:89
            R32_PB_DIR &= ~pin;
    1c8e:	0c07a703          	lw	a4,192(a5)
    1c92:	8d79                	and	a0,a0,a4
E:\Project\tp78\mounriver_project\RF_CH582M\obj/../StdPeriphDriver/CH58x_gpio.c:99
            R32_PB_DIR |= pin;
            break;

        case GPIO_ModeOut_PP_20mA:
            R32_PB_PD_DRV |= pin;
            R32_PB_DIR |= pin;
    1c94:	0ca7a023          	sw	a0,192(a5)
E:\Project\tp78\mounriver_project\RF_CH582M\obj/../StdPeriphDriver/CH58x_gpio.c:105
            break;

        default:
            break;
    }
}
    1c98:	8082                	ret
E:\Project\tp78\mounriver_project\RF_CH582M\obj/../StdPeriphDriver/CH58x_gpio.c:81
            R32_PB_PD_DRV &= ~pin;
    1c9a:	400017b7          	lui	a5,0x40001
    1c9e:	0d47a683          	lw	a3,212(a5) # 400010d4 <_eusrstack+0x1fff90d4>
    1ca2:	fff54713          	not	a4,a0
    1ca6:	8ef9                	and	a3,a3,a4
    1ca8:	0cd7aa23          	sw	a3,212(a5)
E:\Project\tp78\mounriver_project\RF_CH582M\obj/../StdPeriphDriver/CH58x_gpio.c:82
            R32_PB_PU |= pin;
    1cac:	0d07a683          	lw	a3,208(a5)
    1cb0:	8d55                	or	a0,a0,a3
    1cb2:	0ca7a823          	sw	a0,208(a5)
E:\Project\tp78\mounriver_project\RF_CH582M\obj/../StdPeriphDriver/CH58x_gpio.c:83
            R32_PB_DIR &= ~pin;
    1cb6:	0c07a683          	lw	a3,192(a5)
    1cba:	8f75                	and	a4,a4,a3
    1cbc:	0ce7a023          	sw	a4,192(a5)
E:\Project\tp78\mounriver_project\RF_CH582M\obj/../StdPeriphDriver/CH58x_gpio.c:84
            break;
    1cc0:	8082                	ret
E:\Project\tp78\mounriver_project\RF_CH582M\obj/../StdPeriphDriver/CH58x_gpio.c:87
            R32_PB_PD_DRV |= pin;
    1cc2:	400017b7          	lui	a5,0x40001
    1cc6:	0d47a703          	lw	a4,212(a5) # 400010d4 <_eusrstack+0x1fff90d4>
    1cca:	8f49                	or	a4,a4,a0
    1ccc:	0ce7aa23          	sw	a4,212(a5)
E:\Project\tp78\mounriver_project\RF_CH582M\obj/../StdPeriphDriver/CH58x_gpio.c:88
            R32_PB_PU &= ~pin;
    1cd0:	0d07a703          	lw	a4,208(a5)
    1cd4:	fff54513          	not	a0,a0
    1cd8:	bf45                	j	1c88 <GPIOB_ModeCfg+0x2e>
E:\Project\tp78\mounriver_project\RF_CH582M\obj/../StdPeriphDriver/CH58x_gpio.c:93
            R32_PB_PD_DRV &= ~pin;
    1cda:	400017b7          	lui	a5,0x40001
    1cde:	0d47a683          	lw	a3,212(a5) # 400010d4 <_eusrstack+0x1fff90d4>
    1ce2:	fff54713          	not	a4,a0
    1ce6:	8f75                	and	a4,a4,a3
E:\Project\tp78\mounriver_project\RF_CH582M\obj/../StdPeriphDriver/CH58x_gpio.c:98
            R32_PB_PD_DRV |= pin;
    1ce8:	0ce7aa23          	sw	a4,212(a5)
E:\Project\tp78\mounriver_project\RF_CH582M\obj/../StdPeriphDriver/CH58x_gpio.c:99
            R32_PB_DIR |= pin;
    1cec:	0c07a703          	lw	a4,192(a5)
    1cf0:	8d59                	or	a0,a0,a4
    1cf2:	b74d                	j	1c94 <GPIOB_ModeCfg+0x3a>
E:\Project\tp78\mounriver_project\RF_CH582M\obj/../StdPeriphDriver/CH58x_gpio.c:98
            R32_PB_PD_DRV |= pin;
    1cf4:	400017b7          	lui	a5,0x40001
    1cf8:	0d47a703          	lw	a4,212(a5) # 400010d4 <_eusrstack+0x1fff90d4>
    1cfc:	8f49                	or	a4,a4,a0
    1cfe:	b7ed                	j	1ce8 <GPIOB_ModeCfg+0x8e>

00001d00 <GetSysClock>:
GetSysClock():
E:\Project\tp78\mounriver_project\RF_CH582M\obj/../StdPeriphDriver/CH58x_sys.c:130
    rev = R16_CLK_SYS_CFG & 0xff;
    1d00:	400017b7          	lui	a5,0x40001
    1d04:	0087d503          	lhu	a0,8(a5) # 40001008 <_eusrstack+0x1fff9008>
    1d08:	0542                	slli	a0,a0,0x10
    1d0a:	8141                	srli	a0,a0,0x10
E:\Project\tp78\mounriver_project\RF_CH582M\obj/../StdPeriphDriver/CH58x_sys.c:131
    if((rev & 0x40) == (0 << 6))
    1d0c:	04057793          	andi	a5,a0,64
    1d10:	eb91                	bnez	a5,1d24 <GetSysClock+0x24>
E:\Project\tp78\mounriver_project\RF_CH582M\obj/../StdPeriphDriver/CH58x_sys.c:133
        return (32000000 / (rev & 0x1f));
    1d12:	01f57793          	andi	a5,a0,31
    1d16:	01e85537          	lui	a0,0x1e85
E:\Project\tp78\mounriver_project\RF_CH582M\obj/../StdPeriphDriver/CH58x_sys.c:137
        return (480000000 / (rev & 0x1f));
    1d1a:	80050513          	addi	a0,a0,-2048 # 1e84800 <_data_lma+0x1e7e2a8>
    1d1e:	02f54533          	div	a0,a0,a5
    1d22:	8082                	ret
E:\Project\tp78\mounriver_project\RF_CH582M\obj/../StdPeriphDriver/CH58x_sys.c:135
    else if((rev & RB_CLK_SYS_MOD) == (1 << 6))
    1d24:	0c057793          	andi	a5,a0,192
    1d28:	04000713          	li	a4,64
    1d2c:	00e79763          	bne	a5,a4,1d3a <GetSysClock+0x3a>
E:\Project\tp78\mounriver_project\RF_CH582M\obj/../StdPeriphDriver/CH58x_sys.c:137
        return (480000000 / (rev & 0x1f));
    1d30:	01f57793          	andi	a5,a0,31
    1d34:	1c9c4537          	lui	a0,0x1c9c4
    1d38:	b7cd                	j	1d1a <GetSysClock+0x1a>
E:\Project\tp78\mounriver_project\RF_CH582M\obj/../StdPeriphDriver/CH58x_sys.c:141
        return (32000);
    1d3a:	6521                	lui	a0,0x8
    1d3c:	d0050513          	addi	a0,a0,-768 # 7d00 <_data_lma+0x17a8>
E:\Project\tp78\mounriver_project\RF_CH582M\obj/../StdPeriphDriver/CH58x_sys.c:143
}
    1d40:	8082                	ret

00001d42 <SYS_GetSysTickCnt>:
SYS_GetSysTickCnt():
E:\Project\tp78\mounriver_project\RF_CH582M\obj/../StdPeriphDriver/CH58x_sys.c:230
    val = SysTick->CNT;
    1d42:	e000f7b7          	lui	a5,0xe000f
    1d46:	4788                	lw	a0,8(a5)
    1d48:	47cc                	lw	a1,12(a5)
E:\Project\tp78\mounriver_project\RF_CH582M\obj/../StdPeriphDriver/CH58x_sys.c:232
}
    1d4a:	8082                	ret

00001d4c <USB_DeviceInit>:
USB_DeviceInit():
E:\Project\tp78\mounriver_project\RF_CH582M\obj/../StdPeriphDriver/CH58x_usbdev.c:29
 *
 * @return  none
 */
void USB_DeviceInit(void)
{
    R8_USB_CTRL = 0x00; // 先设定模式,取消 RB_UC_CLR_ALL
    1d4c:	400087b7          	lui	a5,0x40008
    1d50:	00078023          	sb	zero,0(a5) # 40008000 <_eusrstack+0x20000000>
E:\Project\tp78\mounriver_project\RF_CH582M\obj/../StdPeriphDriver/CH58x_usbdev.c:31

    R8_UEP4_1_MOD = RB_UEP4_RX_EN | RB_UEP4_TX_EN | RB_UEP1_RX_EN | RB_UEP1_TX_EN; // 端点4 OUT+IN,端点1 OUT+IN
    1d54:	fcc00713          	li	a4,-52
    1d58:	00e78623          	sb	a4,12(a5)
E:\Project\tp78\mounriver_project\RF_CH582M\obj/../StdPeriphDriver/CH58x_usbdev.c:32
    R8_UEP2_3_MOD = RB_UEP2_RX_EN | RB_UEP2_TX_EN | RB_UEP3_RX_EN | RB_UEP3_TX_EN; // 端点2 OUT+IN,端点3 OUT+IN
    1d5c:	00e786a3          	sb	a4,13(a5)
E:\Project\tp78\mounriver_project\RF_CH582M\obj/../StdPeriphDriver/CH58x_usbdev.c:34

    R16_UEP0_DMA = (uint16_t)(uint32_t)pEP0_RAM_Addr;
    1d60:	84c1d703          	lhu	a4,-1972(gp) # 2000179c <pEP0_RAM_Addr>
    1d64:	00e79823          	sh	a4,16(a5)
E:\Project\tp78\mounriver_project\RF_CH582M\obj/../StdPeriphDriver/CH58x_usbdev.c:35
    R16_UEP1_DMA = (uint16_t)(uint32_t)pEP1_RAM_Addr;
    1d68:	8501d703          	lhu	a4,-1968(gp) # 200017a0 <pEP1_RAM_Addr>
    1d6c:	00e79a23          	sh	a4,20(a5)
E:\Project\tp78\mounriver_project\RF_CH582M\obj/../StdPeriphDriver/CH58x_usbdev.c:36
    R16_UEP2_DMA = (uint16_t)(uint32_t)pEP2_RAM_Addr;
    1d70:	8441d703          	lhu	a4,-1980(gp) # 20001794 <pEP2_RAM_Addr>
    1d74:	00e79c23          	sh	a4,24(a5)
E:\Project\tp78\mounriver_project\RF_CH582M\obj/../StdPeriphDriver/CH58x_usbdev.c:37
    R16_UEP3_DMA = (uint16_t)(uint32_t)pEP3_RAM_Addr;
    1d78:	8481d703          	lhu	a4,-1976(gp) # 20001798 <pEP3_RAM_Addr>
    1d7c:	00e79e23          	sh	a4,28(a5)
E:\Project\tp78\mounriver_project\RF_CH582M\obj/../StdPeriphDriver/CH58x_usbdev.c:39

    R8_UEP0_CTRL = UEP_R_RES_ACK | UEP_T_RES_NAK;
    1d80:	4689                	li	a3,2
    1d82:	02d78123          	sb	a3,34(a5)
E:\Project\tp78\mounriver_project\RF_CH582M\obj/../StdPeriphDriver/CH58x_usbdev.c:40
    R8_UEP1_CTRL = UEP_R_RES_ACK | UEP_T_RES_NAK | RB_UEP_AUTO_TOG;
    1d86:	4749                	li	a4,18
    1d88:	02e78323          	sb	a4,38(a5)
E:\Project\tp78\mounriver_project\RF_CH582M\obj/../StdPeriphDriver/CH58x_usbdev.c:41
    R8_UEP2_CTRL = UEP_R_RES_ACK | UEP_T_RES_NAK | RB_UEP_AUTO_TOG;
    1d8c:	02e78523          	sb	a4,42(a5)
E:\Project\tp78\mounriver_project\RF_CH582M\obj/../StdPeriphDriver/CH58x_usbdev.c:42
    R8_UEP3_CTRL = UEP_R_RES_ACK | UEP_T_RES_NAK | RB_UEP_AUTO_TOG;
    1d90:	02e78723          	sb	a4,46(a5)
E:\Project\tp78\mounriver_project\RF_CH582M\obj/../StdPeriphDriver/CH58x_usbdev.c:43
    R8_UEP4_CTRL = UEP_R_RES_ACK | UEP_T_RES_NAK;
    1d94:	02d78923          	sb	a3,50(a5)
E:\Project\tp78\mounriver_project\RF_CH582M\obj/../StdPeriphDriver/CH58x_usbdev.c:45

    R8_USB_DEV_AD = 0x00;
    1d98:	000781a3          	sb	zero,3(a5)
E:\Project\tp78\mounriver_project\RF_CH582M\obj/../StdPeriphDriver/CH58x_usbdev.c:46
    R8_USB_CTRL = RB_UC_DEV_PU_EN | RB_UC_INT_BUSY | RB_UC_DMA_EN; // 启动USB设备及DMA，在中断期间中断标志未清除前自动返回NAK
    1d9c:	02900713          	li	a4,41
    1da0:	00e78023          	sb	a4,0(a5)
E:\Project\tp78\mounriver_project\RF_CH582M\obj/../StdPeriphDriver/CH58x_usbdev.c:47
    R16_PIN_ANALOG_IE |= RB_PIN_USB_IE | RB_PIN_USB_DP_PU;         // 防止USB端口浮空及上拉电阻
    1da4:	400016b7          	lui	a3,0x40001
    1da8:	01a6d703          	lhu	a4,26(a3) # 4000101a <_eusrstack+0x1fff901a>
    1dac:	0c076713          	ori	a4,a4,192
    1db0:	00e69d23          	sh	a4,26(a3)
E:\Project\tp78\mounriver_project\RF_CH582M\obj/../StdPeriphDriver/CH58x_usbdev.c:48
    R8_USB_INT_FG = 0xFF;                                          // 清中断标志
    1db4:	577d                	li	a4,-1
    1db6:	00e78323          	sb	a4,6(a5)
E:\Project\tp78\mounriver_project\RF_CH582M\obj/../StdPeriphDriver/CH58x_usbdev.c:49
    R8_UDEV_CTRL = RB_UD_PD_DIS | RB_UD_PORT_EN;                   // 允许USB端口
    1dba:	f8100713          	li	a4,-127
    1dbe:	00e780a3          	sb	a4,1(a5)
E:\Project\tp78\mounriver_project\RF_CH582M\obj/../StdPeriphDriver/CH58x_usbdev.c:50
    R8_USB_INT_EN = RB_UIE_SUSPEND | RB_UIE_BUS_RST | RB_UIE_TRANSFER;
    1dc2:	471d                	li	a4,7
    1dc4:	00e78123          	sb	a4,2(a5)
E:\Project\tp78\mounriver_project\RF_CH582M\obj/../StdPeriphDriver/CH58x_usbdev.c:51
}
    1dc8:	8082                	ret

00001dca <DevEP1_IN_Deal>:
DevEP1_IN_Deal():
E:\Project\tp78\mounriver_project\RF_CH582M\obj/../StdPeriphDriver/CH58x_usbdev.c:64
 *
 * @return  none
 */
void DevEP1_IN_Deal(uint8_t l)
{
    R8_UEP1_T_LEN = l;
    1dca:	400087b7          	lui	a5,0x40008
    1dce:	02a78223          	sb	a0,36(a5) # 40008024 <_eusrstack+0x20000024>
E:\Project\tp78\mounriver_project\RF_CH582M\obj/../StdPeriphDriver/CH58x_usbdev.c:65
    R8_UEP1_CTRL = (R8_UEP1_CTRL & ~MASK_UEP_T_RES) | UEP_T_RES_ACK;
    1dd2:	0267c703          	lbu	a4,38(a5)
    1dd6:	0fc77713          	andi	a4,a4,252
    1dda:	02e78323          	sb	a4,38(a5)
E:\Project\tp78\mounriver_project\RF_CH582M\obj/../StdPeriphDriver/CH58x_usbdev.c:66
}
    1dde:	8082                	ret

00001de0 <DevEP2_IN_Deal>:
DevEP2_IN_Deal():
E:\Project\tp78\mounriver_project\RF_CH582M\obj/../StdPeriphDriver/CH58x_usbdev.c:79
 *
 * @return  none
 */
void DevEP2_IN_Deal(uint8_t l)
{
    R8_UEP2_T_LEN = l;
    1de0:	400087b7          	lui	a5,0x40008
    1de4:	02a78423          	sb	a0,40(a5) # 40008028 <_eusrstack+0x20000028>
E:\Project\tp78\mounriver_project\RF_CH582M\obj/../StdPeriphDriver/CH58x_usbdev.c:80
    R8_UEP2_CTRL = (R8_UEP2_CTRL & ~MASK_UEP_T_RES) | UEP_T_RES_ACK;
    1de8:	02a7c703          	lbu	a4,42(a5)
    1dec:	0fc77713          	andi	a4,a4,252
    1df0:	02e78523          	sb	a4,42(a5)
E:\Project\tp78\mounriver_project\RF_CH582M\obj/../StdPeriphDriver/CH58x_usbdev.c:81
}
    1df4:	8082                	ret

00001df6 <DevEP3_IN_Deal>:
DevEP3_IN_Deal():
E:\Project\tp78\mounriver_project\RF_CH582M\obj/../StdPeriphDriver/CH58x_usbdev.c:94
 *
 * @return  none
 */
void DevEP3_IN_Deal(uint8_t l)
{
    R8_UEP3_T_LEN = l;
    1df6:	400087b7          	lui	a5,0x40008
    1dfa:	02a78623          	sb	a0,44(a5) # 4000802c <_eusrstack+0x2000002c>
E:\Project\tp78\mounriver_project\RF_CH582M\obj/../StdPeriphDriver/CH58x_usbdev.c:95
    R8_UEP3_CTRL = (R8_UEP3_CTRL & ~MASK_UEP_T_RES) | UEP_T_RES_ACK;
    1dfe:	02e7c703          	lbu	a4,46(a5)
    1e02:	0fc77713          	andi	a4,a4,252
    1e06:	02e78723          	sb	a4,46(a5)
E:\Project\tp78\mounriver_project\RF_CH582M\obj/../StdPeriphDriver/CH58x_usbdev.c:96
}
    1e0a:	8082                	ret

00001e0c <DevEP4_IN_Deal>:
DevEP4_IN_Deal():
E:\Project\tp78\mounriver_project\RF_CH582M\obj/../StdPeriphDriver/CH58x_usbdev.c:109
 *
 * @return  none
 */
void DevEP4_IN_Deal(uint8_t l)
{
    R8_UEP4_T_LEN = l;
    1e0c:	400087b7          	lui	a5,0x40008
    1e10:	02a78823          	sb	a0,48(a5) # 40008030 <_eusrstack+0x20000030>
E:\Project\tp78\mounriver_project\RF_CH582M\obj/../StdPeriphDriver/CH58x_usbdev.c:110
    R8_UEP4_CTRL = (R8_UEP4_CTRL & ~MASK_UEP_T_RES) | UEP_T_RES_ACK;
    1e14:	0327c703          	lbu	a4,50(a5)
    1e18:	0fc77713          	andi	a4,a4,252
    1e1c:	02e78923          	sb	a4,50(a5)
E:\Project\tp78\mounriver_project\RF_CH582M\obj/../StdPeriphDriver/CH58x_usbdev.c:111
}
    1e20:	8082                	ret

00001e22 <HalLedBlink.part.2>:
HalLedBlink():
E:\Project\tp78\mounriver_project\RF_CH582M\obj/../HAL/LED.c:146
 * @param   percent     - the percentage in each period where the led will be on
 * @param   period      - length of each cycle in milliseconds
 *
 * @return  none
 */
void HalLedBlink(uint8_t leds, uint8_t numBlinks, uint8_t percent, uint16_t period)
    1e22:	7179                	addi	sp,sp,-48
    1e24:	d422                	sw	s0,40(sp)
    1e26:	d226                	sw	s1,36(sp)
    1e28:	d04a                	sw	s2,32(sp)
    1e2a:	ce4e                	sw	s3,28(sp)
    1e2c:	cc52                	sw	s4,24(sp)
    1e2e:	ca56                	sw	s5,20(sp)
    1e30:	d606                	sw	ra,44(sp)
E:\Project\tp78\mounriver_project\RF_CH582M\obj/../HAL/LED.c:156
    if(leds && percent && period)
    {
        if(percent < 100)
        {
            led = HAL_LED_1;
            leds &= HAL_LED_ALL;
    1e32:	00f57913          	andi	s2,a0,15
E:\Project\tp78\mounriver_project\RF_CH582M\obj/../HAL/LED.c:157
            sts = HalLedStatusControl.HalLedControlTable;
    1e36:	81018413          	addi	s0,gp,-2032 # 20001760 <HalLedStatusControl>
E:\Project\tp78\mounriver_project\RF_CH582M\obj/../HAL/LED.c:155
            led = HAL_LED_1;
    1e3a:	4485                	li	s1,1
E:\Project\tp78\mounriver_project\RF_CH582M\obj/../HAL/LED.c:163
            while(leds)
            {
                if(leds & led)
                {
                    /* Store the current state of the led before going to blinking */
                    preBlinkState |= (led & HalLedState);
    1e3c:	80918993          	addi	s3,gp,-2039 # 20001759 <preBlinkState>
    1e40:	80818a13          	addi	s4,gp,-2040 # 20001758 <_edata>
E:\Project\tp78\mounriver_project\RF_CH582M\obj/../HAL/LED.c:170
                    sts->time = period;           /* Time for one on/off cycle */
                    sts->onPct = percent;         /* % of cycle LED is on */
                    sts->todo = numBlinks;        /* Number of blink cycles */
                    if(!numBlinks)
                    {
                        sts->mode |= HAL_LED_MODE_FLASH; /* Continuous */
    1e44:	4a91                	li	s5,4
E:\Project\tp78\mounriver_project\RF_CH582M\obj/../HAL/LED.c:158
            while(leds)
    1e46:	02091063          	bnez	s2,1e66 <HalLedBlink.part.2+0x44>
E:\Project\tp78\mounriver_project\RF_CH582M\obj/../HAL/LED.c:190
    }
    else
    {
        HalLedSet(leds, HAL_LED_MODE_OFF); /* No on time, turn off */
    }
}
    1e4a:	5422                	lw	s0,40(sp)
    1e4c:	50b2                	lw	ra,44(sp)
    1e4e:	5492                	lw	s1,36(sp)
    1e50:	5902                	lw	s2,32(sp)
    1e52:	49f2                	lw	s3,28(sp)
    1e54:	4a62                	lw	s4,24(sp)
    1e56:	4ad2                	lw	s5,20(sp)
E:\Project\tp78\mounriver_project\RF_CH582M\obj/../HAL/LED.c:179
            tmos_start_task(halTaskID, LED_BLINK_EVENT, 0);
    1e58:	8541c503          	lbu	a0,-1964(gp) # 200017a4 <halTaskID>
    1e5c:	4601                	li	a2,0
    1e5e:	4585                	li	a1,1
E:\Project\tp78\mounriver_project\RF_CH582M\obj/../HAL/LED.c:190
}
    1e60:	6145                	addi	sp,sp,48
E:\Project\tp78\mounriver_project\RF_CH582M\obj/../HAL/LED.c:179
            tmos_start_task(halTaskID, LED_BLINK_EVENT, 0);
    1e62:	1de0106f          	j	3040 <tmos_start_task>
E:\Project\tp78\mounriver_project\RF_CH582M\obj/../HAL/LED.c:160
                if(leds & led)
    1e66:	009977b3          	and	a5,s2,s1
    1e6a:	c7a9                	beqz	a5,1eb4 <HalLedBlink.part.2+0x92>
E:\Project\tp78\mounriver_project\RF_CH582M\obj/../HAL/LED.c:163
                    preBlinkState |= (led & HalLedState);
    1e6c:	000a4783          	lbu	a5,0(s4) # a8c00000 <_eusrstack+0x88bf8000>
    1e70:	0009c703          	lbu	a4,0(s3)
E:\Project\tp78\mounriver_project\RF_CH582M\obj/../HAL/LED.c:164
                    sts->mode = HAL_LED_MODE_OFF; /* Stop previous blink */
    1e74:	00040023          	sb	zero,0(s0)
E:\Project\tp78\mounriver_project\RF_CH582M\obj/../HAL/LED.c:163
                    preBlinkState |= (led & HalLedState);
    1e78:	8fe5                	and	a5,a5,s1
    1e7a:	8fd9                	or	a5,a5,a4
    1e7c:	80f184a3          	sb	a5,-2039(gp) # 20001759 <preBlinkState>
E:\Project\tp78\mounriver_project\RF_CH582M\obj/../HAL/LED.c:165
                    sts->time = period;           /* Time for one on/off cycle */
    1e80:	00d41223          	sh	a3,4(s0)
E:\Project\tp78\mounriver_project\RF_CH582M\obj/../HAL/LED.c:166
                    sts->onPct = percent;         /* % of cycle LED is on */
    1e84:	00c40123          	sb	a2,2(s0)
E:\Project\tp78\mounriver_project\RF_CH582M\obj/../HAL/LED.c:167
                    sts->todo = numBlinks;        /* Number of blink cycles */
    1e88:	00b400a3          	sb	a1,1(s0)
E:\Project\tp78\mounriver_project\RF_CH582M\obj/../HAL/LED.c:168
                    if(!numBlinks)
    1e8c:	e199                	bnez	a1,1e92 <HalLedBlink.part.2+0x70>
E:\Project\tp78\mounriver_project\RF_CH582M\obj/../HAL/LED.c:170
                        sts->mode |= HAL_LED_MODE_FLASH; /* Continuous */
    1e8e:	01540023          	sb	s5,0(s0)
    1e92:	c636                	sw	a3,12(sp)
    1e94:	c432                	sw	a2,8(sp)
    1e96:	c22e                	sw	a1,4(sp)
E:\Project\tp78\mounriver_project\RF_CH582M\obj/../HAL/LED.c:172
                    sts->next = TMOS_GetSystemClock(); /* Start now */
    1e98:	116010ef          	jal	ra,2fae <TMOS_GetSystemClock>
E:\Project\tp78\mounriver_project\RF_CH582M\obj/../HAL/LED.c:173
                    sts->mode |= HAL_LED_MODE_BLINK;   /* Enable blinking */
    1e9c:	00044783          	lbu	a5,0(s0)
E:\Project\tp78\mounriver_project\RF_CH582M\obj/../HAL/LED.c:174
                    leds ^= led;
    1ea0:	46b2                	lw	a3,12(sp)
    1ea2:	4622                	lw	a2,8(sp)
    1ea4:	4592                	lw	a1,4(sp)
E:\Project\tp78\mounriver_project\RF_CH582M\obj/../HAL/LED.c:173
                    sts->mode |= HAL_LED_MODE_BLINK;   /* Enable blinking */
    1ea6:	0027e793          	ori	a5,a5,2
E:\Project\tp78\mounriver_project\RF_CH582M\obj/../HAL/LED.c:172
                    sts->next = TMOS_GetSystemClock(); /* Start now */
    1eaa:	c408                	sw	a0,8(s0)
E:\Project\tp78\mounriver_project\RF_CH582M\obj/../HAL/LED.c:173
                    sts->mode |= HAL_LED_MODE_BLINK;   /* Enable blinking */
    1eac:	00f40023          	sb	a5,0(s0)
E:\Project\tp78\mounriver_project\RF_CH582M\obj/../HAL/LED.c:174
                    leds ^= led;
    1eb0:	00994933          	xor	s2,s2,s1
E:\Project\tp78\mounriver_project\RF_CH582M\obj/../HAL/LED.c:176
                led <<= 1;
    1eb4:	0486                	slli	s1,s1,0x1
    1eb6:	0ff4f493          	andi	s1,s1,255
E:\Project\tp78\mounriver_project\RF_CH582M\obj/../HAL/LED.c:177
                sts++;
    1eba:	0431                	addi	s0,s0,12
    1ebc:	b769                	j	1e46 <HalLedBlink.part.2+0x24>

00001ebe <HalLedOnOff>:
HalLedOnOff():
E:\Project\tp78\mounriver_project\RF_CH582M\obj/../HAL/LED.c:294
 *
 * @return  none
 */
void HalLedOnOff(uint8_t leds, uint8_t mode)
{
    if(leds & HAL_LED_1)
    1ebe:	00157793          	andi	a5,a0,1
    1ec2:	80818693          	addi	a3,gp,-2040 # 20001758 <_edata>
    1ec6:	cb9d                	beqz	a5,1efc <HalLedOnOff+0x3e>
E:\Project\tp78\mounriver_project\RF_CH582M\obj/../HAL/LED.c:296
    {
        if(mode == HAL_LED_MODE_ON)
    1ec8:	4785                	li	a5,1
    1eca:	02f59163          	bne	a1,a5,1eec <HalLedOnOff+0x2e>
E:\Project\tp78\mounriver_project\RF_CH582M\obj/../HAL/LED.c:298
        {
            HAL_TURN_ON_LED1();
    1ece:	40001637          	lui	a2,0x40001
    1ed2:	0c862783          	lw	a5,200(a2) # 400010c8 <_eusrstack+0x1fff90c8>
    1ed6:	777d                	lui	a4,0xfffff
    1ed8:	177d                	addi	a4,a4,-1
    1eda:	8ff9                	and	a5,a5,a4
    1edc:	0cf62423          	sw	a5,200(a2)
E:\Project\tp78\mounriver_project\RF_CH582M\obj/../HAL/LED.c:341
        }
    }
    /* Remember current state */
    if(mode)
    {
        HalLedState |= leds;
    1ee0:	0006c783          	lbu	a5,0(a3)
    1ee4:	8d5d                	or	a0,a0,a5
    1ee6:	80a18423          	sb	a0,-2040(gp) # 20001758 <_edata>
E:\Project\tp78\mounriver_project\RF_CH582M\obj/../HAL/LED.c:347
    }
    else
    {
        HalLedState &= (leds ^ 0xFF);
    }
}
    1eea:	8082                	ret
E:\Project\tp78\mounriver_project\RF_CH582M\obj/../HAL/LED.c:302
            HAL_TURN_OFF_LED1();
    1eec:	40001737          	lui	a4,0x40001
    1ef0:	0c872783          	lw	a5,200(a4) # 400010c8 <_eusrstack+0x1fff90c8>
    1ef4:	6605                	lui	a2,0x1
    1ef6:	8fd1                	or	a5,a5,a2
    1ef8:	0cf72423          	sw	a5,200(a4)
E:\Project\tp78\mounriver_project\RF_CH582M\obj/../HAL/LED.c:339
    if(mode)
    1efc:	f1f5                	bnez	a1,1ee0 <HalLedOnOff+0x22>
E:\Project\tp78\mounriver_project\RF_CH582M\obj/../HAL/LED.c:345
        HalLedState &= (leds ^ 0xFF);
    1efe:	0006c783          	lbu	a5,0(a3)
    1f02:	fff54513          	not	a0,a0
    1f06:	8d7d                	and	a0,a0,a5
    1f08:	bff9                	j	1ee6 <HalLedOnOff+0x28>

00001f0a <HalLedSet.part.1>:
HalLedSet():
E:\Project\tp78\mounriver_project\RF_CH582M\obj/../HAL/LED.c:79
uint8_t HalLedSet(uint8_t leds, uint8_t mode)
    1f0a:	1101                	addi	sp,sp,-32
    1f0c:	cc22                	sw	s0,24(sp)
    1f0e:	ca26                	sw	s1,20(sp)
    1f10:	c84a                	sw	s2,16(sp)
    1f12:	c64e                	sw	s3,12(sp)
    1f14:	c452                	sw	s4,8(sp)
    1f16:	ce06                	sw	ra,28(sp)
    1f18:	89ae                	mv	s3,a1
E:\Project\tp78\mounriver_project\RF_CH582M\obj/../HAL/LED.c:105
            leds &= HAL_LED_ALL;
    1f1a:	00f57493          	andi	s1,a0,15
E:\Project\tp78\mounriver_project\RF_CH582M\obj/../HAL/LED.c:106
            sts = HalLedStatusControl.HalLedControlTable;
    1f1e:	81018913          	addi	s2,gp,-2032 # 20001760 <HalLedStatusControl>
E:\Project\tp78\mounriver_project\RF_CH582M\obj/../HAL/LED.c:104
            led = HAL_LED_1;
    1f22:	4405                	li	s0,1
E:\Project\tp78\mounriver_project\RF_CH582M\obj/../HAL/LED.c:111
                    if(mode != HAL_LED_MODE_TOGGLE)
    1f24:	4a21                	li	s4,8
E:\Project\tp78\mounriver_project\RF_CH582M\obj/../HAL/LED.c:107
            while(leds)
    1f26:	e889                	bnez	s1,1f38 <HalLedSet.part.1+0x2e>
E:\Project\tp78\mounriver_project\RF_CH582M\obj/../HAL/LED.c:132
}
    1f28:	40f2                	lw	ra,28(sp)
    1f2a:	4462                	lw	s0,24(sp)
    1f2c:	44d2                	lw	s1,20(sp)
    1f2e:	4942                	lw	s2,16(sp)
    1f30:	49b2                	lw	s3,12(sp)
    1f32:	4a22                	lw	s4,8(sp)
    1f34:	6105                	addi	sp,sp,32
    1f36:	8082                	ret
E:\Project\tp78\mounriver_project\RF_CH582M\obj/../HAL/LED.c:109
                if(leds & led)
    1f38:	0084f7b3          	and	a5,s1,s0
    1f3c:	cf89                	beqz	a5,1f56 <HalLedSet.part.1+0x4c>
E:\Project\tp78\mounriver_project\RF_CH582M\obj/../HAL/LED.c:111
                    if(mode != HAL_LED_MODE_TOGGLE)
    1f3e:	85ce                	mv	a1,s3
    1f40:	01499663          	bne	s3,s4,1f4c <HalLedSet.part.1+0x42>
E:\Project\tp78\mounriver_project\RF_CH582M\obj/../HAL/LED.c:117
                        sts->mode ^= HAL_LED_MODE_ON; /* Toggle */
    1f44:	00094583          	lbu	a1,0(s2)
    1f48:	0015c593          	xori	a1,a1,1
E:\Project\tp78\mounriver_project\RF_CH582M\obj/../HAL/LED.c:119
                    HalLedOnOff(led, sts->mode);
    1f4c:	8522                	mv	a0,s0
    1f4e:	00b90023          	sb	a1,0(s2)
E:\Project\tp78\mounriver_project\RF_CH582M\obj/../HAL/LED.c:120
                    leds ^= led;
    1f52:	8ca1                	xor	s1,s1,s0
E:\Project\tp78\mounriver_project\RF_CH582M\obj/../HAL/LED.c:119
                    HalLedOnOff(led, sts->mode);
    1f54:	37ad                	jal	1ebe <HalLedOnOff>
E:\Project\tp78\mounriver_project\RF_CH582M\obj/../HAL/LED.c:122
                led <<= 1;
    1f56:	0406                	slli	s0,s0,0x1
    1f58:	0ff47413          	andi	s0,s0,255
E:\Project\tp78\mounriver_project\RF_CH582M\obj/../HAL/LED.c:123
                sts++;
    1f5c:	0931                	addi	s2,s2,12
    1f5e:	b7e1                	j	1f26 <HalLedSet.part.1+0x1c>

00001f60 <HalLedBlink>:
HalLedBlink():
E:\Project\tp78\mounriver_project\RF_CH582M\obj/../HAL/LED.c:147
{
    1f60:	87aa                	mv	a5,a0
E:\Project\tp78\mounriver_project\RF_CH582M\obj/../HAL/LED.c:151
    if(leds && percent && period)
    1f62:	c911                	beqz	a0,1f76 <HalLedBlink+0x16>
E:\Project\tp78\mounriver_project\RF_CH582M\obj/../HAL/LED.c:151 (discriminator 1)
    1f64:	ca09                	beqz	a2,1f76 <HalLedBlink+0x16>
E:\Project\tp78\mounriver_project\RF_CH582M\obj/../HAL/LED.c:151 (discriminator 2)
    1f66:	ca81                	beqz	a3,1f76 <HalLedBlink+0x16>
E:\Project\tp78\mounriver_project\RF_CH582M\obj/../HAL/LED.c:153
        if(percent < 100)
    1f68:	06300793          	li	a5,99
    1f6c:	00c7e363          	bltu	a5,a2,1f72 <HalLedBlink+0x12>
    1f70:	bd4d                	j	1e22 <HalLedBlink.part.2>
HalLedSet():
E:\Project\tp78\mounriver_project\RF_CH582M\obj/../HAL/LED.c:84
    switch(mode)
    1f72:	4585                	li	a1,1
    1f74:	bf59                	j	1f0a <HalLedSet.part.1>
    1f76:	4581                	li	a1,0
    1f78:	853e                	mv	a0,a5
    1f7a:	bfed                	j	1f74 <HalLedBlink+0x14>

00001f7c <HalLedSet>:
    1f7c:	47a1                	li	a5,8
    1f7e:	02b7ef63          	bltu	a5,a1,1fbc <HalLedSet+0x40>
    1f82:	00004697          	auipc	a3,0x4
    1f86:	42668693          	addi	a3,a3,1062 # 63a8 <memcpy+0xca>
    1f8a:	00259713          	slli	a4,a1,0x2
    1f8e:	9736                	add	a4,a4,a3
    1f90:	431c                	lw	a5,0(a4)
E:\Project\tp78\mounriver_project\RF_CH582M\obj/../HAL/LED.c:80
{
    1f92:	1141                	addi	sp,sp,-16
    1f94:	c606                	sw	ra,12(sp)
E:\Project\tp78\mounriver_project\RF_CH582M\obj/../HAL/LED.c:84
    switch(mode)
    1f96:	97b6                	add	a5,a5,a3
    1f98:	8782                	jr	a5
E:\Project\tp78\mounriver_project\RF_CH582M\obj/../HAL/LED.c:89
            HalLedBlink(leds, 1, HAL_LED_DEFAULT_DUTY_CYCLE, HAL_LED_DEFAULT_FLASH_TIME);
    1f9a:	3e800693          	li	a3,1000
    1f9e:	4615                	li	a2,5
    1fa0:	4585                	li	a1,1
E:\Project\tp78\mounriver_project\RF_CH582M\obj/../HAL/LED.c:96
            HalLedBlink(leds, HAL_LED_DEFAULT_FLASH_COUNT, HAL_LED_DEFAULT_DUTY_CYCLE, HAL_LED_DEFAULT_FLASH_TIME);
    1fa2:	3f7d                	jal	1f60 <HalLedBlink>
E:\Project\tp78\mounriver_project\RF_CH582M\obj/../HAL/LED.c:132
}
    1fa4:	40b2                	lw	ra,12(sp)
    1fa6:	4501                	li	a0,0
    1fa8:	0141                	addi	sp,sp,16
    1faa:	8082                	ret
E:\Project\tp78\mounriver_project\RF_CH582M\obj/../HAL/LED.c:96
            HalLedBlink(leds, HAL_LED_DEFAULT_FLASH_COUNT, HAL_LED_DEFAULT_DUTY_CYCLE, HAL_LED_DEFAULT_FLASH_TIME);
    1fac:	3e800693          	li	a3,1000
    1fb0:	4615                	li	a2,5
    1fb2:	03200593          	li	a1,50
    1fb6:	b7f5                	j	1fa2 <HalLedSet+0x26>
    1fb8:	3f89                	jal	1f0a <HalLedSet.part.1>
    1fba:	b7ed                	j	1fa4 <HalLedSet+0x28>
E:\Project\tp78\mounriver_project\RF_CH582M\obj/../HAL/LED.c:132
}
    1fbc:	4501                	li	a0,0
    1fbe:	8082                	ret

00001fc0 <HAL_LedInit>:
HAL_LedInit():
E:\Project\tp78\mounriver_project\RF_CH582M\obj/../HAL/LED.c:59
    GPIOB_SetBits(LED1_BV);
    1fc0:	40001737          	lui	a4,0x40001
    1fc4:	0c872783          	lw	a5,200(a4) # 400010c8 <_eusrstack+0x1fff90c8>
E:\Project\tp78\mounriver_project\RF_CH582M\obj/../HAL/LED.c:57
{
    1fc8:	1141                	addi	sp,sp,-16
E:\Project\tp78\mounriver_project\RF_CH582M\obj/../HAL/LED.c:59
    GPIOB_SetBits(LED1_BV);
    1fca:	6685                	lui	a3,0x1
E:\Project\tp78\mounriver_project\RF_CH582M\obj/../HAL/LED.c:57
{
    1fcc:	c606                	sw	ra,12(sp)
E:\Project\tp78\mounriver_project\RF_CH582M\obj/../HAL/LED.c:59
    GPIOB_SetBits(LED1_BV);
    1fce:	8fd5                	or	a5,a5,a3
    1fd0:	0cf72423          	sw	a5,200(a4)
E:\Project\tp78\mounriver_project\RF_CH582M\obj/../HAL/LED.c:60
    GPIOB_ModeCfg(LED1_BV, GPIO_ModeOut_PP_5mA);
    1fd4:	458d                	li	a1,3
    1fd6:	6505                	lui	a0,0x1
    1fd8:	3149                	jal	1c5a <GPIOB_ModeCfg>
HalLedSet():
E:\Project\tp78\mounriver_project\RF_CH582M\obj/../HAL/LED.c:84
    switch(mode)
    1fda:	4581                	li	a1,0
    1fdc:	453d                	li	a0,15
    1fde:	3735                	jal	1f0a <HalLedSet.part.1>
HalLedBlink():
E:\Project\tp78\mounriver_project\RF_CH582M\obj/../HAL/LED.c:153
        if(percent < 100)
    1fe0:	2ee00693          	li	a3,750
    1fe4:	4679                	li	a2,30
    1fe6:	4595                	li	a1,5
    1fe8:	4505                	li	a0,1
    1fea:	3d25                	jal	1e22 <HalLedBlink.part.2>
HAL_LedInit():
E:\Project\tp78\mounriver_project\RF_CH582M\obj/../HAL/LED.c:67
}
    1fec:	40b2                	lw	ra,12(sp)
E:\Project\tp78\mounriver_project\RF_CH582M\obj/../HAL/LED.c:66
    HalLedStatusControl.sleepActive = FALSE;
    1fee:	84018023          	sb	zero,-1984(gp) # 20001790 <HalLedStatusControl+0x30>
E:\Project\tp78\mounriver_project\RF_CH582M\obj/../HAL/LED.c:67
}
    1ff2:	0141                	addi	sp,sp,16
    1ff4:	8082                	ret

00001ff6 <HalLedUpdate>:
HalLedUpdate():
E:\Project\tp78\mounriver_project\RF_CH582M\obj/../HAL/LED.c:212
    if(!HalLedStatusControl.sleepActive)
    1ff6:	8401c783          	lbu	a5,-1984(gp) # 20001790 <HalLedStatusControl+0x30>
    1ffa:	16079363          	bnez	a5,2160 <HalLedUpdate+0x16a>
E:\Project\tp78\mounriver_project\RF_CH582M\obj/../HAL/LED.c:200
{
    1ffe:	7179                	addi	sp,sp,-48
    2000:	ce4e                	sw	s3,28(sp)
E:\Project\tp78\mounriver_project\RF_CH582M\obj/../HAL/LED.c:249
                            sts->next = time + wait;
    2002:	69c1                	lui	s3,0x10
E:\Project\tp78\mounriver_project\RF_CH582M\obj/../HAL/LED.c:200
{
    2004:	d422                	sw	s0,40(sp)
    2006:	d226                	sw	s1,36(sp)
    2008:	d04a                	sw	s2,32(sp)
    200a:	cc52                	sw	s4,24(sp)
    200c:	ca56                	sw	s5,20(sp)
    200e:	c85a                	sw	s6,16(sp)
    2010:	c65e                	sw	s7,12(sp)
    2012:	c462                	sw	s8,8(sp)
    2014:	d606                	sw	ra,44(sp)
    2016:	c266                	sw	s9,4(sp)
    2018:	c06a                	sw	s10,0(sp)
E:\Project\tp78\mounriver_project\RF_CH582M\obj/../HAL/LED.c:209
    sts = HalLedStatusControl.HalLedControlTable;
    201a:	81018413          	addi	s0,gp,-2032 # 20001760 <HalLedStatusControl>
E:\Project\tp78\mounriver_project\RF_CH582M\obj/../HAL/LED.c:206
    next = 0;
    201e:	4c01                	li	s8,0
E:\Project\tp78\mounriver_project\RF_CH582M\obj/../HAL/LED.c:208
    leds = HAL_LED_ALL;
    2020:	493d                	li	s2,15
E:\Project\tp78\mounriver_project\RF_CH582M\obj/../HAL/LED.c:207
    led = HAL_LED_1;
    2022:	4485                	li	s1,1
E:\Project\tp78\mounriver_project\RF_CH582M\obj/../HAL/LED.c:256
                            HalLedSet(led, ((preBlinkState & led) != 0) ? HAL_LED_MODE_ON : HAL_LED_MODE_OFF);
    2024:	80918a13          	addi	s4,gp,-2039 # 20001759 <preBlinkState>
E:\Project\tp78\mounriver_project\RF_CH582M\obj/../HAL/LED.c:248
                            wait = (((uint32_t)pct * (uint32_t)sts->time) / 100);
    2028:	06400a93          	li	s5,100
E:\Project\tp78\mounriver_project\RF_CH582M\obj/../HAL/LED.c:249
                            sts->next = time + wait;
    202c:	19fd                	addi	s3,s3,-1
E:\Project\tp78\mounriver_project\RF_CH582M\obj/../HAL/LED.c:225
                            pct = 100 - sts->onPct;             /* Percentage of cycle for off */
    202e:	06400b13          	li	s6,100
E:\Project\tp78\mounriver_project\RF_CH582M\obj/../HAL/LED.c:230
                                if(sts->todo != 0xff)
    2032:	0ff00b93          	li	s7,255
E:\Project\tp78\mounriver_project\RF_CH582M\obj/../HAL/LED.c:216
            if(leds & led)
    2036:	0124f7b3          	and	a5,s1,s2
    203a:	c7e1                	beqz	a5,2102 <HalLedUpdate+0x10c>
E:\Project\tp78\mounriver_project\RF_CH582M\obj/../HAL/LED.c:218
                if(sts->mode & HAL_LED_MODE_BLINK)
    203c:	00044783          	lbu	a5,0(s0)
    2040:	8b89                	andi	a5,a5,2
    2042:	cfd5                	beqz	a5,20fe <HalLedUpdate+0x108>
E:\Project\tp78\mounriver_project\RF_CH582M\obj/../HAL/LED.c:220
                    time = TMOS_GetSystemClock();
    2044:	76b000ef          	jal	ra,2fae <TMOS_GetSystemClock>
E:\Project\tp78\mounriver_project\RF_CH582M\obj/../HAL/LED.c:221
                    if(time >= sts->next)
    2048:	441c                	lw	a5,8(s0)
E:\Project\tp78\mounriver_project\RF_CH582M\obj/../HAL/LED.c:220
                    time = TMOS_GetSystemClock();
    204a:	8d2a                	mv	s10,a0
E:\Project\tp78\mounriver_project\RF_CH582M\obj/../HAL/LED.c:221
                    if(time >= sts->next)
    204c:	0ef56663          	bltu	a0,a5,2138 <HalLedUpdate+0x142>
E:\Project\tp78\mounriver_project\RF_CH582M\obj/../HAL/LED.c:223
                        if(sts->mode & HAL_LED_MODE_ON)
    2050:	00044683          	lbu	a3,0(s0)
    2054:	00244c83          	lbu	s9,2(s0)
    2058:	0016f793          	andi	a5,a3,1
    205c:	cbbd                	beqz	a5,20d2 <HalLedUpdate+0xdc>
E:\Project\tp78\mounriver_project\RF_CH582M\obj/../HAL/LED.c:225
                            pct = 100 - sts->onPct;             /* Percentage of cycle for off */
    205e:	419b0733          	sub	a4,s6,s9
E:\Project\tp78\mounriver_project\RF_CH582M\obj/../HAL/LED.c:226
                            sts->mode &= ~HAL_LED_MODE_ON;      /* Say it's not on */
    2062:	9af9                	andi	a3,a3,-2
E:\Project\tp78\mounriver_project\RF_CH582M\obj/../HAL/LED.c:227
                            HalLedOnOff(led, HAL_LED_MODE_OFF); /* Turn it off */
    2064:	4581                	li	a1,0
    2066:	8526                	mv	a0,s1
E:\Project\tp78\mounriver_project\RF_CH582M\obj/../HAL/LED.c:225
                            pct = 100 - sts->onPct;             /* Percentage of cycle for off */
    2068:	0ff77c93          	andi	s9,a4,255
E:\Project\tp78\mounriver_project\RF_CH582M\obj/../HAL/LED.c:226
                            sts->mode &= ~HAL_LED_MODE_ON;      /* Say it's not on */
    206c:	00d40023          	sb	a3,0(s0)
E:\Project\tp78\mounriver_project\RF_CH582M\obj/../HAL/LED.c:227
                            HalLedOnOff(led, HAL_LED_MODE_OFF); /* Turn it off */
    2070:	35b9                	jal	1ebe <HalLedOnOff>
E:\Project\tp78\mounriver_project\RF_CH582M\obj/../HAL/LED.c:228
                            if(!(sts->mode & HAL_LED_MODE_FLASH))
    2072:	00044603          	lbu	a2,0(s0)
    2076:	00467793          	andi	a5,a2,4
    207a:	ef99                	bnez	a5,2098 <HalLedUpdate+0xa2>
E:\Project\tp78\mounriver_project\RF_CH582M\obj/../HAL/LED.c:230
                                if(sts->todo != 0xff)
    207c:	00144683          	lbu	a3,1(s0)
    2080:	01768c63          	beq	a3,s7,2098 <HalLedUpdate+0xa2>
E:\Project\tp78\mounriver_project\RF_CH582M\obj/../HAL/LED.c:232
                                    sts->todo--; /* Not continuous, reduce count */
    2084:	16fd                	addi	a3,a3,-1
    2086:	0ff6f693          	andi	a3,a3,255
    208a:	00d400a3          	sb	a3,1(s0)
E:\Project\tp78\mounriver_project\RF_CH582M\obj/../HAL/LED.c:234
                                if(!sts->todo)
    208e:	e689                	bnez	a3,2098 <HalLedUpdate+0xa2>
E:\Project\tp78\mounriver_project\RF_CH582M\obj/../HAL/LED.c:236
                                    sts->mode ^= HAL_LED_MODE_BLINK; /* No more blinks */
    2090:	00264613          	xori	a2,a2,2
    2094:	00c40023          	sb	a2,0(s0)
E:\Project\tp78\mounriver_project\RF_CH582M\obj/../HAL/LED.c:246
                        if(sts->mode & HAL_LED_MODE_BLINK)
    2098:	00044783          	lbu	a5,0(s0)
    209c:	8b89                	andi	a5,a5,2
    209e:	c3b1                	beqz	a5,20e2 <HalLedUpdate+0xec>
E:\Project\tp78\mounriver_project\RF_CH582M\obj/../HAL/LED.c:248
                            wait = (((uint32_t)pct * (uint32_t)sts->time) / 100);
    20a0:	00445703          	lhu	a4,4(s0)
    20a4:	03970733          	mul	a4,a4,s9
    20a8:	03575733          	divu	a4,a4,s5
    20ac:	01071793          	slli	a5,a4,0x10
E:\Project\tp78\mounriver_project\RF_CH582M\obj/../HAL/LED.c:249
                            sts->next = time + wait;
    20b0:	01377733          	and	a4,a4,s3
    20b4:	976a                	add	a4,a4,s10
E:\Project\tp78\mounriver_project\RF_CH582M\obj/../HAL/LED.c:248
                            wait = (((uint32_t)pct * (uint32_t)sts->time) / 100);
    20b6:	83c1                	srli	a5,a5,0x10
E:\Project\tp78\mounriver_project\RF_CH582M\obj/../HAL/LED.c:249
                            sts->next = time + wait;
    20b8:	c418                	sw	a4,8(s0)
E:\Project\tp78\mounriver_project\RF_CH582M\obj/../HAL/LED.c:265
                    if(!next || (wait && (wait < next)))
    20ba:	080c0363          	beqz	s8,2140 <HalLedUpdate+0x14a>
E:\Project\tp78\mounriver_project\RF_CH582M\obj/../HAL/LED.c:265 (discriminator 1)
    20be:	c3a1                	beqz	a5,20fe <HalLedUpdate+0x108>
    20c0:	873e                	mv	a4,a5
    20c2:	00fc7363          	bgeu	s8,a5,20c8 <HalLedUpdate+0xd2>
    20c6:	8762                	mv	a4,s8
    20c8:	01071c13          	slli	s8,a4,0x10
    20cc:	010c5c13          	srli	s8,s8,0x10
    20d0:	a03d                	j	20fe <HalLedUpdate+0x108>
E:\Project\tp78\mounriver_project\RF_CH582M\obj/../HAL/LED.c:243
                            sts->mode |= HAL_LED_MODE_ON;      /* Say it's on */
    20d2:	0016e693          	ori	a3,a3,1
E:\Project\tp78\mounriver_project\RF_CH582M\obj/../HAL/LED.c:244
                            HalLedOnOff(led, HAL_LED_MODE_ON); /* Turn it on */
    20d6:	4585                	li	a1,1
    20d8:	8526                	mv	a0,s1
E:\Project\tp78\mounriver_project\RF_CH582M\obj/../HAL/LED.c:243
                            sts->mode |= HAL_LED_MODE_ON;      /* Say it's on */
    20da:	00d40023          	sb	a3,0(s0)
E:\Project\tp78\mounriver_project\RF_CH582M\obj/../HAL/LED.c:244
                            HalLedOnOff(led, HAL_LED_MODE_ON); /* Turn it on */
    20de:	33c5                	jal	1ebe <HalLedOnOff>
    20e0:	bf65                	j	2098 <HalLedUpdate+0xa2>
E:\Project\tp78\mounriver_project\RF_CH582M\obj/../HAL/LED.c:256
                            HalLedSet(led, ((preBlinkState & led) != 0) ? HAL_LED_MODE_ON : HAL_LED_MODE_OFF);
    20e2:	000a4583          	lbu	a1,0(s4)
    20e6:	8526                	mv	a0,s1
    20e8:	8de5                	and	a1,a1,s1
    20ea:	00b035b3          	snez	a1,a1
    20ee:	3579                	jal	1f7c <HalLedSet>
E:\Project\tp78\mounriver_project\RF_CH582M\obj/../HAL/LED.c:258
                            preBlinkState &= (led ^ 0xFF);
    20f0:	000a4703          	lbu	a4,0(s4)
    20f4:	fff4c793          	not	a5,s1
    20f8:	8ff9                	and	a5,a5,a4
    20fa:	80f184a3          	sb	a5,-2039(gp) # 20001759 <preBlinkState>
E:\Project\tp78\mounriver_project\RF_CH582M\obj/../HAL/LED.c:270
                leds ^= led;
    20fe:	0124c933          	xor	s2,s1,s2
E:\Project\tp78\mounriver_project\RF_CH582M\obj/../HAL/LED.c:272
            led <<= 1;
    2102:	0486                	slli	s1,s1,0x1
    2104:	0ff4f493          	andi	s1,s1,255
E:\Project\tp78\mounriver_project\RF_CH582M\obj/../HAL/LED.c:273
            sts++;
    2108:	0431                	addi	s0,s0,12
E:\Project\tp78\mounriver_project\RF_CH582M\obj/../HAL/LED.c:214
        while(leds)
    210a:	f20916e3          	bnez	s2,2036 <HalLedUpdate+0x40>
E:\Project\tp78\mounriver_project\RF_CH582M\obj/../HAL/LED.c:275
        if(next)
    210e:	020c0b63          	beqz	s8,2144 <HalLedUpdate+0x14e>
E:\Project\tp78\mounriver_project\RF_CH582M\obj/../HAL/LED.c:280
}
    2112:	5422                	lw	s0,40(sp)
    2114:	50b2                	lw	ra,44(sp)
    2116:	5492                	lw	s1,36(sp)
    2118:	5902                	lw	s2,32(sp)
    211a:	49f2                	lw	s3,28(sp)
    211c:	4a62                	lw	s4,24(sp)
    211e:	4ad2                	lw	s5,20(sp)
    2120:	4b42                	lw	s6,16(sp)
    2122:	4bb2                	lw	s7,12(sp)
    2124:	4c92                	lw	s9,4(sp)
    2126:	4d02                	lw	s10,0(sp)
E:\Project\tp78\mounriver_project\RF_CH582M\obj/../HAL/LED.c:277
            tmos_start_task(halTaskID, LED_BLINK_EVENT, next); /* Schedule event */
    2128:	8662                	mv	a2,s8
E:\Project\tp78\mounriver_project\RF_CH582M\obj/../HAL/LED.c:280
}
    212a:	4c22                	lw	s8,8(sp)
E:\Project\tp78\mounriver_project\RF_CH582M\obj/../HAL/LED.c:277
            tmos_start_task(halTaskID, LED_BLINK_EVENT, next); /* Schedule event */
    212c:	8541c503          	lbu	a0,-1964(gp) # 200017a4 <halTaskID>
    2130:	4585                	li	a1,1
E:\Project\tp78\mounriver_project\RF_CH582M\obj/../HAL/LED.c:280
}
    2132:	6145                	addi	sp,sp,48
E:\Project\tp78\mounriver_project\RF_CH582M\obj/../HAL/LED.c:277
            tmos_start_task(halTaskID, LED_BLINK_EVENT, next); /* Schedule event */
    2134:	70d0006f          	j	3040 <tmos_start_task>
E:\Project\tp78\mounriver_project\RF_CH582M\obj/../HAL/LED.c:263
                        wait = sts->next - time; /* Time left */
    2138:	8f89                	sub	a5,a5,a0
    213a:	07c2                	slli	a5,a5,0x10
    213c:	83c1                	srli	a5,a5,0x10
    213e:	bfb5                	j	20ba <HalLedUpdate+0xc4>
    2140:	8c3e                	mv	s8,a5
    2142:	bf75                	j	20fe <HalLedUpdate+0x108>
E:\Project\tp78\mounriver_project\RF_CH582M\obj/../HAL/LED.c:280
}
    2144:	50b2                	lw	ra,44(sp)
    2146:	5422                	lw	s0,40(sp)
    2148:	5492                	lw	s1,36(sp)
    214a:	5902                	lw	s2,32(sp)
    214c:	49f2                	lw	s3,28(sp)
    214e:	4a62                	lw	s4,24(sp)
    2150:	4ad2                	lw	s5,20(sp)
    2152:	4b42                	lw	s6,16(sp)
    2154:	4bb2                	lw	s7,12(sp)
    2156:	4c22                	lw	s8,8(sp)
    2158:	4c92                	lw	s9,4(sp)
    215a:	4d02                	lw	s10,0(sp)
    215c:	6145                	addi	sp,sp,48
    215e:	8082                	ret
    2160:	8082                	ret

00002162 <Lib_Calibration_LSI>:
Lib_Calibration_LSI():
E:\Project\tp78\mounriver_project\RF_CH582M\obj/../HAL/MCU.c:28
 *
 * @return  None.
 */
void Lib_Calibration_LSI(void)
{
    Calibration_LSI(Level_64);
    2162:	4511                	li	a0,4
    2164:	ec2ff06f          	j	1826 <Calibration_LSI>

00002168 <Lib_Read_Flash>:
Lib_Read_Flash():
E:\Project\tp78\mounriver_project\RF_CH582M\obj/../HAL/MCU.c:44
 * @param   pBuf - Buffer to store read data
 *
 * @return  None.
 */
uint32_t Lib_Read_Flash(uint32_t addr, uint32_t num, uint32_t *pBuf)
{
    2168:	1141                	addi	sp,sp,-16
E:\Project\tp78\mounriver_project\RF_CH582M\obj/../HAL/MCU.c:45
    EEPROM_READ(addr, pBuf, num * 4);
    216a:	00259693          	slli	a3,a1,0x2
    216e:	85aa                	mv	a1,a0
    2170:	452d                	li	a0,11
E:\Project\tp78\mounriver_project\RF_CH582M\obj/../HAL/MCU.c:44
{
    2172:	c606                	sw	ra,12(sp)
E:\Project\tp78\mounriver_project\RF_CH582M\obj/../HAL/MCU.c:45
    EEPROM_READ(addr, pBuf, num * 4);
    2174:	1fffe097          	auipc	ra,0x1fffe
    2178:	2ce080e7          	jalr	718(ra) # 20000442 <FLASH_EEPROM_CMD>
E:\Project\tp78\mounriver_project\RF_CH582M\obj/../HAL/MCU.c:47
    return 0;
}
    217c:	40b2                	lw	ra,12(sp)
    217e:	4501                	li	a0,0
    2180:	0141                	addi	sp,sp,16
    2182:	8082                	ret

00002184 <Lib_Write_Flash>:
Lib_Write_Flash():
E:\Project\tp78\mounriver_project\RF_CH582M\obj/../HAL/MCU.c:61
 * @param   pBuf - Buffer with data to be written
 *
 * @return  None.
 */
uint32_t Lib_Write_Flash(uint32_t addr, uint32_t num, uint32_t *pBuf)
{
    2184:	1141                	addi	sp,sp,-16
    2186:	c226                	sw	s1,4(sp)
E:\Project\tp78\mounriver_project\RF_CH582M\obj/../HAL/MCU.c:62
    EEPROM_ERASE(addr, num * 4);
    2188:	00259493          	slli	s1,a1,0x2
E:\Project\tp78\mounriver_project\RF_CH582M\obj/../HAL/MCU.c:61
{
    218c:	c422                	sw	s0,8(sp)
    218e:	c04a                	sw	s2,0(sp)
    2190:	842a                	mv	s0,a0
    2192:	8932                	mv	s2,a2
E:\Project\tp78\mounriver_project\RF_CH582M\obj/../HAL/MCU.c:62
    EEPROM_ERASE(addr, num * 4);
    2194:	86a6                	mv	a3,s1
    2196:	85aa                	mv	a1,a0
    2198:	4601                	li	a2,0
    219a:	4525                	li	a0,9
E:\Project\tp78\mounriver_project\RF_CH582M\obj/../HAL/MCU.c:61
{
    219c:	c606                	sw	ra,12(sp)
E:\Project\tp78\mounriver_project\RF_CH582M\obj/../HAL/MCU.c:62
    EEPROM_ERASE(addr, num * 4);
    219e:	1fffe097          	auipc	ra,0x1fffe
    21a2:	2a4080e7          	jalr	676(ra) # 20000442 <FLASH_EEPROM_CMD>
E:\Project\tp78\mounriver_project\RF_CH582M\obj/../HAL/MCU.c:63
    EEPROM_WRITE(addr, pBuf, num * 4);
    21a6:	86a6                	mv	a3,s1
    21a8:	864a                	mv	a2,s2
    21aa:	85a2                	mv	a1,s0
    21ac:	4529                	li	a0,10
    21ae:	1fffe097          	auipc	ra,0x1fffe
    21b2:	294080e7          	jalr	660(ra) # 20000442 <FLASH_EEPROM_CMD>
E:\Project\tp78\mounriver_project\RF_CH582M\obj/../HAL/MCU.c:65
    return 0;
}
    21b6:	40b2                	lw	ra,12(sp)
    21b8:	4422                	lw	s0,8(sp)
    21ba:	4492                	lw	s1,4(sp)
    21bc:	4902                	lw	s2,0(sp)
    21be:	4501                	li	a0,0
    21c0:	0141                	addi	sp,sp,16
    21c2:	8082                	ret

000021c4 <HAL_GetInterTempValue>:
HAL_GetInterTempValue():
E:\Project\tp78\mounriver_project\RF_CH582M\obj/../HAL/MCU.c:239
 * @brief   获取内部温感采样值，如果使用了ADC中断采样，需在此函数中暂时屏蔽中断.
 *
 * @return  内部温感采样值.
 */
uint16_t HAL_GetInterTempValue(void)
{
    21c4:	1101                	addi	sp,sp,-32
    21c6:	cc22                	sw	s0,24(sp)
    21c8:	ce06                	sw	ra,28(sp)
E:\Project\tp78\mounriver_project\RF_CH582M\obj/../HAL/MCU.c:243
    uint8_t  sensor, channel, config, tkey_cfg;
    uint16_t adc_data;

    tkey_cfg = R8_TKEY_CFG;
    21ca:	40001437          	lui	s0,0x40001
E:\Project\tp78\mounriver_project\RF_CH582M\obj/../HAL/MCU.c:239
{
    21ce:	ca26                	sw	s1,20(sp)
    21d0:	c84a                	sw	s2,16(sp)
    21d2:	c64e                	sw	s3,12(sp)
    21d4:	c452                	sw	s4,8(sp)
E:\Project\tp78\mounriver_project\RF_CH582M\obj/../HAL/MCU.c:243
    tkey_cfg = R8_TKEY_CFG;
    21d6:	05744483          	lbu	s1,87(s0) # 40001057 <_eusrstack+0x1fff9057>
E:\Project\tp78\mounriver_project\RF_CH582M\obj/../HAL/MCU.c:244
    sensor = R8_TEM_SENSOR;
    21da:	05b44a03          	lbu	s4,91(s0)
E:\Project\tp78\mounriver_project\RF_CH582M\obj/../HAL/MCU.c:245
    channel = R8_ADC_CHANNEL;
    21de:	05844983          	lbu	s3,88(s0)
E:\Project\tp78\mounriver_project\RF_CH582M\obj/../HAL/MCU.c:246
    config = R8_ADC_CFG;
    21e2:	05944903          	lbu	s2,89(s0)
E:\Project\tp78\mounriver_project\RF_CH582M\obj/../HAL/MCU.c:247
    ADC_InterTSSampInit();
    21e6:	e18ff0ef          	jal	ra,17fe <ADC_InterTSSampInit>
E:\Project\tp78\mounriver_project\RF_CH582M\obj/../HAL/MCU.c:248
    R8_ADC_CONVERT |= RB_ADC_START;
    21ea:	05a44783          	lbu	a5,90(s0)
E:\Project\tp78\mounriver_project\RF_CH582M\obj/../HAL/MCU.c:243
    tkey_cfg = R8_TKEY_CFG;
    21ee:	0ff4f493          	andi	s1,s1,255
E:\Project\tp78\mounriver_project\RF_CH582M\obj/../HAL/MCU.c:244
    sensor = R8_TEM_SENSOR;
    21f2:	0ffa7a13          	andi	s4,s4,255
E:\Project\tp78\mounriver_project\RF_CH582M\obj/../HAL/MCU.c:248
    R8_ADC_CONVERT |= RB_ADC_START;
    21f6:	0017e793          	ori	a5,a5,1
    21fa:	04f40d23          	sb	a5,90(s0)
E:\Project\tp78\mounriver_project\RF_CH582M\obj/../HAL/MCU.c:245
    channel = R8_ADC_CHANNEL;
    21fe:	0ff9f993          	andi	s3,s3,255
E:\Project\tp78\mounriver_project\RF_CH582M\obj/../HAL/MCU.c:246
    config = R8_ADC_CFG;
    2202:	0ff97913          	andi	s2,s2,255
E:\Project\tp78\mounriver_project\RF_CH582M\obj/../HAL/MCU.c:249
    while(R8_ADC_CONVERT & RB_ADC_START);
    2206:	400017b7          	lui	a5,0x40001
E:\Project\tp78\mounriver_project\RF_CH582M\obj/../HAL/MCU.c:249 (discriminator 1)
    220a:	05a7c703          	lbu	a4,90(a5) # 4000105a <_eusrstack+0x1fff905a>
    220e:	8b05                	andi	a4,a4,1
    2210:	ff6d                	bnez	a4,220a <HAL_GetInterTempValue+0x46>
E:\Project\tp78\mounriver_project\RF_CH582M\obj/../HAL/MCU.c:250
    adc_data = R16_ADC_DATA;
    2212:	05c7d503          	lhu	a0,92(a5)
E:\Project\tp78\mounriver_project\RF_CH582M\obj/../HAL/MCU.c:251
    R8_TEM_SENSOR = sensor;
    2216:	05478da3          	sb	s4,91(a5)
E:\Project\tp78\mounriver_project\RF_CH582M\obj/../HAL/MCU.c:252
    R8_ADC_CHANNEL = channel;
    221a:	05378c23          	sb	s3,88(a5)
E:\Project\tp78\mounriver_project\RF_CH582M\obj/../HAL/MCU.c:253
    R8_ADC_CFG = config;
    221e:	05278ca3          	sb	s2,89(a5)
E:\Project\tp78\mounriver_project\RF_CH582M\obj/../HAL/MCU.c:254
    R8_TKEY_CFG = tkey_cfg;
    2222:	04978ba3          	sb	s1,87(a5)
E:\Project\tp78\mounriver_project\RF_CH582M\obj/../HAL/MCU.c:256
    return (adc_data);
}
    2226:	40f2                	lw	ra,28(sp)
    2228:	4462                	lw	s0,24(sp)
    222a:	44d2                	lw	s1,20(sp)
    222c:	4942                	lw	s2,16(sp)
    222e:	49b2                	lw	s3,12(sp)
    2230:	4a22                	lw	s4,8(sp)
    2232:	6105                	addi	sp,sp,32
    2234:	8082                	ret

00002236 <HAL_ProcessEvent>:
HAL_ProcessEvent():
E:\Project\tp78\mounriver_project\RF_CH582M\obj/../HAL/MCU.c:155
{
    2236:	1141                	addi	sp,sp,-16
E:\Project\tp78\mounriver_project\RF_CH582M\obj/../HAL/MCU.c:158
    if(events & SYS_EVENT_MSG)
    2238:	01059793          	slli	a5,a1,0x10
E:\Project\tp78\mounriver_project\RF_CH582M\obj/../HAL/MCU.c:155
{
    223c:	c422                	sw	s0,8(sp)
    223e:	c606                	sw	ra,12(sp)
E:\Project\tp78\mounriver_project\RF_CH582M\obj/../HAL/MCU.c:158
    if(events & SYS_EVENT_MSG)
    2240:	87c1                	srai	a5,a5,0x10
E:\Project\tp78\mounriver_project\RF_CH582M\obj/../HAL/MCU.c:155
{
    2242:	842e                	mv	s0,a1
E:\Project\tp78\mounriver_project\RF_CH582M\obj/../HAL/MCU.c:158
    if(events & SYS_EVENT_MSG)
    2244:	0007da63          	bgez	a5,2258 <HAL_ProcessEvent+0x22>
E:\Project\tp78\mounriver_project\RF_CH582M\obj/../HAL/MCU.c:160
        msgPtr = tmos_msg_receive(task_id);
    2248:	291000ef          	jal	ra,2cd8 <tmos_msg_receive>
E:\Project\tp78\mounriver_project\RF_CH582M\obj/../HAL/MCU.c:161
        if(msgPtr)
    224c:	c119                	beqz	a0,2252 <HAL_ProcessEvent+0x1c>
E:\Project\tp78\mounriver_project\RF_CH582M\obj/../HAL/MCU.c:164
            tmos_msg_deallocate(msgPtr);
    224e:	25f000ef          	jal	ra,2cac <tmos_msg_deallocate>
E:\Project\tp78\mounriver_project\RF_CH582M\obj/../HAL/MCU.c:166
        return events ^ SYS_EVENT_MSG;
    2252:	6521                	lui	a0,0x8
E:\Project\tp78\mounriver_project\RF_CH582M\obj/../HAL/MCU.c:198
        return events ^ HAL_TEST_EVENT;
    2254:	8d21                	xor	a0,a0,s0
    2256:	a039                	j	2264 <HAL_ProcessEvent+0x2e>
E:\Project\tp78\mounriver_project\RF_CH582M\obj/../HAL/MCU.c:168
    if(events & LED_BLINK_EVENT)
    2258:	0015f793          	andi	a5,a1,1
    225c:	cb81                	beqz	a5,226c <HAL_ProcessEvent+0x36>
E:\Project\tp78\mounriver_project\RF_CH582M\obj/../HAL/MCU.c:171
        HalLedUpdate();
    225e:	3b61                	jal	1ff6 <HalLedUpdate>
E:\Project\tp78\mounriver_project\RF_CH582M\obj/../HAL/MCU.c:173
        return events ^ LED_BLINK_EVENT;
    2260:	00144513          	xori	a0,s0,1
E:\Project\tp78\mounriver_project\RF_CH582M\obj/../HAL/MCU.c:201
}
    2264:	40b2                	lw	ra,12(sp)
    2266:	4422                	lw	s0,8(sp)
    2268:	0141                	addi	sp,sp,16
    226a:	8082                	ret
E:\Project\tp78\mounriver_project\RF_CH582M\obj/../HAL/MCU.c:183
    if(events & HAL_REG_INIT_EVENT)
    226c:	01259793          	slli	a5,a1,0x12
    2270:	0207d063          	bgez	a5,2290 <HAL_ProcessEvent+0x5a>
E:\Project\tp78\mounriver_project\RF_CH582M\obj/../HAL/MCU.c:186
        BLE_RegInit();                                                  // 校准RF
    2274:	349010ef          	jal	ra,3dbc <BLE_RegInit>
E:\Project\tp78\mounriver_project\RF_CH582M\obj/../HAL/MCU.c:188
        Lib_Calibration_LSI(); // 校准内部RC
    2278:	35ed                	jal	2162 <Lib_Calibration_LSI>
E:\Project\tp78\mounriver_project\RF_CH582M\obj/../HAL/MCU.c:190
        tmos_start_task(halTaskID, HAL_REG_INIT_EVENT, MS1_TO_SYSTEM_TIME(BLE_CALIBRATION_PERIOD));
    227a:	0002f637          	lui	a2,0x2f
    227e:	e0060613          	addi	a2,a2,-512 # 2ee00 <_data_lma+0x288a8>
    2282:	6589                	lui	a1,0x2
    2284:	8541c503          	lbu	a0,-1964(gp) # 200017a4 <halTaskID>
    2288:	5b9000ef          	jal	ra,3040 <tmos_start_task>
E:\Project\tp78\mounriver_project\RF_CH582M\obj/../HAL/MCU.c:191
        return events ^ HAL_REG_INIT_EVENT;
    228c:	6509                	lui	a0,0x2
    228e:	b7d9                	j	2254 <HAL_ProcessEvent+0x1e>
E:\Project\tp78\mounriver_project\RF_CH582M\obj/../HAL/MCU.c:194
    if(events & HAL_TEST_EVENT)
    2290:	01159793          	slli	a5,a1,0x11
E:\Project\tp78\mounriver_project\RF_CH582M\obj/../HAL/MCU.c:200
    return 0;
    2294:	4501                	li	a0,0
E:\Project\tp78\mounriver_project\RF_CH582M\obj/../HAL/MCU.c:194
    if(events & HAL_TEST_EVENT)
    2296:	fc07d7e3          	bgez	a5,2264 <HAL_ProcessEvent+0x2e>
E:\Project\tp78\mounriver_project\RF_CH582M\obj/../HAL/MCU.c:197
        tmos_start_task(halTaskID, HAL_TEST_EVENT, MS1_TO_SYSTEM_TIME(1000));
    229a:	64000613          	li	a2,1600
    229e:	6591                	lui	a1,0x4
    22a0:	8541c503          	lbu	a0,-1964(gp) # 200017a4 <halTaskID>
    22a4:	59d000ef          	jal	ra,3040 <tmos_start_task>
E:\Project\tp78\mounriver_project\RF_CH582M\obj/../HAL/MCU.c:198
        return events ^ HAL_TEST_EVENT;
    22a8:	6511                	lui	a0,0x4
    22aa:	b76d                	j	2254 <HAL_ProcessEvent+0x1e>

000022ac <CH58X_BLEInit>:
CH58X_BLEInit():
E:\Project\tp78\mounriver_project\RF_CH582M\obj/../HAL/MCU.c:78
{
    22ac:	711d                	addi	sp,sp,-96
E:\Project\tp78\mounriver_project\RF_CH582M\obj/../HAL/MCU.c:81
    if(tmos_memcmp(VER_LIB, VER_FILE, strlen(VER_FILE)) == FALSE)
    22ae:	4649                	li	a2,18
    22b0:	00004597          	auipc	a1,0x4
    22b4:	11c58593          	addi	a1,a1,284 # 63cc <memcpy+0xee>
    22b8:	00004517          	auipc	a0,0x4
    22bc:	28850513          	addi	a0,a0,648 # 6540 <VER_LIB>
E:\Project\tp78\mounriver_project\RF_CH582M\obj/../HAL/MCU.c:78
{
    22c0:	ce86                	sw	ra,92(sp)
E:\Project\tp78\mounriver_project\RF_CH582M\obj/../HAL/MCU.c:81
    if(tmos_memcmp(VER_LIB, VER_FILE, strlen(VER_FILE)) == FALSE)
    22c2:	1fffe097          	auipc	ra,0x1fffe
    22c6:	57a080e7          	jalr	1402(ra) # 2000083c <tmos_memcmp>
    22ca:	e111                	bnez	a0,22ce <CH58X_BLEInit+0x22>
E:\Project\tp78\mounriver_project\RF_CH582M\obj/../HAL/MCU.c:84 (discriminator 1)
        while(1);
    22cc:	a001                	j	22cc <CH58X_BLEInit+0x20>
SysTick_Config():
E:\Project\tp78\mounriver_project\RF_CH582M\RVMSIS/core_riscv.h:365
RV_STATIC_INLINE uint32_t SysTick_Config(uint64_t ticks)
{
    if((ticks - 1) > SysTick_LOAD_RELOAD_Msk)
        return (1); /* Reload value impossible */

    SysTick->CMP = ticks - 1; /* set reload register */
    22ce:	e000f6b7          	lui	a3,0xe000f
    22d2:	5779                	li	a4,-2
    22d4:	ca98                	sw	a4,16(a3)
    22d6:	57fd                	li	a5,-1
    22d8:	cadc                	sw	a5,20(a3)
PFIC_EnableIRQ():
E:\Project\tp78\mounriver_project\RF_CH582M\RVMSIS/core_riscv.h:110
    PFIC->IENR[((uint32_t)(IRQn) >> 5)] = (1 << ((uint32_t)(IRQn)&0x1F));
    22da:	6705                	lui	a4,0x1
    22dc:	e000e7b7          	lui	a5,0xe000e
    22e0:	10e7a023          	sw	a4,256(a5) # e000e100 <_eusrstack+0xc0006100>
SysTick_Config():
E:\Project\tp78\mounriver_project\RF_CH582M\RVMSIS/core_riscv.h:367
    PFIC_EnableIRQ(SysTick_IRQn);
    SysTick->CTLR = SysTick_CTLR_INIT |
    22e4:	02f00613          	li	a2,47
    22e8:	c290                	sw	a2,0(a3)
PFIC_DisableIRQ():
E:\Project\tp78\mounriver_project\RF_CH582M\RVMSIS/core_riscv.h:122
    PFIC->IRER[((uint32_t)(IRQn) >> 5)] = (1 << ((uint32_t)(IRQn)&0x1F));
    22ea:	18e7a023          	sw	a4,384(a5)
E:\Project\tp78\mounriver_project\RF_CH582M\RVMSIS/core_riscv.h:123
    __nop();
    22ee:	0001                	nop
E:\Project\tp78\mounriver_project\RF_CH582M\RVMSIS/core_riscv.h:124
    __nop();
    22f0:	0001                	nop
CH58X_BLEInit():
E:\Project\tp78\mounriver_project\RF_CH582M\obj/../HAL/MCU.c:89
    tmos_memset(&cfg, 0, sizeof(bleConfig_t));
    22f2:	03c00613          	li	a2,60
    22f6:	4581                	li	a1,0
    22f8:	0848                	addi	a0,sp,20
    22fa:	1fffe097          	auipc	ra,0x1fffe
    22fe:	4ea080e7          	jalr	1258(ra) # 200007e4 <tmos_memset>
E:\Project\tp78\mounriver_project\RF_CH582M\obj/../HAL/MCU.c:90
    cfg.MEMAddr = (uint32_t)MEM_BUF;
    2302:	1ffff797          	auipc	a5,0x1ffff
    2306:	70678793          	addi	a5,a5,1798 # 20001a08 <MEM_BUF>
    230a:	ca3e                	sw	a5,20(sp)
E:\Project\tp78\mounriver_project\RF_CH582M\obj/../HAL/MCU.c:91
    cfg.MEMLen = (uint32_t)BLE_MEMHEAP_SIZE;
    230c:	6789                	lui	a5,0x2
    230e:	80078793          	addi	a5,a5,-2048 # 1800 <ADC_InterTSSampInit+0x2>
    2312:	00f11c23          	sh	a5,24(sp)
E:\Project\tp78\mounriver_project\RF_CH582M\obj/../HAL/MCU.c:92
    cfg.BufMaxLen = (uint32_t)BLE_BUFF_MAX_LEN;
    2316:	47ed                	li	a5,27
    2318:	02f11223          	sh	a5,36(sp)
E:\Project\tp78\mounriver_project\RF_CH582M\obj/../HAL/MCU.c:93
    cfg.BufNumber = (uint32_t)BLE_BUFF_NUM;
    231c:	4795                	li	a5,5
    231e:	02f101a3          	sb	a5,35(sp)
E:\Project\tp78\mounriver_project\RF_CH582M\obj/../HAL/MCU.c:94
    cfg.TxNumEvent = (uint32_t)BLE_TX_NUM_EVENT;
    2322:	4785                	li	a5,1
    2324:	02f10323          	sb	a5,38(sp)
E:\Project\tp78\mounriver_project\RF_CH582M\obj/../HAL/MCU.c:95
    cfg.TxPower = (uint32_t)BLE_TX_POWER;
    2328:	47b5                	li	a5,13
    232a:	02f10423          	sb	a5,40(sp)
E:\Project\tp78\mounriver_project\RF_CH582M\obj/../HAL/MCU.c:97
    cfg.SNVAddr = (uint32_t)BLE_SNV_ADDR;
    232e:	67a1                	lui	a5,0x8
    2330:	e0078793          	addi	a5,a5,-512 # 7e00 <_data_lma+0x18a8>
    2334:	ce3e                	sw	a5,28(sp)
E:\Project\tp78\mounriver_project\RF_CH582M\obj/../HAL/MCU.c:98
    cfg.readFlashCB = Lib_Read_Flash;
    2336:	00000797          	auipc	a5,0x0
    233a:	e3278793          	addi	a5,a5,-462 # 2168 <Lib_Read_Flash>
    233e:	c4be                	sw	a5,72(sp)
E:\Project\tp78\mounriver_project\RF_CH582M\obj/../HAL/MCU.c:99
    cfg.writeFlashCB = Lib_Write_Flash;
    2340:	00000797          	auipc	a5,0x0
    2344:	e4478793          	addi	a5,a5,-444 # 2184 <Lib_Write_Flash>
    2348:	c6be                	sw	a5,76(sp)
E:\Project\tp78\mounriver_project\RF_CH582M\obj/../HAL/MCU.c:102
    cfg.SelRTCClock = (uint32_t)CLK_OSC32K;
    234a:	6785                	lui	a5,0x1
    234c:	d0178793          	addi	a5,a5,-767 # d01 <_einit+0xcfd>
    2350:	02f11523          	sh	a5,42(sp)
E:\Project\tp78\mounriver_project\RF_CH582M\obj/../HAL/MCU.c:105
    cfg.srandCB = SYS_GetSysTickCnt;
    2354:	00000797          	auipc	a5,0x0
    2358:	9ee78793          	addi	a5,a5,-1554 # 1d42 <SYS_GetSysTickCnt>
    235c:	da3e                	sw	a5,52(sp)
E:\Project\tp78\mounriver_project\RF_CH582M\obj/../HAL/MCU.c:124
        GetMACAddress(MacAddr);
    235e:	0007f5b7          	lui	a1,0x7f
E:\Project\tp78\mounriver_project\RF_CH582M\obj/../HAL/MCU.c:107
    cfg.tsCB = HAL_GetInterTempValue; // 根据温度变化校准RF和内部RC( 大于7摄氏度 )
    2362:	00000797          	auipc	a5,0x0
    2366:	e6278793          	addi	a5,a5,-414 # 21c4 <HAL_GetInterTempValue>
    236a:	de3e                	sw	a5,60(sp)
E:\Project\tp78\mounriver_project\RF_CH582M\obj/../HAL/MCU.c:124
        GetMACAddress(MacAddr);
    236c:	4681                	li	a3,0
E:\Project\tp78\mounriver_project\RF_CH582M\obj/../HAL/MCU.c:109
    cfg.rcCB = Lib_Calibration_LSI; // 内部32K时钟校准
    236e:	00000797          	auipc	a5,0x0
    2372:	df478793          	addi	a5,a5,-524 # 2162 <Lib_Calibration_LSI>
E:\Project\tp78\mounriver_project\RF_CH582M\obj/../HAL/MCU.c:124
        GetMACAddress(MacAddr);
    2376:	0070                	addi	a2,sp,12
    2378:	05e1                	addi	a1,a1,24
    237a:	4519                	li	a0,6
E:\Project\tp78\mounriver_project\RF_CH582M\obj/../HAL/MCU.c:109
    cfg.rcCB = Lib_Calibration_LSI; // 内部32K时钟校准
    237c:	c0be                	sw	a5,64(sp)
E:\Project\tp78\mounriver_project\RF_CH582M\obj/../HAL/MCU.c:124
        GetMACAddress(MacAddr);
    237e:	1fffe097          	auipc	ra,0x1fffe
    2382:	0c4080e7          	jalr	196(ra) # 20000442 <FLASH_EEPROM_CMD>
E:\Project\tp78\mounriver_project\RF_CH582M\obj/../HAL/MCU.c:125
        for(i = 0; i < 6; i++)
    2386:	0858                	addi	a4,sp,20
E:\Project\tp78\mounriver_project\RF_CH582M\obj/../HAL/MCU.c:124
        GetMACAddress(MacAddr);
    2388:	4781                	li	a5,0
E:\Project\tp78\mounriver_project\RF_CH582M\obj/../HAL/MCU.c:125
        for(i = 0; i < 6; i++)
    238a:	4699                	li	a3,6
E:\Project\tp78\mounriver_project\RF_CH582M\obj/../HAL/MCU.c:127 (discriminator 3)
            cfg.MacAddr[i] = MacAddr[i]; // 使用芯片mac地址
    238c:	0070                	addi	a2,sp,12
    238e:	963e                	add	a2,a2,a5
    2390:	00064603          	lbu	a2,0(a2)
    2394:	0785                	addi	a5,a5,1
    2396:	0705                	addi	a4,a4,1
    2398:	00c70ca3          	sb	a2,25(a4) # 1019 <_einit+0x1015>
E:\Project\tp78\mounriver_project\RF_CH582M\obj/../HAL/MCU.c:125 (discriminator 3)
        for(i = 0; i < 6; i++)
    239c:	fed798e3          	bne	a5,a3,238c <CH58X_BLEInit+0xe0>
E:\Project\tp78\mounriver_project\RF_CH582M\obj/../HAL/MCU.c:131
    if(!cfg.MEMAddr || cfg.MEMLen < 4 * 1024)
    23a0:	47d2                	lw	a5,20(sp)
    23a2:	c791                	beqz	a5,23ae <CH58X_BLEInit+0x102>
E:\Project\tp78\mounriver_project\RF_CH582M\obj/../HAL/MCU.c:131 (discriminator 1)
    23a4:	01815703          	lhu	a4,24(sp)
    23a8:	6785                	lui	a5,0x1
    23aa:	00f77363          	bgeu	a4,a5,23b0 <CH58X_BLEInit+0x104>
E:\Project\tp78\mounriver_project\RF_CH582M\obj/../HAL/MCU.c:133 (discriminator 2)
        while(1);
    23ae:	a001                	j	23ae <CH58X_BLEInit+0x102>
E:\Project\tp78\mounriver_project\RF_CH582M\obj/../HAL/MCU.c:135
    i = BLE_LibInit(&cfg);
    23b0:	0848                	addi	a0,sp,20
    23b2:	723000ef          	jal	ra,32d4 <BLE_LibInit>
E:\Project\tp78\mounriver_project\RF_CH582M\obj/../HAL/MCU.c:136
    if(i)
    23b6:	c111                	beqz	a0,23ba <CH58X_BLEInit+0x10e>
E:\Project\tp78\mounriver_project\RF_CH582M\obj/../HAL/MCU.c:139 (discriminator 3)
        while(1);
    23b8:	a001                	j	23b8 <CH58X_BLEInit+0x10c>
E:\Project\tp78\mounriver_project\RF_CH582M\obj/../HAL/MCU.c:141
}
    23ba:	40f6                	lw	ra,92(sp)
    23bc:	6125                	addi	sp,sp,96
    23be:	8082                	ret

000023c0 <HAL_Init>:
HAL_Init():
E:\Project\tp78\mounriver_project\RF_CH582M\obj/../HAL/MCU.c:213
{
    23c0:	1141                	addi	sp,sp,-16
E:\Project\tp78\mounriver_project\RF_CH582M\obj/../HAL/MCU.c:214
    halTaskID = TMOS_ProcessEventRegister(HAL_ProcessEvent);
    23c2:	00000517          	auipc	a0,0x0
    23c6:	e7450513          	addi	a0,a0,-396 # 2236 <HAL_ProcessEvent>
E:\Project\tp78\mounriver_project\RF_CH582M\obj/../HAL/MCU.c:213
{
    23ca:	c606                	sw	ra,12(sp)
    23cc:	c422                	sw	s0,8(sp)
E:\Project\tp78\mounriver_project\RF_CH582M\obj/../HAL/MCU.c:214
    halTaskID = TMOS_ProcessEventRegister(HAL_ProcessEvent);
    23ce:	6cb000ef          	jal	ra,3298 <TMOS_ProcessEventRegister>
    23d2:	85418413          	addi	s0,gp,-1964 # 200017a4 <halTaskID>
    23d6:	00a40023          	sb	a0,0(s0)
E:\Project\tp78\mounriver_project\RF_CH582M\obj/../HAL/MCU.c:215
    HAL_TimeInit();
    23da:	2831                	jal	23f6 <HAL_TimeInit>
E:\Project\tp78\mounriver_project\RF_CH582M\obj/../HAL/MCU.c:220
    HAL_LedInit();
    23dc:	36d5                	jal	1fc0 <HAL_LedInit>
E:\Project\tp78\mounriver_project\RF_CH582M\obj/../HAL/MCU.c:226
    tmos_start_task(halTaskID, HAL_REG_INIT_EVENT, MS1_TO_SYSTEM_TIME(BLE_CALIBRATION_PERIOD)); // 添加校准任务，单次校准耗时小于10ms
    23de:	00044503          	lbu	a0,0(s0)
E:\Project\tp78\mounriver_project\RF_CH582M\obj/../HAL/MCU.c:229
}
    23e2:	4422                	lw	s0,8(sp)
    23e4:	40b2                	lw	ra,12(sp)
E:\Project\tp78\mounriver_project\RF_CH582M\obj/../HAL/MCU.c:226
    tmos_start_task(halTaskID, HAL_REG_INIT_EVENT, MS1_TO_SYSTEM_TIME(BLE_CALIBRATION_PERIOD)); // 添加校准任务，单次校准耗时小于10ms
    23e6:	0002f637          	lui	a2,0x2f
    23ea:	e0060613          	addi	a2,a2,-512 # 2ee00 <_data_lma+0x288a8>
    23ee:	6589                	lui	a1,0x2
E:\Project\tp78\mounriver_project\RF_CH582M\obj/../HAL/MCU.c:229
}
    23f0:	0141                	addi	sp,sp,16
E:\Project\tp78\mounriver_project\RF_CH582M\obj/../HAL/MCU.c:226
    tmos_start_task(halTaskID, HAL_REG_INIT_EVENT, MS1_TO_SYSTEM_TIME(BLE_CALIBRATION_PERIOD)); // 添加校准任务，单次校准耗时小于10ms
    23f2:	44f0006f          	j	3040 <tmos_start_task>

000023f6 <HAL_TimeInit>:
HAL_TimeInit():
E:\Project\tp78\mounriver_project\RF_CH582M\obj/../HAL/RTC.c:72
 * @param   None.
 *
 * @return  None.
 */
void HAL_TimeInit(void)
{
    23f6:	1141                	addi	sp,sp,-16
    23f8:	c606                	sw	ra,12(sp)
E:\Project\tp78\mounriver_project\RF_CH582M\obj/../HAL/RTC.c:74
#if(CLK_OSC32K)
    R8_SAFE_ACCESS_SIG = SAFE_ACCESS_SIG1;
    23fa:	400017b7          	lui	a5,0x40001
    23fe:	05700713          	li	a4,87
    2402:	04e78023          	sb	a4,64(a5) # 40001040 <_eusrstack+0x1fff9040>
E:\Project\tp78\mounriver_project\RF_CH582M\obj/../HAL/RTC.c:75
    R8_SAFE_ACCESS_SIG = SAFE_ACCESS_SIG2;
    2406:	fa800713          	li	a4,-88
    240a:	04e78023          	sb	a4,64(a5)
E:\Project\tp78\mounriver_project\RF_CH582M\obj/../HAL/RTC.c:76
    SAFEOPERATE;
    240e:	0001                	nop
    2410:	0001                	nop
E:\Project\tp78\mounriver_project\RF_CH582M\obj/../HAL/RTC.c:77
    R8_CK32K_CONFIG &= ~(RB_CLK_OSC32K_XT | RB_CLK_XT32K_PON);
    2412:	02f7c703          	lbu	a4,47(a5)
    2416:	0fa77713          	andi	a4,a4,250
    241a:	02e787a3          	sb	a4,47(a5)
E:\Project\tp78\mounriver_project\RF_CH582M\obj/../HAL/RTC.c:78
    R8_CK32K_CONFIG |= RB_CLK_INT32K_PON;
    241e:	02f7c703          	lbu	a4,47(a5)
    2422:	00276713          	ori	a4,a4,2
    2426:	02e787a3          	sb	a4,47(a5)
E:\Project\tp78\mounriver_project\RF_CH582M\obj/../HAL/RTC.c:79
    R8_SAFE_ACCESS_SIG = 0;
    242a:	04078023          	sb	zero,64(a5)
E:\Project\tp78\mounriver_project\RF_CH582M\obj/../HAL/RTC.c:80
    Lib_Calibration_LSI();
    242e:	3b15                	jal	2162 <Lib_Calibration_LSI>
E:\Project\tp78\mounriver_project\RF_CH582M\obj/../HAL/RTC.c:88
    R8_SAFE_ACCESS_SIG = SAFE_ACCESS_SIG2;
    SAFEOPERATE;
    R8_CK32K_CONFIG |= RB_CLK_OSC32K_XT | RB_CLK_INT32K_PON | RB_CLK_XT32K_PON;
    R8_SAFE_ACCESS_SIG = 0;
#endif
    RTC_InitTime(2020, 1, 1, 0, 0, 0); //RTC时钟初始化当前时间
    2430:	7e400513          	li	a0,2020
    2434:	4781                	li	a5,0
    2436:	4701                	li	a4,0
    2438:	4681                	li	a3,0
    243a:	4605                	li	a2,1
    243c:	4585                	li	a1,1
    243e:	e8eff0ef          	jal	ra,1acc <RTC_InitTime>
E:\Project\tp78\mounriver_project\RF_CH582M\obj/../HAL/RTC.c:90
    TMOS_TimerInit(0);
}
    2442:	40b2                	lw	ra,12(sp)
E:\Project\tp78\mounriver_project\RF_CH582M\obj/../HAL/RTC.c:89
    TMOS_TimerInit(0);
    2444:	4501                	li	a0,0
E:\Project\tp78\mounriver_project\RF_CH582M\obj/../HAL/RTC.c:90
}
    2446:	0141                	addi	sp,sp,16
E:\Project\tp78\mounriver_project\RF_CH582M\obj/../HAL/RTC.c:89
    TMOS_TimerInit(0);
    2448:	0ba0106f          	j	3502 <TMOS_TimerInit>

0000244c <USB_ProcessEvent>:
USB_ProcessEvent():
E:\Project\tp78\mounriver_project\RF_CH582M\obj/../HAL/USB.c:83
  if ( events & START_USB_EVENT )
    244c:	0085f793          	andi	a5,a1,8
    2450:	cb91                	beqz	a5,2464 <USB_ProcessEvent+0x18>
PFIC_EnableIRQ():
E:\Project\tp78\mounriver_project\RF_CH582M\RVMSIS/core_riscv.h:110
    PFIC->IENR[((uint32_t)(IRQn) >> 5)] = (1 << ((uint32_t)(IRQn)&0x1F));
    2452:	e000e7b7          	lui	a5,0xe000e
    2456:	00400737          	lui	a4,0x400
    245a:	10e7a023          	sw	a4,256(a5) # e000e100 <_eusrstack+0xc0006100>
USB_ProcessEvent():
E:\Project\tp78\mounriver_project\RF_CH582M\obj/../HAL/USB.c:86
    return events ^ START_USB_EVENT;
    245e:	0085c513          	xori	a0,a1,8
E:\Project\tp78\mounriver_project\RF_CH582M\obj/../HAL/USB.c:121
}
    2462:	8082                	ret
E:\Project\tp78\mounriver_project\RF_CH582M\obj/../HAL/USB.c:82
{
    2464:	1141                	addi	sp,sp,-16
    2466:	c422                	sw	s0,8(sp)
    2468:	c606                	sw	ra,12(sp)
E:\Project\tp78\mounriver_project\RF_CH582M\obj/../HAL/USB.c:89
  if ( events & USB_MOUSE_EVENT )
    246a:	0015f793          	andi	a5,a1,1
    246e:	842e                	mv	s0,a1
    2470:	c39d                	beqz	a5,2496 <USB_ProcessEvent+0x4a>
E:\Project\tp78\mounriver_project\RF_CH582M\obj/../HAL/USB.c:91
    memcpy(pEP2_IN_DataBuf, &HID_dat.Mouse[0], 4);
    2472:	84418793          	addi	a5,gp,-1980 # 20001794 <pEP2_RAM_Addr>
    2476:	4388                	lw	a0,0(a5)
    2478:	4611                	li	a2,4
    247a:	9a918593          	addi	a1,gp,-1623 # 200018f9 <HID_dat+0x1>
    247e:	04050513          	addi	a0,a0,64
    2482:	65d030ef          	jal	ra,62de <memcpy>
E:\Project\tp78\mounriver_project\RF_CH582M\obj/../HAL/USB.c:92
    DevEP2_IN_Deal( 4 );
    2486:	4511                	li	a0,4
    2488:	3aa1                	jal	1de0 <DevEP2_IN_Deal>
E:\Project\tp78\mounriver_project\RF_CH582M\obj/../HAL/USB.c:93
    return events ^ USB_MOUSE_EVENT;
    248a:	00144513          	xori	a0,s0,1
E:\Project\tp78\mounriver_project\RF_CH582M\obj/../HAL/USB.c:121
}
    248e:	40b2                	lw	ra,12(sp)
    2490:	4422                	lw	s0,8(sp)
    2492:	0141                	addi	sp,sp,16
    2494:	8082                	ret
E:\Project\tp78\mounriver_project\RF_CH582M\obj/../HAL/USB.c:96
  if ( events & USB_KEYBOARD_EVENT )
    2496:	0025f793          	andi	a5,a1,2
    249a:	c385                	beqz	a5,24ba <USB_ProcessEvent+0x6e>
E:\Project\tp78\mounriver_project\RF_CH582M\obj/../HAL/USB.c:98
    memcpy(pEP1_IN_DataBuf, &HID_dat.Keyboard[0], 8);
    249c:	85018793          	addi	a5,gp,-1968 # 200017a0 <pEP1_RAM_Addr>
    24a0:	4388                	lw	a0,0(a5)
    24a2:	4621                	li	a2,8
    24a4:	9a918593          	addi	a1,gp,-1623 # 200018f9 <HID_dat+0x1>
    24a8:	04050513          	addi	a0,a0,64
    24ac:	633030ef          	jal	ra,62de <memcpy>
E:\Project\tp78\mounriver_project\RF_CH582M\obj/../HAL/USB.c:99
    DevEP1_IN_Deal( 8 );
    24b0:	4521                	li	a0,8
    24b2:	3a21                	jal	1dca <DevEP1_IN_Deal>
E:\Project\tp78\mounriver_project\RF_CH582M\obj/../HAL/USB.c:100
    return events ^ USB_KEYBOARD_EVENT;
    24b4:	00244513          	xori	a0,s0,2
    24b8:	bfd9                	j	248e <USB_ProcessEvent+0x42>
E:\Project\tp78\mounriver_project\RF_CH582M\obj/../HAL/USB.c:103
  if ( events & USB_VOL_EVENT )
    24ba:	0045f793          	andi	a5,a1,4
    24be:	cf99                	beqz	a5,24dc <USB_ProcessEvent+0x90>
E:\Project\tp78\mounriver_project\RF_CH582M\obj/../HAL/USB.c:105
    memcpy(pEP3_IN_DataBuf, &HID_dat.Volume[0], 1);
    24c0:	84818793          	addi	a5,gp,-1976 # 20001798 <pEP3_RAM_Addr>
    24c4:	9a818713          	addi	a4,gp,-1624 # 200018f8 <HID_dat>
    24c8:	439c                	lw	a5,0(a5)
    24ca:	00174703          	lbu	a4,1(a4) # 400001 <_data_lma+0x3f9aa9>
E:\Project\tp78\mounriver_project\RF_CH582M\obj/../HAL/USB.c:106
    DevEP3_IN_Deal( 1 );
    24ce:	4505                	li	a0,1
E:\Project\tp78\mounriver_project\RF_CH582M\obj/../HAL/USB.c:105
    memcpy(pEP3_IN_DataBuf, &HID_dat.Volume[0], 1);
    24d0:	04e78023          	sb	a4,64(a5)
E:\Project\tp78\mounriver_project\RF_CH582M\obj/../HAL/USB.c:106
    DevEP3_IN_Deal( 1 );
    24d4:	320d                	jal	1df6 <DevEP3_IN_Deal>
E:\Project\tp78\mounriver_project\RF_CH582M\obj/../HAL/USB.c:107
    return events ^ USB_VOL_EVENT;
    24d6:	00444513          	xori	a0,s0,4
    24da:	bf55                	j	248e <USB_ProcessEvent+0x42>
E:\Project\tp78\mounriver_project\RF_CH582M\obj/../HAL/USB.c:110
  if ( events & USB_TEST_EVENT )
    24dc:	01359793          	slli	a5,a1,0x13
E:\Project\tp78\mounriver_project\RF_CH582M\obj/../HAL/USB.c:120
  return 0;
    24e0:	4501                	li	a0,0
E:\Project\tp78\mounriver_project\RF_CH582M\obj/../HAL/USB.c:110
  if ( events & USB_TEST_EVENT )
    24e2:	fa07d6e3          	bgez	a5,248e <USB_ProcessEvent+0x42>
E:\Project\tp78\mounriver_project\RF_CH582M\obj/../HAL/USB.c:112
    HID_dat.Mouse[1] = 2;
    24e6:	4789                	li	a5,2
    24e8:	9af18523          	sb	a5,-1622(gp) # 200018fa <HID_dat+0x2>
E:\Project\tp78\mounriver_project\RF_CH582M\obj/../HAL/USB.c:113
    HID_dat.Mouse[2] = 2;
    24ec:	9af185a3          	sb	a5,-1621(gp) # 200018fb <HID_dat+0x3>
E:\Project\tp78\mounriver_project\RF_CH582M\obj/../HAL/USB.c:114
    memcpy(pEP2_IN_DataBuf, &HID_dat.Mouse[0], 4);
    24f0:	84418793          	addi	a5,gp,-1980 # 20001794 <pEP2_RAM_Addr>
    24f4:	4388                	lw	a0,0(a5)
    24f6:	4611                	li	a2,4
    24f8:	9a918593          	addi	a1,gp,-1623 # 200018f9 <HID_dat+0x1>
    24fc:	04050513          	addi	a0,a0,64
    2500:	5df030ef          	jal	ra,62de <memcpy>
E:\Project\tp78\mounriver_project\RF_CH582M\obj/../HAL/USB.c:115
    DevEP2_IN_Deal( 4 );
    2504:	4511                	li	a0,4
    2506:	8dbff0ef          	jal	ra,1de0 <DevEP2_IN_Deal>
E:\Project\tp78\mounriver_project\RF_CH582M\obj/../HAL/USB.c:116
    tmos_start_task(usbTaskID, USB_TEST_EVENT, MS1_TO_SYSTEM_TIME(500));
    250a:	6585                	lui	a1,0x1
    250c:	32000613          	li	a2,800
    2510:	1ffff517          	auipc	a0,0x1ffff
    2514:	24054503          	lbu	a0,576(a0) # 20001750 <usbTaskID>
    2518:	329000ef          	jal	ra,3040 <tmos_start_task>
E:\Project\tp78\mounriver_project\RF_CH582M\obj/../HAL/USB.c:117
    return events ^ USB_TEST_EVENT;
    251c:	6585                	lui	a1,0x1
    251e:	00b44533          	xor	a0,s0,a1
    2522:	b7b5                	j	248e <USB_ProcessEvent+0x42>

00002524 <HAL_USBInit>:
HAL_USBInit():
E:\Project\tp78\mounriver_project\RF_CH582M\obj/../HAL/USB.c:130
{
    2524:	1141                	addi	sp,sp,-16
E:\Project\tp78\mounriver_project\RF_CH582M\obj/../HAL/USB.c:131
  usbTaskID = TMOS_ProcessEventRegister( USB_ProcessEvent );
    2526:	00000517          	auipc	a0,0x0
    252a:	f2650513          	addi	a0,a0,-218 # 244c <USB_ProcessEvent>
E:\Project\tp78\mounriver_project\RF_CH582M\obj/../HAL/USB.c:130
{
    252e:	c606                	sw	ra,12(sp)
    2530:	c422                	sw	s0,8(sp)
E:\Project\tp78\mounriver_project\RF_CH582M\obj/../HAL/USB.c:131
  usbTaskID = TMOS_ProcessEventRegister( USB_ProcessEvent );
    2532:	567000ef          	jal	ra,3298 <TMOS_ProcessEventRegister>
E:\Project\tp78\mounriver_project\RF_CH582M\obj/../HAL/USB.c:132
  pEP0_RAM_Addr = EP0_Databuf;
    2536:	1ffff797          	auipc	a5,0x1ffff
    253a:	28278793          	addi	a5,a5,642 # 200017b8 <EP0_Databuf>
    253e:	84f1a623          	sw	a5,-1972(gp) # 2000179c <pEP0_RAM_Addr>
E:\Project\tp78\mounriver_project\RF_CH582M\obj/../HAL/USB.c:133
  pEP1_RAM_Addr = EP1_Databuf;
    2542:	92818793          	addi	a5,gp,-1752 # 20001878 <EP1_Databuf>
    2546:	84f1a823          	sw	a5,-1968(gp) # 200017a0 <pEP1_RAM_Addr>
E:\Project\tp78\mounriver_project\RF_CH582M\obj/../HAL/USB.c:134
  pEP2_RAM_Addr = EP2_Databuf;
    254a:	9b418793          	addi	a5,gp,-1612 # 20001904 <EP2_Databuf>
E:\Project\tp78\mounriver_project\RF_CH582M\obj/../HAL/USB.c:131
  usbTaskID = TMOS_ProcessEventRegister( USB_ProcessEvent );
    254e:	1ffff417          	auipc	s0,0x1ffff
    2552:	20240413          	addi	s0,s0,514 # 20001750 <usbTaskID>
E:\Project\tp78\mounriver_project\RF_CH582M\obj/../HAL/USB.c:134
  pEP2_RAM_Addr = EP2_Databuf;
    2556:	84f1a223          	sw	a5,-1980(gp) # 20001794 <pEP2_RAM_Addr>
E:\Project\tp78\mounriver_project\RF_CH582M\obj/../HAL/USB.c:135
  pEP3_RAM_Addr = EP3_Databuf;
    255a:	a3418793          	addi	a5,gp,-1484 # 20001984 <EP3_Databuf>
E:\Project\tp78\mounriver_project\RF_CH582M\obj/../HAL/USB.c:131
  usbTaskID = TMOS_ProcessEventRegister( USB_ProcessEvent );
    255e:	00a40023          	sb	a0,0(s0)
E:\Project\tp78\mounriver_project\RF_CH582M\obj/../HAL/USB.c:135
  pEP3_RAM_Addr = EP3_Databuf;
    2562:	84f1a423          	sw	a5,-1976(gp) # 20001798 <pEP3_RAM_Addr>
E:\Project\tp78\mounriver_project\RF_CH582M\obj/../HAL/USB.c:136
  USB_DeviceInit();
    2566:	fe6ff0ef          	jal	ra,1d4c <USB_DeviceInit>
E:\Project\tp78\mounriver_project\RF_CH582M\obj/../HAL/USB.c:137
  tmos_start_task( usbTaskID, START_USB_EVENT, 0 );
    256a:	00044503          	lbu	a0,0(s0)
E:\Project\tp78\mounriver_project\RF_CH582M\obj/../HAL/USB.c:138
}
    256e:	4422                	lw	s0,8(sp)
    2570:	40b2                	lw	ra,12(sp)
E:\Project\tp78\mounriver_project\RF_CH582M\obj/../HAL/USB.c:137
  tmos_start_task( usbTaskID, START_USB_EVENT, 0 );
    2572:	4601                	li	a2,0
    2574:	45a1                	li	a1,8
E:\Project\tp78\mounriver_project\RF_CH582M\obj/../HAL/USB.c:138
}
    2576:	0141                	addi	sp,sp,16
E:\Project\tp78\mounriver_project\RF_CH582M\obj/../HAL/USB.c:137
  tmos_start_task( usbTaskID, START_USB_EVENT, 0 );
    2578:	2c90006f          	j	3040 <tmos_start_task>

0000257c <DevEP1_OUT_Deal>:
DevEP1_OUT_Deal():
E:\Project\tp78\mounriver_project\RF_CH582M\obj/../HAL/USB.c:487
  for ( i = 0; i < l; i++ )
    257c:	4781                	li	a5,0
E:\Project\tp78\mounriver_project\RF_CH582M\obj/../HAL/USB.c:489
    pEP1_IN_DataBuf[i] = ~pEP1_OUT_DataBuf[i];
    257e:	85018613          	addi	a2,gp,-1968 # 200017a0 <pEP1_RAM_Addr>
E:\Project\tp78\mounriver_project\RF_CH582M\obj/../HAL/USB.c:487 (discriminator 1)
  for ( i = 0; i < l; i++ )
    2582:	0ff7f713          	andi	a4,a5,255
    2586:	00a76463          	bltu	a4,a0,258e <DevEP1_OUT_Deal+0x12>
E:\Project\tp78\mounriver_project\RF_CH582M\obj/../HAL/USB.c:491
  DevEP1_IN_Deal( l );
    258a:	841ff06f          	j	1dca <DevEP1_IN_Deal>
E:\Project\tp78\mounriver_project\RF_CH582M\obj/../HAL/USB.c:489 (discriminator 3)
    pEP1_IN_DataBuf[i] = ~pEP1_OUT_DataBuf[i];
    258e:	4218                	lw	a4,0(a2)
    2590:	973e                	add	a4,a4,a5
    2592:	00074683          	lbu	a3,0(a4)
    2596:	0785                	addi	a5,a5,1
    2598:	fff6c693          	not	a3,a3
    259c:	04d70023          	sb	a3,64(a4)
    25a0:	b7cd                	j	2582 <DevEP1_OUT_Deal+0x6>

000025a2 <DevEP2_OUT_Deal>:
DevEP2_OUT_Deal():
E:\Project\tp78\mounriver_project\RF_CH582M\obj/../HAL/USB.c:504
  for ( i = 0; i < l; i++ )
    25a2:	4781                	li	a5,0
E:\Project\tp78\mounriver_project\RF_CH582M\obj/../HAL/USB.c:506
    pEP2_IN_DataBuf[i] = ~pEP2_OUT_DataBuf[i];
    25a4:	84418613          	addi	a2,gp,-1980 # 20001794 <pEP2_RAM_Addr>
E:\Project\tp78\mounriver_project\RF_CH582M\obj/../HAL/USB.c:504 (discriminator 1)
  for ( i = 0; i < l; i++ )
    25a8:	0ff7f713          	andi	a4,a5,255
    25ac:	00a76463          	bltu	a4,a0,25b4 <DevEP2_OUT_Deal+0x12>
E:\Project\tp78\mounriver_project\RF_CH582M\obj/../HAL/USB.c:508
  DevEP2_IN_Deal( l );
    25b0:	831ff06f          	j	1de0 <DevEP2_IN_Deal>
E:\Project\tp78\mounriver_project\RF_CH582M\obj/../HAL/USB.c:506 (discriminator 3)
    pEP2_IN_DataBuf[i] = ~pEP2_OUT_DataBuf[i];
    25b4:	4218                	lw	a4,0(a2)
    25b6:	973e                	add	a4,a4,a5
    25b8:	00074683          	lbu	a3,0(a4)
    25bc:	0785                	addi	a5,a5,1
    25be:	fff6c693          	not	a3,a3
    25c2:	04d70023          	sb	a3,64(a4)
    25c6:	b7cd                	j	25a8 <DevEP2_OUT_Deal+0x6>

000025c8 <DevEP3_OUT_Deal>:
DevEP3_OUT_Deal():
E:\Project\tp78\mounriver_project\RF_CH582M\obj/../HAL/USB.c:521
  for ( i = 0; i < l; i++ )
    25c8:	4781                	li	a5,0
E:\Project\tp78\mounriver_project\RF_CH582M\obj/../HAL/USB.c:523
    pEP3_IN_DataBuf[i] = ~pEP3_OUT_DataBuf[i];
    25ca:	84818613          	addi	a2,gp,-1976 # 20001798 <pEP3_RAM_Addr>
E:\Project\tp78\mounriver_project\RF_CH582M\obj/../HAL/USB.c:521 (discriminator 1)
  for ( i = 0; i < l; i++ )
    25ce:	0ff7f713          	andi	a4,a5,255
    25d2:	00a76463          	bltu	a4,a0,25da <DevEP3_OUT_Deal+0x12>
E:\Project\tp78\mounriver_project\RF_CH582M\obj/../HAL/USB.c:525
  DevEP3_IN_Deal( l );
    25d6:	821ff06f          	j	1df6 <DevEP3_IN_Deal>
E:\Project\tp78\mounriver_project\RF_CH582M\obj/../HAL/USB.c:523 (discriminator 3)
    pEP3_IN_DataBuf[i] = ~pEP3_OUT_DataBuf[i];
    25da:	4218                	lw	a4,0(a2)
    25dc:	973e                	add	a4,a4,a5
    25de:	00074683          	lbu	a3,0(a4)
    25e2:	0785                	addi	a5,a5,1
    25e4:	fff6c693          	not	a3,a3
    25e8:	04d70023          	sb	a3,64(a4)
    25ec:	b7cd                	j	25ce <DevEP3_OUT_Deal+0x6>

000025ee <DevEP4_OUT_Deal>:
DevEP4_OUT_Deal():
E:\Project\tp78\mounriver_project\RF_CH582M\obj/../HAL/USB.c:538
  for ( i = 0; i < l; i++ )
    25ee:	4781                	li	a5,0
E:\Project\tp78\mounriver_project\RF_CH582M\obj/../HAL/USB.c:540
    pEP4_IN_DataBuf[i] = ~pEP4_OUT_DataBuf[i];
    25f0:	84c18613          	addi	a2,gp,-1972 # 2000179c <pEP0_RAM_Addr>
E:\Project\tp78\mounriver_project\RF_CH582M\obj/../HAL/USB.c:538 (discriminator 1)
  for ( i = 0; i < l; i++ )
    25f4:	0ff7f713          	andi	a4,a5,255
    25f8:	00a76463          	bltu	a4,a0,2600 <DevEP4_OUT_Deal+0x12>
E:\Project\tp78\mounriver_project\RF_CH582M\obj/../HAL/USB.c:542
  DevEP4_IN_Deal( l );
    25fc:	811ff06f          	j	1e0c <DevEP4_IN_Deal>
E:\Project\tp78\mounriver_project\RF_CH582M\obj/../HAL/USB.c:540 (discriminator 3)
    pEP4_IN_DataBuf[i] = ~pEP4_OUT_DataBuf[i];
    2600:	4218                	lw	a4,0(a2)
    2602:	973e                	add	a4,a4,a5
    2604:	04074683          	lbu	a3,64(a4)
    2608:	0785                	addi	a5,a5,1
    260a:	fff6c693          	not	a3,a3
    260e:	08d70023          	sb	a3,128(a4)
    2612:	b7cd                	j	25f4 <DevEP4_OUT_Deal+0x6>

00002614 <USB_DevTransProcess>:
USB_DevTransProcess():
E:\Project\tp78\mounriver_project\RF_CH582M\obj/../HAL/USB.c:151
  intflag = R8_USB_INT_FG;
    2614:	400087b7          	lui	a5,0x40008
    2618:	0067c703          	lbu	a4,6(a5) # 40008006 <_eusrstack+0x20000006>
    261c:	0ff77713          	andi	a4,a4,255
E:\Project\tp78\mounriver_project\RF_CH582M\obj/../HAL/USB.c:152
  if ( intflag & RB_UIF_TRANSFER )
    2620:	00277693          	andi	a3,a4,2
    2624:	48068e63          	beqz	a3,2ac0 <USB_DevTransProcess+0x4ac>
E:\Project\tp78\mounriver_project\RF_CH582M\obj/../HAL/USB.c:147
{
    2628:	1101                	addi	sp,sp,-32
    262a:	ce06                	sw	ra,28(sp)
    262c:	cc22                	sw	s0,24(sp)
    262e:	ca26                	sw	s1,20(sp)
    2630:	c84a                	sw	s2,16(sp)
    2632:	c64e                	sw	s3,12(sp)
E:\Project\tp78\mounriver_project\RF_CH582M\obj/../HAL/USB.c:154
    if ( ( R8_USB_INT_ST & MASK_UIS_TOKEN ) != MASK_UIS_TOKEN )    // 非空闲
    2634:	0077c703          	lbu	a4,7(a5)
    2638:	03000693          	li	a3,48
    263c:	03077713          	andi	a4,a4,48
    2640:	02d70b63          	beq	a4,a3,2676 <USB_DevTransProcess+0x62>
E:\Project\tp78\mounriver_project\RF_CH582M\obj/../HAL/USB.c:156
      switch ( R8_USB_INT_ST & ( MASK_UIS_TOKEN | MASK_UIS_ENDP ) )
    2644:	0077c703          	lbu	a4,7(a5)
    2648:	4691                	li	a3,4
    264a:	03f77713          	andi	a4,a4,63
    264e:	22d70163          	beq	a4,a3,2870 <USB_DevTransProcess+0x25c>
    2652:	0ae6e463          	bltu	a3,a4,26fa <USB_DevTransProcess+0xe6>
    2656:	4685                	li	a3,1
    2658:	1ad70c63          	beq	a4,a3,2810 <USB_DevTransProcess+0x1fc>
    265c:	18070163          	beqz	a4,27de <USB_DevTransProcess+0x1ca>
    2660:	4689                	li	a3,2
    2662:	1cd70163          	beq	a4,a3,2824 <USB_DevTransProcess+0x210>
    2666:	468d                	li	a3,3
    2668:	1ed70163          	beq	a4,a3,284a <USB_DevTransProcess+0x236>
E:\Project\tp78\mounriver_project\RF_CH582M\obj/../HAL/USB.c:262
      R8_USB_INT_FG = RB_UIF_TRANSFER;
    266c:	400087b7          	lui	a5,0x40008
    2670:	4709                	li	a4,2
    2672:	00e78323          	sb	a4,6(a5) # 40008006 <_eusrstack+0x20000006>
E:\Project\tp78\mounriver_project\RF_CH582M\obj/../HAL/USB.c:264
    if ( R8_USB_INT_ST & RB_UIS_SETUP_ACT )                  // Setup包处理
    2676:	40008737          	lui	a4,0x40008
    267a:	00774783          	lbu	a5,7(a4) # 40008007 <_eusrstack+0x20000007>
    267e:	07e2                	slli	a5,a5,0x18
    2680:	87e1                	srai	a5,a5,0x18
    2682:	2e07d163          	bgez	a5,2964 <USB_DevTransProcess+0x350>
E:\Project\tp78\mounriver_project\RF_CH582M\obj/../HAL/USB.c:266
      R8_UEP0_CTRL = RB_UEP_R_TOG | RB_UEP_T_TOG | UEP_R_RES_ACK | UEP_T_RES_NAK;
    2686:	fc200793          	li	a5,-62
    268a:	02f70123          	sb	a5,34(a4)
E:\Project\tp78\mounriver_project\RF_CH582M\obj/../HAL/USB.c:267
      SetupReqLen = pSetupReqPak->wLength;
    268e:	84c18693          	addi	a3,gp,-1972 # 2000179c <pEP0_RAM_Addr>
    2692:	4288                	lw	a0,0(a3)
    2694:	00754703          	lbu	a4,7(a0)
    2698:	00654783          	lbu	a5,6(a0)
    269c:	0722                	slli	a4,a4,0x8
    269e:	8f5d                	or	a4,a4,a5
    26a0:	84e19f23          	sh	a4,-1954(gp) # 200017ae <SetupReqLen>
E:\Project\tp78\mounriver_project\RF_CH582M\obj/../HAL/USB.c:268
      SetupReqCode = pSetupReqPak->bRequest;
    26a4:	00154783          	lbu	a5,1(a0)
    26a8:	86f18023          	sb	a5,-1952(gp) # 200017b0 <SetupReqCode>
E:\Project\tp78\mounriver_project\RF_CH582M\obj/../HAL/USB.c:269
      chtype = pSetupReqPak->bRequestType;
    26ac:	00054903          	lbu	s2,0(a0)
E:\Project\tp78\mounriver_project\RF_CH582M\obj/../HAL/USB.c:273
      if ( ( pSetupReqPak->bRequestType & USB_REQ_TYP_MASK ) != USB_REQ_TYP_STANDARD )
    26b0:	06097613          	andi	a2,s2,96
    26b4:	1c060e63          	beqz	a2,2890 <USB_DevTransProcess+0x27c>
E:\Project\tp78\mounriver_project\RF_CH582M\obj/../HAL/USB.c:275
        switch ( SetupReqCode )
    26b8:	17dd                	addi	a5,a5,-9
    26ba:	4705                	li	a4,1
    26bc:	28f76963          	bltu	a4,a5,294e <USB_DevTransProcess+0x33a>
E:\Project\tp78\mounriver_project\RF_CH582M\obj/../HAL/USB.c:435
        if ( chtype & 0x80 )     // 上传
    26c0:	0962                	slli	s2,s2,0x18
    26c2:	41895913          	srai	s2,s2,0x18
E:\Project\tp78\mounriver_project\RF_CH582M\obj/../HAL/USB.c:442
          len = 0;        // 下传
    26c6:	4681                	li	a3,0
E:\Project\tp78\mounriver_project\RF_CH582M\obj/../HAL/USB.c:435
        if ( chtype & 0x80 )     // 上传
    26c8:	02095263          	bgez	s2,26ec <USB_DevTransProcess+0xd8>
E:\Project\tp78\mounriver_project\RF_CH582M\obj/../HAL/USB.c:438
              DevEP0SIZE : SetupReqLen;
    26cc:	85e1d783          	lhu	a5,-1954(gp) # 200017ae <SetupReqLen>
    26d0:	04000693          	li	a3,64
    26d4:	873e                	mv	a4,a5
    26d6:	00f6f463          	bgeu	a3,a5,26de <USB_DevTransProcess+0xca>
    26da:	04000713          	li	a4,64
    26de:	0742                	slli	a4,a4,0x10
    26e0:	8341                	srli	a4,a4,0x10
E:\Project\tp78\mounriver_project\RF_CH582M\obj/../HAL/USB.c:439
          SetupReqLen -= len;
    26e2:	8f99                	sub	a5,a5,a4
E:\Project\tp78\mounriver_project\RF_CH582M\obj/../HAL/USB.c:437
          len = ( SetupReqLen > DevEP0SIZE ) ?
    26e4:	0ff77693          	andi	a3,a4,255
E:\Project\tp78\mounriver_project\RF_CH582M\obj/../HAL/USB.c:439
          SetupReqLen -= len;
    26e8:	84f19f23          	sh	a5,-1954(gp) # 200017ae <SetupReqLen>
E:\Project\tp78\mounriver_project\RF_CH582M\obj/../HAL/USB.c:443
        R8_UEP0_T_LEN = len;
    26ec:	400087b7          	lui	a5,0x40008
    26f0:	02d78023          	sb	a3,32(a5) # 40008020 <_eusrstack+0x20000020>
E:\Project\tp78\mounriver_project\RF_CH582M\obj/../HAL/USB.c:444
        R8_UEP0_CTRL = RB_UEP_R_TOG | RB_UEP_T_TOG | UEP_R_RES_ACK | UEP_T_RES_ACK;    // 默认数据包是DATA1
    26f4:	fc000713          	li	a4,-64
    26f8:	acb9                	j	2956 <USB_DevTransProcess+0x342>
    26fa:	02200693          	li	a3,34
    26fe:	12d70d63          	beq	a4,a3,2838 <USB_DevTransProcess+0x224>
    2702:	02e6e363          	bltu	a3,a4,2728 <USB_DevTransProcess+0x114>
    2706:	02000693          	li	a3,32
    270a:	04d70663          	beq	a4,a3,2756 <USB_DevTransProcess+0x142>
    270e:	02100693          	li	a3,33
    2712:	f4d71de3          	bne	a4,a3,266c <USB_DevTransProcess+0x58>
E:\Project\tp78\mounriver_project\RF_CH582M\obj/../HAL/USB.c:212
          R8_UEP1_CTRL = ( R8_UEP1_CTRL & ~MASK_UEP_T_RES ) | UEP_T_RES_NAK;
    2716:	0267c703          	lbu	a4,38(a5)
    271a:	0fc77713          	andi	a4,a4,252
    271e:	00276713          	ori	a4,a4,2
    2722:	02e78323          	sb	a4,38(a5)
E:\Project\tp78\mounriver_project\RF_CH582M\obj/../HAL/USB.c:213
          break;
    2726:	b799                	j	266c <USB_DevTransProcess+0x58>
    2728:	02300693          	li	a3,35
    272c:	12d70963          	beq	a4,a3,285e <USB_DevTransProcess+0x24a>
    2730:	02400693          	li	a3,36
    2734:	f2d71ce3          	bne	a4,a3,266c <USB_DevTransProcess+0x58>
E:\Project\tp78\mounriver_project\RF_CH582M\obj/../HAL/USB.c:255
          R8_UEP4_CTRL ^= RB_UEP_T_TOG;
    2738:	0327c703          	lbu	a4,50(a5)
    273c:	04074713          	xori	a4,a4,64
    2740:	02e78923          	sb	a4,50(a5)
E:\Project\tp78\mounriver_project\RF_CH582M\obj/../HAL/USB.c:256
          R8_UEP4_CTRL = ( R8_UEP4_CTRL & ~MASK_UEP_T_RES ) | UEP_T_RES_NAK;
    2744:	0327c703          	lbu	a4,50(a5)
    2748:	0fc77713          	andi	a4,a4,252
    274c:	00276713          	ori	a4,a4,2
    2750:	02e78923          	sb	a4,50(a5)
E:\Project\tp78\mounriver_project\RF_CH582M\obj/../HAL/USB.c:257
          break;
    2754:	bf21                	j	266c <USB_DevTransProcess+0x58>
E:\Project\tp78\mounriver_project\RF_CH582M\obj/../HAL/USB.c:161
          switch ( SetupReqCode )
    2756:	8601c703          	lbu	a4,-1952(gp) # 200017b0 <SetupReqCode>
    275a:	4695                	li	a3,5
    275c:	06d70363          	beq	a4,a3,27c2 <USB_DevTransProcess+0x1ae>
    2760:	4699                	li	a3,6
    2762:	06d71b63          	bne	a4,a3,27d8 <USB_DevTransProcess+0x1c4>
E:\Project\tp78\mounriver_project\RF_CH582M\obj/../HAL/USB.c:165
                  DevEP0SIZE : SetupReqLen;    // 本次传输长度
    2766:	85e18793          	addi	a5,gp,-1954 # 200017ae <SetupReqLen>
    276a:	0007d403          	lhu	s0,0(a5)
    276e:	04000713          	li	a4,64
    2772:	84be                	mv	s1,a5
    2774:	00877463          	bgeu	a4,s0,277c <USB_DevTransProcess+0x168>
    2778:	04000413          	li	s0,64
E:\Project\tp78\mounriver_project\RF_CH582M\obj/../HAL/USB.c:166
              memcpy( pEP0_DataBuf, pDescr, len ); /* 加载上传数据 */
    277c:	84c18793          	addi	a5,gp,-1972 # 2000179c <pEP0_RAM_Addr>
    2780:	86418913          	addi	s2,gp,-1948 # 200017b4 <pDescr>
    2784:	4388                	lw	a0,0(a5)
E:\Project\tp78\mounriver_project\RF_CH582M\obj/../HAL/USB.c:165
                  DevEP0SIZE : SetupReqLen;    // 本次传输长度
    2786:	0442                	slli	s0,s0,0x10
E:\Project\tp78\mounriver_project\RF_CH582M\obj/../HAL/USB.c:166
              memcpy( pEP0_DataBuf, pDescr, len ); /* 加载上传数据 */
    2788:	00092583          	lw	a1,0(s2)
E:\Project\tp78\mounriver_project\RF_CH582M\obj/../HAL/USB.c:165
                  DevEP0SIZE : SetupReqLen;    // 本次传输长度
    278c:	8041                	srli	s0,s0,0x10
E:\Project\tp78\mounriver_project\RF_CH582M\obj/../HAL/USB.c:166
              memcpy( pEP0_DataBuf, pDescr, len ); /* 加载上传数据 */
    278e:	8622                	mv	a2,s0
    2790:	34f030ef          	jal	ra,62de <memcpy>
E:\Project\tp78\mounriver_project\RF_CH582M\obj/../HAL/USB.c:167
              SetupReqLen -= len;
    2794:	0004d783          	lhu	a5,0(s1)
E:\Project\tp78\mounriver_project\RF_CH582M\obj/../HAL/USB.c:164
              len = SetupReqLen >= DevEP0SIZE ?
    2798:	0ff47993          	andi	s3,s0,255
E:\Project\tp78\mounriver_project\RF_CH582M\obj/../HAL/USB.c:167
              SetupReqLen -= len;
    279c:	8f81                	sub	a5,a5,s0
    279e:	84f19f23          	sh	a5,-1954(gp) # 200017ae <SetupReqLen>
E:\Project\tp78\mounriver_project\RF_CH582M\obj/../HAL/USB.c:168
              pDescr += len;
    27a2:	00092783          	lw	a5,0(s2)
    27a6:	943e                	add	s0,s0,a5
    27a8:	8681a223          	sw	s0,-1948(gp) # 200017b4 <pDescr>
E:\Project\tp78\mounriver_project\RF_CH582M\obj/../HAL/USB.c:169
              R8_UEP0_T_LEN = len;
    27ac:	400087b7          	lui	a5,0x40008
    27b0:	03378023          	sb	s3,32(a5) # 40008020 <_eusrstack+0x20000020>
E:\Project\tp78\mounriver_project\RF_CH582M\obj/../HAL/USB.c:170
              R8_UEP0_CTRL ^= RB_UEP_T_TOG;                             // 翻转
    27b4:	0227c703          	lbu	a4,34(a5)
    27b8:	04074713          	xori	a4,a4,64
E:\Project\tp78\mounriver_project\RF_CH582M\obj/../HAL/USB.c:174
              R8_UEP0_CTRL = UEP_R_RES_ACK | UEP_T_RES_NAK;
    27bc:	02e78123          	sb	a4,34(a5)
E:\Project\tp78\mounriver_project\RF_CH582M\obj/../HAL/USB.c:175
              break;
    27c0:	b575                	j	266c <USB_DevTransProcess+0x58>
E:\Project\tp78\mounriver_project\RF_CH582M\obj/../HAL/USB.c:173
              R8_USB_DEV_AD = ( R8_USB_DEV_AD & RB_UDA_GP_BIT ) | SetupReqLen;
    27c2:	0037c703          	lbu	a4,3(a5)
    27c6:	85e1c683          	lbu	a3,-1954(gp) # 200017ae <SetupReqLen>
    27ca:	08077713          	andi	a4,a4,128
    27ce:	8f55                	or	a4,a4,a3
    27d0:	00e781a3          	sb	a4,3(a5)
E:\Project\tp78\mounriver_project\RF_CH582M\obj/../HAL/USB.c:174
              R8_UEP0_CTRL = UEP_R_RES_ACK | UEP_T_RES_NAK;
    27d4:	4709                	li	a4,2
    27d6:	b7dd                	j	27bc <USB_DevTransProcess+0x1a8>
E:\Project\tp78\mounriver_project\RF_CH582M\obj/../HAL/USB.c:177
              R8_UEP0_T_LEN = 0;                                      // 状态阶段完成中断或者是强制上传0长度数据包结束控制传输
    27d8:	02078023          	sb	zero,32(a5)
E:\Project\tp78\mounriver_project\RF_CH582M\obj/../HAL/USB.c:178
              R8_UEP0_CTRL = UEP_R_RES_ACK | UEP_T_RES_NAK;
    27dc:	bfe5                	j	27d4 <USB_DevTransProcess+0x1c0>
E:\Project\tp78\mounriver_project\RF_CH582M\obj/../HAL/USB.c:186
          len = R8_USB_RX_LEN;
    27de:	0087c783          	lbu	a5,8(a5)
E:\Project\tp78\mounriver_project\RF_CH582M\obj/../HAL/USB.c:187
          if ( SetupReqCode == 0x09 )
    27e2:	8601c703          	lbu	a4,-1952(gp) # 200017b0 <SetupReqCode>
    27e6:	47a5                	li	a5,9
    27e8:	e8f712e3          	bne	a4,a5,266c <USB_DevTransProcess+0x58>
E:\Project\tp78\mounriver_project\RF_CH582M\obj/../HAL/USB.c:189
            if ( pEP0_DataBuf[1] ) {
    27ec:	84c18793          	addi	a5,gp,-1972 # 2000179c <pEP0_RAM_Addr>
    27f0:	439c                	lw	a5,0(a5)
    27f2:	ab41c503          	lbu	a0,-1356(gp) # 20001a04 <RFtaskID>
    27f6:	0017c783          	lbu	a5,1(a5)
    27fa:	cb81                	beqz	a5,280a <USB_DevTransProcess+0x1f6>
E:\Project\tp78\mounriver_project\RF_CH582M\obj/../HAL/USB.c:190
                CAPSLOCK_DATA[1] = 0;    // Light off Caps Lock LED
    27fc:	800182a3          	sb	zero,-2043(gp) # 20001755 <CAPSLOCK_DATA+0x1>
E:\Project\tp78\mounriver_project\RF_CH582M\obj/../HAL/USB.c:195
                tmos_start_task(RFtaskID, SBP_RF_CAPSLOCK_TX_EVT, 10);
    2800:	4629                	li	a2,10
    2802:	45a1                	li	a1,8
    2804:	03d000ef          	jal	ra,3040 <tmos_start_task>
    2808:	b595                	j	266c <USB_DevTransProcess+0x58>
E:\Project\tp78\mounriver_project\RF_CH582M\obj/../HAL/USB.c:194
                CAPSLOCK_DATA[1] = 1;     // Light on Caps Lock LED
    280a:	80d182a3          	sb	a3,-2043(gp) # 20001755 <CAPSLOCK_DATA+0x1>
    280e:	bfcd                	j	2800 <USB_DevTransProcess+0x1ec>
E:\Project\tp78\mounriver_project\RF_CH582M\obj/../HAL/USB.c:203
          if ( R8_USB_INT_ST & RB_UIS_TOG_OK )
    2810:	0077c703          	lbu	a4,7(a5)
    2814:	04077713          	andi	a4,a4,64
    2818:	e4070ae3          	beqz	a4,266c <USB_DevTransProcess+0x58>
E:\Project\tp78\mounriver_project\RF_CH582M\obj/../HAL/USB.c:205
            len = R8_USB_RX_LEN;
    281c:	0087c503          	lbu	a0,8(a5)
E:\Project\tp78\mounriver_project\RF_CH582M\obj/../HAL/USB.c:206
            DevEP1_OUT_Deal( len );
    2820:	3bb1                	jal	257c <DevEP1_OUT_Deal>
    2822:	b5a9                	j	266c <USB_DevTransProcess+0x58>
E:\Project\tp78\mounriver_project\RF_CH582M\obj/../HAL/USB.c:217
          if ( R8_USB_INT_ST & RB_UIS_TOG_OK )
    2824:	0077c703          	lbu	a4,7(a5)
    2828:	04077713          	andi	a4,a4,64
    282c:	e40700e3          	beqz	a4,266c <USB_DevTransProcess+0x58>
E:\Project\tp78\mounriver_project\RF_CH582M\obj/../HAL/USB.c:219
            len = R8_USB_RX_LEN;
    2830:	0087c503          	lbu	a0,8(a5)
E:\Project\tp78\mounriver_project\RF_CH582M\obj/../HAL/USB.c:220
            DevEP2_OUT_Deal( len );
    2834:	33bd                	jal	25a2 <DevEP2_OUT_Deal>
    2836:	bd1d                	j	266c <USB_DevTransProcess+0x58>
E:\Project\tp78\mounriver_project\RF_CH582M\obj/../HAL/USB.c:226
          R8_UEP2_CTRL = ( R8_UEP2_CTRL & ~MASK_UEP_T_RES ) | UEP_T_RES_NAK;
    2838:	02a7c703          	lbu	a4,42(a5)
    283c:	0fc77713          	andi	a4,a4,252
    2840:	00276713          	ori	a4,a4,2
    2844:	02e78523          	sb	a4,42(a5)
E:\Project\tp78\mounriver_project\RF_CH582M\obj/../HAL/USB.c:227
          break;
    2848:	b515                	j	266c <USB_DevTransProcess+0x58>
E:\Project\tp78\mounriver_project\RF_CH582M\obj/../HAL/USB.c:231
          if ( R8_USB_INT_ST & RB_UIS_TOG_OK )
    284a:	0077c703          	lbu	a4,7(a5)
    284e:	04077713          	andi	a4,a4,64
    2852:	e0070de3          	beqz	a4,266c <USB_DevTransProcess+0x58>
E:\Project\tp78\mounriver_project\RF_CH582M\obj/../HAL/USB.c:233
            len = R8_USB_RX_LEN;
    2856:	0087c503          	lbu	a0,8(a5)
E:\Project\tp78\mounriver_project\RF_CH582M\obj/../HAL/USB.c:234
            DevEP3_OUT_Deal( len );
    285a:	33bd                	jal	25c8 <DevEP3_OUT_Deal>
    285c:	bd01                	j	266c <USB_DevTransProcess+0x58>
E:\Project\tp78\mounriver_project\RF_CH582M\obj/../HAL/USB.c:240
          R8_UEP3_CTRL = ( R8_UEP3_CTRL & ~MASK_UEP_T_RES ) | UEP_T_RES_NAK;
    285e:	02e7c703          	lbu	a4,46(a5)
    2862:	0fc77713          	andi	a4,a4,252
    2866:	00276713          	ori	a4,a4,2
    286a:	02e78723          	sb	a4,46(a5)
E:\Project\tp78\mounriver_project\RF_CH582M\obj/../HAL/USB.c:241
          break;
    286e:	bbfd                	j	266c <USB_DevTransProcess+0x58>
E:\Project\tp78\mounriver_project\RF_CH582M\obj/../HAL/USB.c:245
          if ( R8_USB_INT_ST & RB_UIS_TOG_OK )
    2870:	0077c703          	lbu	a4,7(a5)
    2874:	04077713          	andi	a4,a4,64
    2878:	de070ae3          	beqz	a4,266c <USB_DevTransProcess+0x58>
E:\Project\tp78\mounriver_project\RF_CH582M\obj/../HAL/USB.c:247
            R8_UEP4_CTRL ^= RB_UEP_R_TOG;
    287c:	0327c703          	lbu	a4,50(a5)
    2880:	08074713          	xori	a4,a4,128
    2884:	02e78923          	sb	a4,50(a5)
E:\Project\tp78\mounriver_project\RF_CH582M\obj/../HAL/USB.c:248
            len = R8_USB_RX_LEN;
    2888:	0087c503          	lbu	a0,8(a5)
E:\Project\tp78\mounriver_project\RF_CH582M\obj/../HAL/USB.c:249
            DevEP4_OUT_Deal( len );
    288c:	338d                	jal	25ee <DevEP4_OUT_Deal>
    288e:	bbf9                	j	266c <USB_DevTransProcess+0x58>
E:\Project\tp78\mounriver_project\RF_CH582M\obj/../HAL/USB.c:287
        switch ( SetupReqCode )
    2890:	4629                	li	a2,10
    2892:	0af66e63          	bltu	a2,a5,294e <USB_DevTransProcess+0x33a>
    2896:	00004617          	auipc	a2,0x4
    289a:	b4a60613          	addi	a2,a2,-1206 # 63e0 <memcpy+0x102>
    289e:	078a                	slli	a5,a5,0x2
    28a0:	97b2                	add	a5,a5,a2
    28a2:	439c                	lw	a5,0(a5)
    28a4:	97b2                	add	a5,a5,a2
    28a6:	8782                	jr	a5
E:\Project\tp78\mounriver_project\RF_CH582M\obj/../HAL/USB.c:291
            switch ( ( ( pSetupReqPak->wValue ) >> 8 ) )
    28a8:	00354783          	lbu	a5,3(a0)
    28ac:	00254683          	lbu	a3,2(a0)
    28b0:	4609                	li	a2,2
    28b2:	07a2                	slli	a5,a5,0x8
    28b4:	8fd5                	or	a5,a5,a3
    28b6:	0087d693          	srli	a3,a5,0x8
    28ba:	0ac68c63          	beq	a3,a2,2972 <USB_DevTransProcess+0x35e>
    28be:	00d66963          	bltu	a2,a3,28d0 <USB_DevTransProcess+0x2bc>
    28c2:	4785                	li	a5,1
    28c4:	02f68a63          	beq	a3,a5,28f8 <USB_DevTransProcess+0x2e4>
E:\Project\tp78\mounriver_project\RF_CH582M\obj/../HAL/USB.c:356
                errflag = 0xff;
    28c8:	0ff00413          	li	s0,255
E:\Project\tp78\mounriver_project\RF_CH582M\obj/../HAL/USB.c:271
      len = 0;
    28cc:	4781                	li	a5,0
    28ce:	a82d                	j	2908 <USB_DevTransProcess+0x2f4>
    28d0:	458d                	li	a1,3
    28d2:	0eb68363          	beq	a3,a1,29b8 <USB_DevTransProcess+0x3a4>
    28d6:	02200793          	li	a5,34
    28da:	fef697e3          	bne	a3,a5,28c8 <USB_DevTransProcess+0x2b4>
E:\Project\tp78\mounriver_project\RF_CH582M\obj/../HAL/USB.c:309
                if ( ( ( pSetupReqPak->wIndex ) & 0xff ) == 0 )         //接口0报表描述符
    28de:	00454783          	lbu	a5,4(a0)
    28e2:	e3d5                	bnez	a5,2986 <USB_DevTransProcess+0x372>
E:\Project\tp78\mounriver_project\RF_CH582M\obj/../HAL/USB.c:311
                  pDescr = KeyRepDesc;                                  //数据准备上传
    28e4:	00004797          	auipc	a5,0x4
    28e8:	b2878793          	addi	a5,a5,-1240 # 640c <KeyRepDesc>
    28ec:	86f1a223          	sw	a5,-1948(gp) # 200017b4 <pDescr>
E:\Project\tp78\mounriver_project\RF_CH582M\obj/../HAL/USB.c:272
      errflag = 0;
    28f0:	4401                	li	s0,0
E:\Project\tp78\mounriver_project\RF_CH582M\obj/../HAL/USB.c:312
                  len = sizeof( KeyRepDesc );
    28f2:	03e00793          	li	a5,62
    28f6:	a809                	j	2908 <USB_DevTransProcess+0x2f4>
E:\Project\tp78\mounriver_project\RF_CH582M\obj/../HAL/USB.c:295
                pDescr = MyDevDescr;
    28f8:	00004797          	auipc	a5,0x4
    28fc:	bf478793          	addi	a5,a5,-1036 # 64ec <MyDevDescr>
    2900:	86f1a223          	sw	a5,-1948(gp) # 200017b4 <pDescr>
E:\Project\tp78\mounriver_project\RF_CH582M\obj/../HAL/USB.c:272
      errflag = 0;
    2904:	4401                	li	s0,0
E:\Project\tp78\mounriver_project\RF_CH582M\obj/../HAL/USB.c:296
                len = MyDevDescr[0];
    2906:	47c9                	li	a5,18
E:\Project\tp78\mounriver_project\RF_CH582M\obj/../HAL/USB.c:359
            if ( SetupReqLen > len )
    2908:	07c2                	slli	a5,a5,0x10
    290a:	83c1                	srli	a5,a5,0x10
    290c:	00e7f463          	bgeu	a5,a4,2914 <USB_DevTransProcess+0x300>
E:\Project\tp78\mounriver_project\RF_CH582M\obj/../HAL/USB.c:360
              SetupReqLen = len;      //实际需上传总长度
    2910:	84f19f23          	sh	a5,-1954(gp) # 200017ae <SetupReqLen>
E:\Project\tp78\mounriver_project\RF_CH582M\obj/../HAL/USB.c:362
                DevEP0SIZE : SetupReqLen;
    2914:	85e18793          	addi	a5,gp,-1954 # 200017ae <SetupReqLen>
    2918:	0007d603          	lhu	a2,0(a5)
    291c:	04000793          	li	a5,64
    2920:	00c7f463          	bgeu	a5,a2,2928 <USB_DevTransProcess+0x314>
    2924:	04000613          	li	a2,64
E:\Project\tp78\mounriver_project\RF_CH582M\obj/../HAL/USB.c:363
            memcpy( pEP0_DataBuf, pDescr, len );
    2928:	86418993          	addi	s3,gp,-1948 # 200017b4 <pDescr>
    292c:	01061493          	slli	s1,a2,0x10
    2930:	0009a583          	lw	a1,0(s3) # 10000 <_data_lma+0x9aa8>
    2934:	80c1                	srli	s1,s1,0x10
    2936:	8626                	mv	a2,s1
    2938:	1a7030ef          	jal	ra,62de <memcpy>
E:\Project\tp78\mounriver_project\RF_CH582M\obj/../HAL/USB.c:364
            pDescr += len;
    293c:	0009a603          	lw	a2,0(s3)
    2940:	9626                	add	a2,a2,s1
    2942:	86c1a223          	sw	a2,-1948(gp) # 200017b4 <pDescr>
E:\Project\tp78\mounriver_project\RF_CH582M\obj/../HAL/USB.c:428
      if ( errflag == 0xff )        // 错误或不支持
    2946:	0ff00793          	li	a5,255
    294a:	d6f41be3          	bne	s0,a5,26c0 <USB_DevTransProcess+0xac>
E:\Project\tp78\mounriver_project\RF_CH582M\obj/../HAL/USB.c:431
        R8_UEP0_CTRL = RB_UEP_R_TOG | RB_UEP_T_TOG | UEP_R_RES_STALL | UEP_T_RES_STALL;    // STALL
    294e:	400087b7          	lui	a5,0x40008
    2952:	fcf00713          	li	a4,-49
E:\Project\tp78\mounriver_project\RF_CH582M\obj/../HAL/USB.c:444
        R8_UEP0_CTRL = RB_UEP_R_TOG | RB_UEP_T_TOG | UEP_R_RES_ACK | UEP_T_RES_ACK;    // 默认数据包是DATA1
    2956:	02e78123          	sb	a4,34(a5) # 40008022 <_eusrstack+0x20000022>
E:\Project\tp78\mounriver_project\RF_CH582M\obj/../HAL/USB.c:447
      R8_USB_INT_FG = RB_UIF_TRANSFER;
    295a:	400087b7          	lui	a5,0x40008
    295e:	4709                	li	a4,2
    2960:	00e78323          	sb	a4,6(a5) # 40008006 <_eusrstack+0x20000006>
E:\Project\tp78\mounriver_project\RF_CH582M\obj/../HAL/USB.c:475
}
    2964:	40f2                	lw	ra,28(sp)
    2966:	4462                	lw	s0,24(sp)
    2968:	44d2                	lw	s1,20(sp)
    296a:	4942                	lw	s2,16(sp)
    296c:	49b2                	lw	s3,12(sp)
    296e:	6105                	addi	sp,sp,32
    2970:	8082                	ret
E:\Project\tp78\mounriver_project\RF_CH582M\obj/../HAL/USB.c:302
                pDescr = MyCfgDescr;
    2972:	00004797          	auipc	a5,0x4
    2976:	b0e78793          	addi	a5,a5,-1266 # 6480 <MyCfgDescr>
    297a:	86f1a223          	sw	a5,-1948(gp) # 200017b4 <pDescr>
E:\Project\tp78\mounriver_project\RF_CH582M\obj/../HAL/USB.c:272
      errflag = 0;
    297e:	4401                	li	s0,0
E:\Project\tp78\mounriver_project\RF_CH582M\obj/../HAL/USB.c:303
                len = MyCfgDescr[2];
    2980:	06b00793          	li	a5,107
    2984:	b751                	j	2908 <USB_DevTransProcess+0x2f4>
E:\Project\tp78\mounriver_project\RF_CH582M\obj/../HAL/USB.c:314
                else if ( ( ( pSetupReqPak->wIndex ) & 0xff ) == 1 )    //接口1报表描述符
    2986:	4685                	li	a3,1
    2988:	00d79c63          	bne	a5,a3,29a0 <USB_DevTransProcess+0x38c>
E:\Project\tp78\mounriver_project\RF_CH582M\obj/../HAL/USB.c:316
                  pDescr = MouseRepDesc;                                //数据准备上传
    298c:	00004797          	auipc	a5,0x4
    2990:	ac078793          	addi	a5,a5,-1344 # 644c <MouseRepDesc>
    2994:	86f1a223          	sw	a5,-1948(gp) # 200017b4 <pDescr>
E:\Project\tp78\mounriver_project\RF_CH582M\obj/../HAL/USB.c:272
      errflag = 0;
    2998:	4401                	li	s0,0
E:\Project\tp78\mounriver_project\RF_CH582M\obj/../HAL/USB.c:317
                  len = sizeof( MouseRepDesc );
    299a:	03400793          	li	a5,52
    299e:	b7ad                	j	2908 <USB_DevTransProcess+0x2f4>
E:\Project\tp78\mounriver_project\RF_CH582M\obj/../HAL/USB.c:319
                else if ( ( ( pSetupReqPak->wIndex ) & 0xff ) == 2 )    //接口2报表描述符
    29a0:	04c79f63          	bne	a5,a2,29fe <USB_DevTransProcess+0x3ea>
E:\Project\tp78\mounriver_project\RF_CH582M\obj/../HAL/USB.c:321
                  pDescr = VolumeRepDesc;                               //数据准备上传
    29a4:	00004797          	auipc	a5,0x4
    29a8:	b7878793          	addi	a5,a5,-1160 # 651c <VolumeRepDesc>
    29ac:	86f1a223          	sw	a5,-1948(gp) # 200017b4 <pDescr>
E:\Project\tp78\mounriver_project\RF_CH582M\obj/../HAL/USB.c:272
      errflag = 0;
    29b0:	4401                	li	s0,0
E:\Project\tp78\mounriver_project\RF_CH582M\obj/../HAL/USB.c:322
                  len = sizeof( VolumeRepDesc );                        //如果有更多接口，该标准位应该在最后一个接口配置完成后有效
    29b2:	02100793          	li	a5,33
    29b6:	bf89                	j	2908 <USB_DevTransProcess+0x2f4>
E:\Project\tp78\mounriver_project\RF_CH582M\obj/../HAL/USB.c:334
                switch ( ( pSetupReqPak->wValue ) & 0xff )
    29b8:	0ff7f793          	andi	a5,a5,255
    29bc:	4685                	li	a3,1
    29be:	00d78e63          	beq	a5,a3,29da <USB_DevTransProcess+0x3c6>
    29c2:	c78d                	beqz	a5,29ec <USB_DevTransProcess+0x3d8>
    29c4:	f0c792e3          	bne	a5,a2,28c8 <USB_DevTransProcess+0x2b4>
E:\Project\tp78\mounriver_project\RF_CH582M\obj/../HAL/USB.c:341
                    pDescr = MyProdInfo;
    29c8:	00004797          	auipc	a5,0x4
    29cc:	b4878793          	addi	a5,a5,-1208 # 6510 <MyProdInfo>
    29d0:	86f1a223          	sw	a5,-1948(gp) # 200017b4 <pDescr>
E:\Project\tp78\mounriver_project\RF_CH582M\obj/../HAL/USB.c:272
      errflag = 0;
    29d4:	4401                	li	s0,0
E:\Project\tp78\mounriver_project\RF_CH582M\obj/../HAL/USB.c:342
                    len = MyProdInfo[0];
    29d6:	47a9                	li	a5,10
    29d8:	bf05                	j	2908 <USB_DevTransProcess+0x2f4>
E:\Project\tp78\mounriver_project\RF_CH582M\obj/../HAL/USB.c:337
                    pDescr = MyManuInfo;
    29da:	00004797          	auipc	a5,0x4
    29de:	b2678793          	addi	a5,a5,-1242 # 6500 <MyManuInfo>
    29e2:	86f1a223          	sw	a5,-1948(gp) # 200017b4 <pDescr>
E:\Project\tp78\mounriver_project\RF_CH582M\obj/../HAL/USB.c:272
      errflag = 0;
    29e6:	4401                	li	s0,0
E:\Project\tp78\mounriver_project\RF_CH582M\obj/../HAL/USB.c:338
                    len = MyManuInfo[0];
    29e8:	47b9                	li	a5,14
    29ea:	bf39                	j	2908 <USB_DevTransProcess+0x2f4>
E:\Project\tp78\mounriver_project\RF_CH582M\obj/../HAL/USB.c:345
                    pDescr = MyLangDescr;
    29ec:	00004797          	auipc	a5,0x4
    29f0:	b6878793          	addi	a5,a5,-1176 # 6554 <MyLangDescr>
    29f4:	86f1a223          	sw	a5,-1948(gp) # 200017b4 <pDescr>
E:\Project\tp78\mounriver_project\RF_CH582M\obj/../HAL/USB.c:272
      errflag = 0;
    29f8:	4401                	li	s0,0
E:\Project\tp78\mounriver_project\RF_CH582M\obj/../HAL/USB.c:346
                    len = MyLangDescr[0];
    29fa:	4791                	li	a5,4
    29fc:	b731                	j	2908 <USB_DevTransProcess+0x2f4>
E:\Project\tp78\mounriver_project\RF_CH582M\obj/../HAL/USB.c:272
      errflag = 0;
    29fe:	4401                	li	s0,0
E:\Project\tp78\mounriver_project\RF_CH582M\obj/../HAL/USB.c:327
                  len = 0xff;                                           //本程序只有4个接口，这句话正常不可能执行
    2a00:	0ff00793          	li	a5,255
    2a04:	b711                	j	2908 <USB_DevTransProcess+0x2f4>
E:\Project\tp78\mounriver_project\RF_CH582M\obj/../HAL/USB.c:369
            SetupReqLen = ( pSetupReqPak->wValue ) & 0xff;
    2a06:	00254783          	lbu	a5,2(a0)
E:\Project\tp78\mounriver_project\RF_CH582M\obj/../HAL/USB.c:420
              SetupReqLen = 2;
    2a0a:	84f19f23          	sh	a5,-1954(gp) # 200017ae <SetupReqLen>
E:\Project\tp78\mounriver_project\RF_CH582M\obj/../HAL/USB.c:428
      if ( errflag == 0xff )        // 错误或不支持
    2a0e:	b94d                	j	26c0 <USB_DevTransProcess+0xac>
E:\Project\tp78\mounriver_project\RF_CH582M\obj/../HAL/USB.c:373
            pEP0_DataBuf[0] = DevConfig;
    2a10:	85c1c783          	lbu	a5,-1956(gp) # 200017ac <DevConfig>
    2a14:	00f50023          	sb	a5,0(a0)
E:\Project\tp78\mounriver_project\RF_CH582M\obj/../HAL/USB.c:374
            if ( SetupReqLen > 1 )
    2a18:	85e1d703          	lhu	a4,-1954(gp) # 200017ae <SetupReqLen>
    2a1c:	4785                	li	a5,1
    2a1e:	cae7f1e3          	bgeu	a5,a4,26c0 <USB_DevTransProcess+0xac>
E:\Project\tp78\mounriver_project\RF_CH582M\obj/../HAL/USB.c:375
              SetupReqLen = 1;
    2a22:	4785                	li	a5,1
    2a24:	b7dd                	j	2a0a <USB_DevTransProcess+0x3f6>
E:\Project\tp78\mounriver_project\RF_CH582M\obj/../HAL/USB.c:379
            DevConfig = ( pSetupReqPak->wValue ) & 0xff;
    2a26:	00254783          	lbu	a5,2(a0)
    2a2a:	84f18e23          	sb	a5,-1956(gp) # 200017ac <DevConfig>
E:\Project\tp78\mounriver_project\RF_CH582M\obj/../HAL/USB.c:428
      if ( errflag == 0xff )        // 错误或不支持
    2a2e:	b949                	j	26c0 <USB_DevTransProcess+0xac>
E:\Project\tp78\mounriver_project\RF_CH582M\obj/../HAL/USB.c:384
            if ( ( pSetupReqPak->bRequestType & USB_REQ_RECIP_MASK ) == USB_REQ_RECIP_ENDP )    // 端点
    2a30:	01f97713          	andi	a4,s2,31
    2a34:	4789                	li	a5,2
    2a36:	f0f71ce3          	bne	a4,a5,294e <USB_DevTransProcess+0x33a>
E:\Project\tp78\mounriver_project\RF_CH582M\obj/../HAL/USB.c:386
              switch ( ( pSetupReqPak->wIndex ) & 0xff )
    2a3a:	00454783          	lbu	a5,4(a0)
    2a3e:	04e78163          	beq	a5,a4,2a80 <USB_DevTransProcess+0x46c>
    2a42:	00f76c63          	bltu	a4,a5,2a5a <USB_DevTransProcess+0x446>
    2a46:	4705                	li	a4,1
    2a48:	f0e793e3          	bne	a5,a4,294e <USB_DevTransProcess+0x33a>
E:\Project\tp78\mounriver_project\RF_CH582M\obj/../HAL/USB.c:398
                  R8_UEP1_CTRL = ( R8_UEP1_CTRL & ~( RB_UEP_R_TOG | MASK_UEP_R_RES ) ) | UEP_R_RES_ACK;
    2a4c:	40008737          	lui	a4,0x40008
    2a50:	02674783          	lbu	a5,38(a4) # 40008026 <_eusrstack+0x20000026>
    2a54:	0737f793          	andi	a5,a5,115
    2a58:	a099                	j	2a9e <USB_DevTransProcess+0x48a>
    2a5a:	08100713          	li	a4,129
    2a5e:	02e78863          	beq	a5,a4,2a8e <USB_DevTransProcess+0x47a>
    2a62:	08200713          	li	a4,130
    2a66:	eee794e3          	bne	a5,a4,294e <USB_DevTransProcess+0x33a>
E:\Project\tp78\mounriver_project\RF_CH582M\obj/../HAL/USB.c:389
                  R8_UEP2_CTRL = ( R8_UEP2_CTRL & ~( RB_UEP_T_TOG | MASK_UEP_T_RES ) ) | UEP_T_RES_NAK;
    2a6a:	40008737          	lui	a4,0x40008
    2a6e:	02a74783          	lbu	a5,42(a4) # 4000802a <_eusrstack+0x2000002a>
    2a72:	0bc7f793          	andi	a5,a5,188
    2a76:	0027e793          	ori	a5,a5,2
E:\Project\tp78\mounriver_project\RF_CH582M\obj/../HAL/USB.c:392
                  R8_UEP2_CTRL = ( R8_UEP2_CTRL & ~( RB_UEP_R_TOG | MASK_UEP_R_RES ) ) | UEP_R_RES_ACK;
    2a7a:	02f70523          	sb	a5,42(a4)
E:\Project\tp78\mounriver_project\RF_CH582M\obj/../HAL/USB.c:428
      if ( errflag == 0xff )        // 错误或不支持
    2a7e:	b189                	j	26c0 <USB_DevTransProcess+0xac>
E:\Project\tp78\mounriver_project\RF_CH582M\obj/../HAL/USB.c:392
                  R8_UEP2_CTRL = ( R8_UEP2_CTRL & ~( RB_UEP_R_TOG | MASK_UEP_R_RES ) ) | UEP_R_RES_ACK;
    2a80:	40008737          	lui	a4,0x40008
    2a84:	02a74783          	lbu	a5,42(a4) # 4000802a <_eusrstack+0x2000002a>
    2a88:	0737f793          	andi	a5,a5,115
    2a8c:	b7fd                	j	2a7a <USB_DevTransProcess+0x466>
E:\Project\tp78\mounriver_project\RF_CH582M\obj/../HAL/USB.c:395
                  R8_UEP1_CTRL = ( R8_UEP1_CTRL & ~( RB_UEP_T_TOG | MASK_UEP_T_RES ) ) | UEP_T_RES_NAK;
    2a8e:	40008737          	lui	a4,0x40008
    2a92:	02674783          	lbu	a5,38(a4) # 40008026 <_eusrstack+0x20000026>
    2a96:	0bc7f793          	andi	a5,a5,188
    2a9a:	0027e793          	ori	a5,a5,2
E:\Project\tp78\mounriver_project\RF_CH582M\obj/../HAL/USB.c:398
                  R8_UEP1_CTRL = ( R8_UEP1_CTRL & ~( RB_UEP_R_TOG | MASK_UEP_R_RES ) ) | UEP_R_RES_ACK;
    2a9e:	02f70323          	sb	a5,38(a4)
E:\Project\tp78\mounriver_project\RF_CH582M\obj/../HAL/USB.c:428
      if ( errflag == 0xff )        // 错误或不支持
    2aa2:	b939                	j	26c0 <USB_DevTransProcess+0xac>
E:\Project\tp78\mounriver_project\RF_CH582M\obj/../HAL/USB.c:411
            pEP0_DataBuf[0] = 0x00;
    2aa4:	00050023          	sb	zero,0(a0)
E:\Project\tp78\mounriver_project\RF_CH582M\obj/../HAL/USB.c:412
            if ( SetupReqLen > 1 )
    2aa8:	bf85                	j	2a18 <USB_DevTransProcess+0x404>
E:\Project\tp78\mounriver_project\RF_CH582M\obj/../HAL/USB.c:417
            pEP0_DataBuf[0] = 0x00;
    2aaa:	00050023          	sb	zero,0(a0)
E:\Project\tp78\mounriver_project\RF_CH582M\obj/../HAL/USB.c:418
            pEP0_DataBuf[1] = 0x00;
    2aae:	429c                	lw	a5,0(a3)
    2ab0:	000780a3          	sb	zero,1(a5)
E:\Project\tp78\mounriver_project\RF_CH582M\obj/../HAL/USB.c:419
            if ( SetupReqLen > 2 )
    2ab4:	85e1d703          	lhu	a4,-1954(gp) # 200017ae <SetupReqLen>
    2ab8:	4789                	li	a5,2
    2aba:	c0e7f3e3          	bgeu	a5,a4,26c0 <USB_DevTransProcess+0xac>
    2abe:	b7b1                	j	2a0a <USB_DevTransProcess+0x3f6>
E:\Project\tp78\mounriver_project\RF_CH582M\obj/../HAL/USB.c:450
  else if ( intflag & RB_UIF_BUS_RST )
    2ac0:	00177693          	andi	a3,a4,1
    2ac4:	c28d                	beqz	a3,2ae6 <USB_DevTransProcess+0x4d2>
E:\Project\tp78\mounriver_project\RF_CH582M\obj/../HAL/USB.c:452
    R8_USB_DEV_AD = 0;
    2ac6:	000781a3          	sb	zero,3(a5)
E:\Project\tp78\mounriver_project\RF_CH582M\obj/../HAL/USB.c:453
    R8_UEP0_CTRL = UEP_R_RES_ACK | UEP_T_RES_NAK;
    2aca:	4709                	li	a4,2
    2acc:	02e78123          	sb	a4,34(a5)
E:\Project\tp78\mounriver_project\RF_CH582M\obj/../HAL/USB.c:454
    R8_UEP1_CTRL = UEP_R_RES_ACK | UEP_T_RES_NAK | RB_UEP_AUTO_TOG;
    2ad0:	4749                	li	a4,18
    2ad2:	02e78323          	sb	a4,38(a5)
E:\Project\tp78\mounriver_project\RF_CH582M\obj/../HAL/USB.c:455
    R8_UEP2_CTRL = UEP_R_RES_ACK | UEP_T_RES_NAK | RB_UEP_AUTO_TOG;
    2ad6:	02e78523          	sb	a4,42(a5)
E:\Project\tp78\mounriver_project\RF_CH582M\obj/../HAL/USB.c:456
    R8_UEP3_CTRL = UEP_R_RES_ACK | UEP_T_RES_NAK | RB_UEP_AUTO_TOG;
    2ada:	02e78723          	sb	a4,46(a5)
E:\Project\tp78\mounriver_project\RF_CH582M\obj/../HAL/USB.c:457
    R8_USB_INT_FG = RB_UIF_BUS_RST;
    2ade:	4705                	li	a4,1
E:\Project\tp78\mounriver_project\RF_CH582M\obj/../HAL/USB.c:473
    R8_USB_INT_FG = intflag;
    2ae0:	00e78323          	sb	a4,6(a5)
    2ae4:	8082                	ret
E:\Project\tp78\mounriver_project\RF_CH582M\obj/../HAL/USB.c:459
  else if ( intflag & RB_UIF_SUSPEND )
    2ae6:	00477693          	andi	a3,a4,4
    2aea:	dafd                	beqz	a3,2ae0 <USB_DevTransProcess+0x4cc>
E:\Project\tp78\mounriver_project\RF_CH582M\obj/../HAL/USB.c:461
    if ( R8_USB_MIS_ST & RB_UMS_SUSPEND )
    2aec:	0057c703          	lbu	a4,5(a5)
    2af0:	8309                	srli	a4,a4,0x2
    2af2:	00174713          	xori	a4,a4,1
    2af6:	8b05                	andi	a4,a4,1
    2af8:	80e18523          	sb	a4,-2038(gp) # 2000175a <USB_Ready>
E:\Project\tp78\mounriver_project\RF_CH582M\obj/../HAL/USB.c:469
    R8_USB_INT_FG = RB_UIF_SUSPEND;
    2afc:	4711                	li	a4,4
    2afe:	b7cd                	j	2ae0 <USB_DevTransProcess+0x4cc>

00002b00 <RF_2G4StatusCallBack>:
RF_2G4StatusCallBack():
E:\Project\tp78\mounriver_project\RF_CH582M\obj/../APP/RF_PHY.c:35
 *
 * @return  none
 */
void RF_2G4StatusCallBack(uint8_t sta, uint8_t crc, uint8_t *rxBuf)
{
    switch(sta)
    2b00:	478d                	li	a5,3
    2b02:	00f50a63          	beq	a0,a5,2b16 <RF_2G4StatusCallBack+0x16>
    2b06:	4791                	li	a5,4
    2b08:	08f50863          	beq	a0,a5,2b98 <RF_2G4StatusCallBack+0x98>
    2b0c:	4789                	li	a5,2
    2b0e:	08f51463          	bne	a0,a5,2b96 <RF_2G4StatusCallBack+0x96>
E:\Project\tp78\mounriver_project\RF_CH582M\obj/../APP/RF_PHY.c:47
        {
            break;
        }
        case TX_MODE_RX_DATA:
        {
            RF_Shut();
    2b12:	2900206f          	j	4da2 <RF_Shut>
E:\Project\tp78\mounriver_project\RF_CH582M\obj/../APP/RF_PHY.c:89
        {
            break;
        }
        case RX_MODE_RX_DATA:
        {
            if(crc == 1)
    2b16:	15fd                	addi	a1,a1,-1
    2b18:	0ff5f593          	andi	a1,a1,255
    2b1c:	4785                	li	a5,1
    2b1e:	06b7fd63          	bgeu	a5,a1,2b98 <RF_2G4StatusCallBack+0x98>
E:\Project\tp78\mounriver_project\RF_CH582M\obj/../APP/RF_PHY.c:102
            else
            {
                uint8_t i;
                PRINT("rx recv, rssi: %d\n", (int8_t)rxBuf[0]);
                PRINT("len:%d-", rxBuf[1]);
                if (rxBuf[1] <= sizeof(HID_dat)) {
    2b22:	00164703          	lbu	a4,1(a2)
    2b26:	47a5                	li	a5,9
    2b28:	06e7e863          	bltu	a5,a4,2b98 <RF_2G4StatusCallBack+0x98>
E:\Project\tp78\mounriver_project\RF_CH582M\obj/../APP/RF_PHY.c:103
                    if (rxBuf[2] == 0x7A) {   //jump to boot
    2b2c:	00264583          	lbu	a1,2(a2)
E:\Project\tp78\mounriver_project\RF_CH582M\obj/../APP/RF_PHY.c:34
{
    2b30:	1141                	addi	sp,sp,-16
    2b32:	c606                	sw	ra,12(sp)
E:\Project\tp78\mounriver_project\RF_CH582M\obj/../APP/RF_PHY.c:103
                    if (rxBuf[2] == 0x7A) {   //jump to boot
    2b34:	07a00713          	li	a4,122
E:\Project\tp78\mounriver_project\RF_CH582M\obj/../APP/RF_PHY.c:107
                        PRINT("jump to boot\n");
                        APPJumpBoot();
                    } else {
                        for(i = 0; i < rxBuf[1]; i++) {
    2b38:	4781                	li	a5,0
E:\Project\tp78\mounriver_project\RF_CH582M\obj/../APP/RF_PHY.c:109
                            PRINT("%x ", rxBuf[i + 2]);
                            *((uint8_t*)&HID_dat + i) = rxBuf[i + 2];
    2b3a:	9a818693          	addi	a3,gp,-1624 # 200018f8 <HID_dat>
E:\Project\tp78\mounriver_project\RF_CH582M\obj/../APP/RF_PHY.c:103
                    if (rxBuf[2] == 0x7A) {   //jump to boot
    2b3e:	02e59763          	bne	a1,a4,2b6c <RF_2G4StatusCallBack+0x6c>
E:\Project\tp78\mounriver_project\RF_CH582M\obj/../APP/RF_PHY.c:105
                        APPJumpBoot();
    2b42:	1fffd097          	auipc	ra,0x1fffd
    2b46:	7a0080e7          	jalr	1952(ra) # 200002e2 <APPJumpBoot>
E:\Project\tp78\mounriver_project\RF_CH582M\obj/../APP/RF_PHY.c:134
        {
            break;
        }
    }
    PRINT("STA: %x\n", sta);
}
    2b4a:	40b2                	lw	ra,12(sp)
E:\Project\tp78\mounriver_project\RF_CH582M\obj/../APP/RF_PHY.c:120
            tmos_set_event(RFtaskID, SBP_RF_RF_RX_EVT);
    2b4c:	ab41c503          	lbu	a0,-1356(gp) # 20001a04 <RFtaskID>
    2b50:	4591                	li	a1,4
E:\Project\tp78\mounriver_project\RF_CH582M\obj/../APP/RF_PHY.c:134
}
    2b52:	0141                	addi	sp,sp,16
E:\Project\tp78\mounriver_project\RF_CH582M\obj/../APP/RF_PHY.c:120
            tmos_set_event(RFtaskID, SBP_RF_RF_RX_EVT);
    2b54:	a171                	j	2fe0 <tmos_set_event>
E:\Project\tp78\mounriver_project\RF_CH582M\obj/../APP/RF_PHY.c:109
                            *((uint8_t*)&HID_dat + i) = rxBuf[i + 2];
    2b56:	00f60733          	add	a4,a2,a5
    2b5a:	00274583          	lbu	a1,2(a4)
    2b5e:	00d78733          	add	a4,a5,a3
E:\Project\tp78\mounriver_project\RF_CH582M\obj/../APP/RF_PHY.c:107
                        for(i = 0; i < rxBuf[1]; i++) {
    2b62:	0785                	addi	a5,a5,1
E:\Project\tp78\mounriver_project\RF_CH582M\obj/../APP/RF_PHY.c:109
                            *((uint8_t*)&HID_dat + i) = rxBuf[i + 2];
    2b64:	00b70023          	sb	a1,0(a4)
E:\Project\tp78\mounriver_project\RF_CH582M\obj/../APP/RF_PHY.c:107
                        for(i = 0; i < rxBuf[1]; i++) {
    2b68:	0ff7f793          	andi	a5,a5,255
    2b6c:	00164703          	lbu	a4,1(a2)
    2b70:	fee7e3e3          	bltu	a5,a4,2b56 <RF_2G4StatusCallBack+0x56>
E:\Project\tp78\mounriver_project\RF_CH582M\obj/../APP/RF_PHY.c:111
                        if (USB_Ready == TRUE) {
    2b74:	80a1c583          	lbu	a1,-2038(gp) # 2000175a <USB_Ready>
    2b78:	4785                	li	a5,1
    2b7a:	fcf598e3          	bne	a1,a5,2b4a <RF_2G4StatusCallBack+0x4a>
E:\Project\tp78\mounriver_project\RF_CH582M\obj/../APP/RF_PHY.c:112
                            tmos_set_event(usbTaskID, 1<<HID_dat.label);
    2b7e:	9a81c783          	lbu	a5,-1624(gp) # 200018f8 <HID_dat>
    2b82:	00f595b3          	sll	a1,a1,a5
    2b86:	05c2                	slli	a1,a1,0x10
    2b88:	81c1                	srli	a1,a1,0x10
    2b8a:	1ffff517          	auipc	a0,0x1ffff
    2b8e:	bc654503          	lbu	a0,-1082(a0) # 20001750 <usbTaskID>
    2b92:	21b9                	jal	2fe0 <tmos_set_event>
    2b94:	bf5d                	j	2b4a <RF_2G4StatusCallBack+0x4a>
    2b96:	8082                	ret
E:\Project\tp78\mounriver_project\RF_CH582M\obj/../APP/RF_PHY.c:120
            tmos_set_event(RFtaskID, SBP_RF_RF_RX_EVT);
    2b98:	4591                	li	a1,4
    2b9a:	ab41c503          	lbu	a0,-1356(gp) # 20001a04 <RFtaskID>
    2b9e:	bf5d                	j	2b54 <RF_2G4StatusCallBack+0x54>

00002ba0 <RF_ProcessEvent>:
RF_ProcessEvent():
E:\Project\tp78\mounriver_project\RF_CH582M\obj/../APP/RF_PHY.c:147
 * @param   events  - 事件标志
 *
 * @return  未完成事件
 */
uint16_t RF_ProcessEvent(uint8_t task_id, uint16_t events)
{
    2ba0:	1141                	addi	sp,sp,-16
E:\Project\tp78\mounriver_project\RF_CH582M\obj/../APP/RF_PHY.c:148
    if(events & SYS_EVENT_MSG)
    2ba2:	01059793          	slli	a5,a1,0x10
E:\Project\tp78\mounriver_project\RF_CH582M\obj/../APP/RF_PHY.c:147
{
    2ba6:	c422                	sw	s0,8(sp)
    2ba8:	c606                	sw	ra,12(sp)
E:\Project\tp78\mounriver_project\RF_CH582M\obj/../APP/RF_PHY.c:148
    if(events & SYS_EVENT_MSG)
    2baa:	87c1                	srai	a5,a5,0x10
E:\Project\tp78\mounriver_project\RF_CH582M\obj/../APP/RF_PHY.c:147
{
    2bac:	842e                	mv	s0,a1
E:\Project\tp78\mounriver_project\RF_CH582M\obj/../APP/RF_PHY.c:148
    if(events & SYS_EVENT_MSG)
    2bae:	0007db63          	bgez	a5,2bc4 <RF_ProcessEvent+0x24>
E:\Project\tp78\mounriver_project\RF_CH582M\obj/../APP/RF_PHY.c:152
    {
        uint8_t *pMsg;

        if((pMsg = tmos_msg_receive(task_id)) != NULL)
    2bb2:	221d                	jal	2cd8 <tmos_msg_receive>
    2bb4:	c111                	beqz	a0,2bb8 <RF_ProcessEvent+0x18>
E:\Project\tp78\mounriver_project\RF_CH582M\obj/../APP/RF_PHY.c:155
        {
            // Release the TMOS message
            tmos_msg_deallocate(pMsg);
    2bb6:	28dd                	jal	2cac <tmos_msg_deallocate>
E:\Project\tp78\mounriver_project\RF_CH582M\obj/../APP/RF_PHY.c:158
        }
        // return unprocessed events
        return (events ^ SYS_EVENT_MSG);
    2bb8:	6521                	lui	a0,0x8
    2bba:	8d21                	xor	a0,a0,s0
E:\Project\tp78\mounriver_project\RF_CH582M\obj/../APP/RF_PHY.c:189
        state = RF_Rx(CAPSLOCK_DATA, 2, 0xFF, 0xFF);
        PRINT("RX mode.state = %x\n", state);
        return events ^ SBP_RF_CAPSLOCK_TX_EVT;
    }
    return 0;
}
    2bbc:	40b2                	lw	ra,12(sp)
    2bbe:	4422                	lw	s0,8(sp)
    2bc0:	0141                	addi	sp,sp,16
    2bc2:	8082                	ret
E:\Project\tp78\mounriver_project\RF_CH582M\obj/../APP/RF_PHY.c:172
    if(events & SBP_RF_RF_RX_EVT)
    2bc4:	0045f793          	andi	a5,a1,4
    2bc8:	cf99                	beqz	a5,2be6 <RF_ProcessEvent+0x46>
E:\Project\tp78\mounriver_project\RF_CH582M\obj/../APP/RF_PHY.c:175
        RF_Shut();
    2bca:	1d8020ef          	jal	ra,4da2 <RF_Shut>
E:\Project\tp78\mounriver_project\RF_CH582M\obj/../APP/RF_PHY.c:176
        state = RF_Rx(CAPSLOCK_DATA, 2, 0xFF, 0xFF);
    2bce:	0ff00693          	li	a3,255
    2bd2:	0ff00613          	li	a2,255
    2bd6:	4589                	li	a1,2
    2bd8:	80418513          	addi	a0,gp,-2044 # 20001754 <CAPSLOCK_DATA>
    2bdc:	241010ef          	jal	ra,461c <RF_Rx>
E:\Project\tp78\mounriver_project\RF_CH582M\obj/../APP/RF_PHY.c:178
        return events ^ SBP_RF_RF_RX_EVT;
    2be0:	00444513          	xori	a0,s0,4
    2be4:	bfe1                	j	2bbc <RF_ProcessEvent+0x1c>
E:\Project\tp78\mounriver_project\RF_CH582M\obj/../APP/RF_PHY.c:180
    if(events & SBP_RF_CAPSLOCK_TX_EVT)
    2be6:	0085f793          	andi	a5,a1,8
E:\Project\tp78\mounriver_project\RF_CH582M\obj/../APP/RF_PHY.c:188
    return 0;
    2bea:	4501                	li	a0,0
E:\Project\tp78\mounriver_project\RF_CH582M\obj/../APP/RF_PHY.c:180
    if(events & SBP_RF_CAPSLOCK_TX_EVT)
    2bec:	dbe1                	beqz	a5,2bbc <RF_ProcessEvent+0x1c>
E:\Project\tp78\mounriver_project\RF_CH582M\obj/../APP/RF_PHY.c:183
        RF_Shut();
    2bee:	1b4020ef          	jal	ra,4da2 <RF_Shut>
E:\Project\tp78\mounriver_project\RF_CH582M\obj/../APP/RF_PHY.c:184
        state = RF_Rx(CAPSLOCK_DATA, 2, 0xFF, 0xFF);
    2bf2:	0ff00693          	li	a3,255
    2bf6:	0ff00613          	li	a2,255
    2bfa:	4589                	li	a1,2
    2bfc:	80418513          	addi	a0,gp,-2044 # 20001754 <CAPSLOCK_DATA>
    2c00:	21d010ef          	jal	ra,461c <RF_Rx>
E:\Project\tp78\mounriver_project\RF_CH582M\obj/../APP/RF_PHY.c:186
        return events ^ SBP_RF_CAPSLOCK_TX_EVT;
    2c04:	00844513          	xori	a0,s0,8
    2c08:	bf55                	j	2bbc <RF_ProcessEvent+0x1c>

00002c0a <RF_Init>:
RF_Init():
E:\Project\tp78\mounriver_project\RF_CH582M\obj/../APP/RF_PHY.c:199
 * @brief   RF 初始化
 *
 * @return  none
 */
void RF_Init(void)
{
    2c0a:	7179                	addi	sp,sp,-48
E:\Project\tp78\mounriver_project\RF_CH582M\obj/../APP/RF_PHY.c:203
    uint8_t    state;
    rfConfig_t rfConfig;

    tmos_memset(&rfConfig, 0, sizeof(rfConfig_t));
    2c0c:	02000613          	li	a2,32
    2c10:	4581                	li	a1,0
    2c12:	850a                	mv	a0,sp
E:\Project\tp78\mounriver_project\RF_CH582M\obj/../APP/RF_PHY.c:199
{
    2c14:	d606                	sw	ra,44(sp)
E:\Project\tp78\mounriver_project\RF_CH582M\obj/../APP/RF_PHY.c:203
    tmos_memset(&rfConfig, 0, sizeof(rfConfig_t));
    2c16:	1fffe097          	auipc	ra,0x1fffe
    2c1a:	bce080e7          	jalr	-1074(ra) # 200007e4 <tmos_memset>
E:\Project\tp78\mounriver_project\RF_CH582M\obj/../APP/RF_PHY.c:204
    RFtaskID = TMOS_ProcessEventRegister(RF_ProcessEvent);
    2c1e:	00000517          	auipc	a0,0x0
    2c22:	f8250513          	addi	a0,a0,-126 # 2ba0 <RF_ProcessEvent>
    2c26:	2d8d                	jal	3298 <TMOS_ProcessEventRegister>
    2c28:	aaa18a23          	sb	a0,-1356(gp) # 20001a04 <RFtaskID>
E:\Project\tp78\mounriver_project\RF_CH582M\obj/../APP/RF_PHY.c:205
    rfConfig.accessAddress = 0x71764129; // 禁止使用0x55555555以及0xAAAAAAAA ( 建议不超过24次位反转，且不超过连续的6个0或1 )
    2c2c:	717647b7          	lui	a5,0x71764
    2c30:	12978793          	addi	a5,a5,297 # 71764129 <_eusrstack+0x5175c129>
    2c34:	c43e                	sw	a5,8(sp)
E:\Project\tp78\mounriver_project\RF_CH582M\obj/../APP/RF_PHY.c:206
    rfConfig.CRCInit = 0x555555;
    2c36:	005557b7          	lui	a5,0x555
    2c3a:	55578793          	addi	a5,a5,1365 # 555555 <_data_lma+0x54effd>
    2c3e:	c63e                	sw	a5,12(sp)
E:\Project\tp78\mounriver_project\RF_CH582M\obj/../APP/RF_PHY.c:208
    rfConfig.Channel = 8;
    rfConfig.Frequency = 2400000;
    2c40:	0024a7b7          	lui	a5,0x24a
    2c44:	f0078793          	addi	a5,a5,-256 # 249f00 <_data_lma+0x2439a8>
    2c48:	c23e                	sw	a5,4(sp)
E:\Project\tp78\mounriver_project\RF_CH582M\obj/../APP/RF_PHY.c:209
    rfConfig.LLEMode = LLE_MODE_AUTO | LLE_MODE_EX_CHANNEL; // 使能 LLE_MODE_EX_CHANNEL 表示 选择 rfConfig.Frequency 作为通信频点
    2c4a:	6785                	lui	a5,0x1
    2c4c:	84178793          	addi	a5,a5,-1983 # 841 <_einit+0x83d>
    2c50:	00f11023          	sh	a5,0(sp)
E:\Project\tp78\mounriver_project\RF_CH582M\obj/../APP/RF_PHY.c:210
    rfConfig.rfStatusCB = RF_2G4StatusCallBack;
    2c54:	00000797          	auipc	a5,0x0
    2c58:	eac78793          	addi	a5,a5,-340 # 2b00 <RF_2G4StatusCallBack>
    2c5c:	c83e                	sw	a5,16(sp)
E:\Project\tp78\mounriver_project\RF_CH582M\obj/../APP/RF_PHY.c:212
    rfConfig.RxMaxlen = 251;
    state = RF_Config(&rfConfig);
    2c5e:	850a                	mv	a0,sp
E:\Project\tp78\mounriver_project\RF_CH582M\obj/../APP/RF_PHY.c:211
    rfConfig.RxMaxlen = 251;
    2c60:	57ed                	li	a5,-5
    2c62:	00f10e23          	sb	a5,28(sp)
E:\Project\tp78\mounriver_project\RF_CH582M\obj/../APP/RF_PHY.c:212
    state = RF_Config(&rfConfig);
    2c66:	5d2010ef          	jal	ra,4238 <RF_Config>
E:\Project\tp78\mounriver_project\RF_CH582M\obj/../APP/RF_PHY.c:215
    PRINT("rf 2.4g init: %x\n", state);
    { // RX mode
        state = RF_Rx(CAPSLOCK_DATA, 2, 0xFF, 0xFF);
    2c6a:	0ff00693          	li	a3,255
    2c6e:	0ff00613          	li	a2,255
    2c72:	4589                	li	a1,2
    2c74:	80418513          	addi	a0,gp,-2044 # 20001754 <CAPSLOCK_DATA>
    2c78:	1a5010ef          	jal	ra,461c <RF_Rx>
E:\Project\tp78\mounriver_project\RF_CH582M\obj/../APP/RF_PHY.c:222
    }

    //	{ // TX mode
    //		tmos_set_event( RFtaskID , SBP_RF_PERIODIC_EVT );
    //	}
}
    2c7c:	50b2                	lw	ra,44(sp)
    2c7e:	6145                	addi	sp,sp,48
    2c80:	8082                	ret

00002c82 <main>:
main():
E:\Project\tp78\mounriver_project\RF_CH582M\obj/../APP/RF_main.c:55
 * @brief   主函数
 *
 * @return  none
 */
int main(void)
{
    2c82:	1141                	addi	sp,sp,-16
E:\Project\tp78\mounriver_project\RF_CH582M\obj/../APP/RF_main.c:59
#if(defined(DCDC_ENABLE)) && (DCDC_ENABLE == TRUE)
    PWR_DCDCCfg(ENABLE);
#endif
    SetSysClock(CLK_SOURCE_PLL_60MHz);
    2c84:	04800513          	li	a0,72
E:\Project\tp78\mounriver_project\RF_CH582M\obj/../APP/RF_main.c:55
{
    2c88:	c606                	sw	ra,12(sp)
E:\Project\tp78\mounriver_project\RF_CH582M\obj/../APP/RF_main.c:59
    SetSysClock(CLK_SOURCE_PLL_60MHz);
    2c8a:	1fffd097          	auipc	ra,0x1fffd
    2c8e:	43c080e7          	jalr	1084(ra) # 200000c6 <SetSysClock>
E:\Project\tp78\mounriver_project\RF_CH582M\obj/../APP/RF_main.c:71
    GPIOA_ModeCfg(bTXD1, GPIO_ModeOut_PP_5mA);
    UART1_DefInit();
#endif
    PRINT("start.\n");
    PRINT("%s\n", VER_LIB);
    CH58X_BLEInit();
    2c92:	e1aff0ef          	jal	ra,22ac <CH58X_BLEInit>
E:\Project\tp78\mounriver_project\RF_CH582M\obj/../APP/RF_main.c:72
    HAL_Init();
    2c96:	f2aff0ef          	jal	ra,23c0 <HAL_Init>
E:\Project\tp78\mounriver_project\RF_CH582M\obj/../APP/RF_main.c:73
    RF_RoleInit();
    2c9a:	45a020ef          	jal	ra,50f4 <RF_RoleInit>
E:\Project\tp78\mounriver_project\RF_CH582M\obj/../APP/RF_main.c:74
    RF_Init();
    2c9e:	37b5                	jal	2c0a <RF_Init>
E:\Project\tp78\mounriver_project\RF_CH582M\obj/../APP/RF_main.c:75
    HAL_USBInit();
    2ca0:	885ff0ef          	jal	ra,2524 <HAL_USBInit>
E:\Project\tp78\mounriver_project\RF_CH582M\obj/../APP/RF_main.c:76
    Main_Circulation();
    2ca4:	1fffd097          	auipc	ra,0x1fffd
    2ca8:	6da080e7          	jalr	1754(ra) # 2000037e <Main_Circulation>

00002cac <tmos_msg_deallocate>:
tmos_msg_deallocate():
    2cac:	c11d                	beqz	a0,2cd2 <tmos_msg_deallocate+0x26>
    2cae:	ffe54683          	lbu	a3,-2(a0)
    2cb2:	0ff00713          	li	a4,255
    2cb6:	4791                	li	a5,4
    2cb8:	00e69e63          	bne	a3,a4,2cd4 <tmos_msg_deallocate+0x28>
    2cbc:	1141                	addi	sp,sp,-16
    2cbe:	c606                	sw	ra,12(sp)
    2cc0:	1ffff097          	auipc	ra,0x1ffff
    2cc4:	9a4080e7          	jalr	-1628(ra) # 20001664 <tmos_memory_free>
    2cc8:	40b2                	lw	ra,12(sp)
    2cca:	4781                	li	a5,0
    2ccc:	853e                	mv	a0,a5
    2cce:	0141                	addi	sp,sp,16
    2cd0:	8082                	ret
    2cd2:	4795                	li	a5,5
    2cd4:	853e                	mv	a0,a5
    2cd6:	8082                	ret

00002cd8 <tmos_msg_receive>:
tmos_msg_receive():
    2cd8:	20000717          	auipc	a4,0x20000
    2cdc:	53070713          	addi	a4,a4,1328 # 20003208 <msg_qHead>
    2ce0:	431c                	lw	a5,0(a4)
    2ce2:	1141                	addi	sp,sp,-16
    2ce4:	c422                	sw	s0,8(sp)
    2ce6:	c226                	sw	s1,4(sp)
    2ce8:	c04a                	sw	s2,0(sp)
    2cea:	c606                	sw	ra,12(sp)
    2cec:	4401                	li	s0,0
    2cee:	4901                	li	s2,0
    2cf0:	84ba                	mv	s1,a4
    2cf2:	e789                	bnez	a5,2cfc <tmos_msg_receive+0x24>
    2cf4:	65a1                	lui	a1,0x8
    2cf6:	212d                	jal	3120 <tmos_stop_task>
    2cf8:	c41d                	beqz	s0,2d26 <tmos_msg_receive+0x4e>
    2cfa:	a801                	j	2d0a <tmos_msg_receive+0x32>
    2cfc:	ffe7c703          	lbu	a4,-2(a5)
    2d00:	02a71a63          	bne	a4,a0,2d34 <tmos_msg_receive+0x5c>
    2d04:	cc0d                	beqz	s0,2d3e <tmos_msg_receive+0x66>
    2d06:	65a1                	lui	a1,0x8
    2d08:	2ce1                	jal	2fe0 <tmos_set_event>
    2d0a:	4098                	lw	a4,0(s1)
    2d0c:	ff842783          	lw	a5,-8(s0)
    2d10:	02e41963          	bne	s0,a4,2d42 <tmos_msg_receive+0x6a>
    2d14:	20000717          	auipc	a4,0x20000
    2d18:	4ef72a23          	sw	a5,1268(a4) # 20003208 <msg_qHead>
    2d1c:	57fd                	li	a5,-1
    2d1e:	fe042c23          	sw	zero,-8(s0)
    2d22:	fef40f23          	sb	a5,-2(s0)
    2d26:	8522                	mv	a0,s0
    2d28:	40b2                	lw	ra,12(sp)
    2d2a:	4422                	lw	s0,8(sp)
    2d2c:	4492                	lw	s1,4(sp)
    2d2e:	4902                	lw	s2,0(sp)
    2d30:	0141                	addi	sp,sp,16
    2d32:	8082                	ret
    2d34:	e011                	bnez	s0,2d38 <tmos_msg_receive+0x60>
    2d36:	893e                	mv	s2,a5
    2d38:	ff87a783          	lw	a5,-8(a5)
    2d3c:	bf5d                	j	2cf2 <tmos_msg_receive+0x1a>
    2d3e:	843e                	mv	s0,a5
    2d40:	bfe5                	j	2d38 <tmos_msg_receive+0x60>
    2d42:	fef92c23          	sw	a5,-8(s2)
    2d46:	bfd9                	j	2d1c <tmos_msg_receive+0x44>

00002d48 <tmos_msg_init>:
tmos_msg_init():
    2d48:	20000797          	auipc	a5,0x20000
    2d4c:	4c07a023          	sw	zero,1216(a5) # 20003208 <msg_qHead>
    2d50:	8082                	ret

00002d52 <tmosFindTask>:
tmosFindTask():
    2d52:	20000797          	auipc	a5,0x20000
    2d56:	50e78793          	addi	a5,a5,1294 # 20003260 <taskHead>
    2d5a:	439c                	lw	a5,0(a5)
    2d5c:	e399                	bnez	a5,2d62 <tmosFindTask+0x10>
    2d5e:	853e                	mv	a0,a5
    2d60:	8082                	ret
    2d62:	0027d703          	lhu	a4,2(a5)
    2d66:	00b71663          	bne	a4,a1,2d72 <tmosFindTask+0x20>
    2d6a:	0007c703          	lbu	a4,0(a5)
    2d6e:	fea708e3          	beq	a4,a0,2d5e <tmosFindTask+0xc>
    2d72:	47dc                	lw	a5,12(a5)
    2d74:	b7e5                	j	2d5c <tmosFindTask+0xa>

00002d76 <TMOS_CB_PeriodicProcessEvent>:
TMOS_CB_PeriodicProcessEvent():
    2d76:	c1c9                	beqz	a1,2df8 <TMOS_CB_PeriodicProcessEvent+0x82>
    2d78:	7179                	addi	sp,sp,-48
    2d7a:	d422                	sw	s0,40(sp)
    2d7c:	d606                	sw	ra,44(sp)
    2d7e:	d226                	sw	s1,36(sp)
    2d80:	d04a                	sw	s2,32(sp)
    2d82:	ce4e                	sw	s3,28(sp)
    2d84:	4401                	li	s0,0
    2d86:	4741                	li	a4,16
    2d88:	4085d7b3          	sra	a5,a1,s0
    2d8c:	8b85                	andi	a5,a5,1
    2d8e:	c3a5                	beqz	a5,2dee <TMOS_CB_PeriodicProcessEvent+0x78>
    2d90:	0512                	slli	a0,a0,0x4
    2d92:	4731                	li	a4,12
    2d94:	9522                	add	a0,a0,s0
    2d96:	02e50533          	mul	a0,a0,a4
    2d9a:	20000797          	auipc	a5,0x20000
    2d9e:	50678793          	addi	a5,a5,1286 # 200032a0 <cbTimersHead>
    2da2:	0007a903          	lw	s2,0(a5)
    2da6:	4485                	li	s1,1
    2da8:	008494b3          	sll	s1,s1,s0
    2dac:	04c2                	slli	s1,s1,0x10
    2dae:	80c1                	srli	s1,s1,0x10
    2db0:	89be                	mv	s3,a5
    2db2:	992a                	add	s2,s2,a0
    2db4:	00092703          	lw	a4,0(s2)
    2db8:	c711                	beqz	a4,2dc4 <TMOS_CB_PeriodicProcessEvent+0x4e>
    2dba:	00492503          	lw	a0,4(s2)
    2dbe:	c62e                	sw	a1,12(sp)
    2dc0:	9702                	jalr	a4
    2dc2:	45b2                	lw	a1,12(sp)
    2dc4:	4731                	li	a4,12
    2dc6:	02e40433          	mul	s0,s0,a4
    2dca:	0009a783          	lw	a5,0(s3)
    2dce:	943e                	add	s0,s0,a5
    2dd0:	441c                	lw	a5,8(s0)
    2dd2:	e789                	bnez	a5,2ddc <TMOS_CB_PeriodicProcessEvent+0x66>
    2dd4:	00092023          	sw	zero,0(s2)
    2dd8:	00092223          	sw	zero,4(s2)
    2ddc:	50b2                	lw	ra,44(sp)
    2dde:	5422                	lw	s0,40(sp)
    2de0:	8da5                	xor	a1,a1,s1
    2de2:	5902                	lw	s2,32(sp)
    2de4:	5492                	lw	s1,36(sp)
    2de6:	49f2                	lw	s3,28(sp)
    2de8:	852e                	mv	a0,a1
    2dea:	6145                	addi	sp,sp,48
    2dec:	8082                	ret
    2dee:	0405                	addi	s0,s0,1
    2df0:	f8e41ce3          	bne	s0,a4,2d88 <TMOS_CB_PeriodicProcessEvent+0x12>
    2df4:	4481                	li	s1,0
    2df6:	b7dd                	j	2ddc <TMOS_CB_PeriodicProcessEvent+0x66>
    2df8:	852e                	mv	a0,a1
    2dfa:	8082                	ret

00002dfc <TMOS_CB_ProcessEvent>:
TMOS_CB_ProcessEvent():
    2dfc:	1141                	addi	sp,sp,-16
    2dfe:	01059713          	slli	a4,a1,0x10
    2e02:	c422                	sw	s0,8(sp)
    2e04:	c606                	sw	ra,12(sp)
    2e06:	c226                	sw	s1,4(sp)
    2e08:	c04a                	sw	s2,0(sp)
    2e0a:	8741                	srai	a4,a4,0x10
    2e0c:	842e                	mv	s0,a1
    2e0e:	00075e63          	bgez	a4,2e2a <TMOS_CB_ProcessEvent+0x2e>
    2e12:	35d9                	jal	2cd8 <tmos_msg_receive>
    2e14:	c111                	beqz	a0,2e18 <TMOS_CB_ProcessEvent+0x1c>
    2e16:	3d59                	jal	2cac <tmos_msg_deallocate>
    2e18:	67a1                	lui	a5,0x8
    2e1a:	8c3d                	xor	s0,s0,a5
    2e1c:	8522                	mv	a0,s0
    2e1e:	40b2                	lw	ra,12(sp)
    2e20:	4422                	lw	s0,8(sp)
    2e22:	4492                	lw	s1,4(sp)
    2e24:	4902                	lw	s2,0(sp)
    2e26:	0141                	addi	sp,sp,16
    2e28:	8082                	ret
    2e2a:	d9ed                	beqz	a1,2e1c <TMOS_CB_ProcessEvent+0x20>
    2e2c:	87aa                	mv	a5,a0
    2e2e:	4701                	li	a4,0
    2e30:	4641                	li	a2,16
    2e32:	40e456b3          	sra	a3,s0,a4
    2e36:	8a85                	andi	a3,a3,1
    2e38:	ce8d                	beqz	a3,2e72 <TMOS_CB_ProcessEvent+0x76>
    2e3a:	0792                	slli	a5,a5,0x4
    2e3c:	97ba                	add	a5,a5,a4
    2e3e:	46b1                	li	a3,12
    2e40:	02d787b3          	mul	a5,a5,a3
    2e44:	20000697          	auipc	a3,0x20000
    2e48:	45c68693          	addi	a3,a3,1116 # 200032a0 <cbTimersHead>
    2e4c:	0006a903          	lw	s2,0(a3)
    2e50:	4485                	li	s1,1
    2e52:	00e494b3          	sll	s1,s1,a4
    2e56:	04c2                	slli	s1,s1,0x10
    2e58:	80c1                	srli	s1,s1,0x10
    2e5a:	993e                	add	s2,s2,a5
    2e5c:	00092783          	lw	a5,0(s2)
    2e60:	00492503          	lw	a0,4(s2)
    2e64:	9782                	jalr	a5
    2e66:	00092023          	sw	zero,0(s2)
    2e6a:	00092223          	sw	zero,4(s2)
    2e6e:	8c25                	xor	s0,s0,s1
    2e70:	b775                	j	2e1c <TMOS_CB_ProcessEvent+0x20>
    2e72:	0705                	addi	a4,a4,1
    2e74:	fac71fe3          	bne	a4,a2,2e32 <TMOS_CB_ProcessEvent+0x36>
    2e78:	4481                	li	s1,0
    2e7a:	bfd5                	j	2e6e <TMOS_CB_ProcessEvent+0x72>

00002e7c <tmos_proces_sleep>:
tmos_proces_sleep():
    2e7c:	1101                	addi	sp,sp,-32
    2e7e:	0068                	addi	a0,sp,12
    2e80:	ce06                	sw	ra,28(sp)
    2e82:	cc22                	sw	s0,24(sp)
    2e84:	ca26                	sw	s1,20(sp)
    2e86:	005000ef          	jal	ra,368a <LL_GetNextConnectEventTime>
    2e8a:	57fd                	li	a5,-1
    2e8c:	0ef50063          	beq	a0,a5,2f6c <tmos_proces_sleep+0xf0>
    2e90:	4732                	lw	a4,12(sp)
    2e92:	20000697          	auipc	a3,0x20000
    2e96:	3d268693          	addi	a3,a3,978 # 20003264 <ble>
    2e9a:	20000797          	auipc	a5,0x20000
    2e9e:	3df7c783          	lbu	a5,991(a5) # 20003279 <ble+0x15>
    2ea2:	84b6                	mv	s1,a3
    2ea4:	0ae7f963          	bgeu	a5,a4,2f56 <tmos_proces_sleep+0xda>
    2ea8:	20000417          	auipc	s0,0x20000
    2eac:	36440413          	addi	s0,s0,868 # 2000320c <gTmosPara>
    2eb0:	4818                	lw	a4,16(s0)
    2eb2:	a8c00637          	lui	a2,0xa8c00
    2eb6:	02c70e63          	beq	a4,a2,2ef2 <tmos_proces_sleep+0x76>
    2eba:	20000797          	auipc	a5,0x20000
    2ebe:	3ee78793          	addi	a5,a5,1006 # 200032a8 <fnGetClockCBs>
    2ec2:	439c                	lw	a5,0(a5)
    2ec4:	9782                	jalr	a5
    2ec6:	4732                	lw	a4,12(sp)
    2ec8:	481c                	lw	a5,16(s0)
    2eca:	00f77363          	bgeu	a4,a5,2ed0 <tmos_proces_sleep+0x54>
    2ece:	87ba                	mv	a5,a4
    2ed0:	20000717          	auipc	a4,0x20000
    2ed4:	3a974703          	lbu	a4,937(a4) # 20003279 <ble+0x15>
    2ed8:	8f99                	sub	a5,a5,a4
    2eda:	953e                	add	a0,a0,a5
    2edc:	01648783          	lb	a5,22(s1)
    2ee0:	0007ce63          	bltz	a5,2efc <tmos_proces_sleep+0x80>
    2ee4:	a8c007b7          	lui	a5,0xa8c00
    2ee8:	00f56a63          	bltu	a0,a5,2efc <tmos_proces_sleep+0x80>
    2eec:	574007b7          	lui	a5,0x57400
    2ef0:	a8a5                	j	2f68 <tmos_proces_sleep+0xec>
    2ef2:	01668683          	lb	a3,22(a3)
    2ef6:	0606d563          	bgez	a3,2f60 <tmos_proces_sleep+0xe4>
    2efa:	8d1d                	sub	a0,a0,a5
    2efc:	20000417          	auipc	s0,0x20000
    2f00:	3bc40413          	addi	s0,s0,956 # 200032b8 <gBleIPPara>
    2f04:	4c1c                	lw	a5,24(s0)
    2f06:	cf81                	beqz	a5,2f1e <tmos_proces_sleep+0xa2>
    2f08:	20000797          	auipc	a5,0x20000
    2f0c:	41078793          	addi	a5,a5,1040 # 20003318 <gptrRFENDReg>
    2f10:	4394                	lw	a3,0(a5)
    2f12:	ffcd0737          	lui	a4,0xffcd0
    2f16:	177d                	addi	a4,a4,-1
    2f18:	469c                	lw	a5,8(a3)
    2f1a:	8ff9                	and	a5,a5,a4
    2f1c:	c69c                	sw	a5,8(a3)
    2f1e:	e119                	bnez	a0,2f24 <tmos_proces_sleep+0xa8>
    2f20:	a8c00537          	lui	a0,0xa8c00
    2f24:	20000797          	auipc	a5,0x20000
    2f28:	34078793          	addi	a5,a5,832 # 20003264 <ble>
    2f2c:	53dc                	lw	a5,36(a5)
    2f2e:	9782                	jalr	a5
    2f30:	e519                	bnez	a0,2f3e <tmos_proces_sleep+0xc2>
    2f32:	4c1c                	lw	a5,24(s0)
    2f34:	c38d                	beqz	a5,2f56 <tmos_proces_sleep+0xda>
    2f36:	7bd000ef          	jal	ra,3ef2 <LLE_DevInit>
    2f3a:	23f000ef          	jal	ra,3978 <BB_DevInit>
    2f3e:	4c1c                	lw	a5,24(s0)
    2f40:	cb99                	beqz	a5,2f56 <tmos_proces_sleep+0xda>
    2f42:	20000797          	auipc	a5,0x20000
    2f46:	3d678793          	addi	a5,a5,982 # 20003318 <gptrRFENDReg>
    2f4a:	4398                	lw	a4,0(a5)
    2f4c:	003306b7          	lui	a3,0x330
    2f50:	471c                	lw	a5,8(a4)
    2f52:	8fd5                	or	a5,a5,a3
    2f54:	c71c                	sw	a5,8(a4)
    2f56:	40f2                	lw	ra,28(sp)
    2f58:	4462                	lw	s0,24(sp)
    2f5a:	44d2                	lw	s1,20(sp)
    2f5c:	6105                	addi	sp,sp,32
    2f5e:	8082                	ret
    2f60:	f8f57de3          	bgeu	a0,a5,2efa <tmos_proces_sleep+0x7e>
    2f64:	40f707b3          	sub	a5,a4,a5
    2f68:	953e                	add	a0,a0,a5
    2f6a:	bf49                	j	2efc <tmos_proces_sleep+0x80>
    2f6c:	20000497          	auipc	s1,0x20000
    2f70:	2a048493          	addi	s1,s1,672 # 2000320c <gTmosPara>
    2f74:	489c                	lw	a5,16(s1)
    2f76:	a8c00437          	lui	s0,0xa8c00
    2f7a:	fc878ee3          	beq	a5,s0,2f56 <tmos_proces_sleep+0xda>
    2f7e:	20000797          	auipc	a5,0x20000
    2f82:	32a78793          	addi	a5,a5,810 # 200032a8 <fnGetClockCBs>
    2f86:	439c                	lw	a5,0(a5)
    2f88:	9782                	jalr	a5
    2f8a:	489c                	lw	a5,16(s1)
    2f8c:	20000717          	auipc	a4,0x20000
    2f90:	2ed74703          	lbu	a4,749(a4) # 20003279 <ble+0x15>
    2f94:	8f99                	sub	a5,a5,a4
    2f96:	953e                	add	a0,a0,a5
    2f98:	20000797          	auipc	a5,0x20000
    2f9c:	2cc78793          	addi	a5,a5,716 # 20003264 <ble>
    2fa0:	01678783          	lb	a5,22(a5)
    2fa4:	f407cce3          	bltz	a5,2efc <tmos_proces_sleep+0x80>
    2fa8:	f4856ae3          	bltu	a0,s0,2efc <tmos_proces_sleep+0x80>
    2fac:	b781                	j	2eec <tmos_proces_sleep+0x70>

00002fae <TMOS_GetSystemClock>:
TMOS_GetSystemClock():
    2fae:	20000797          	auipc	a5,0x20000
    2fb2:	2f678793          	addi	a5,a5,758 # 200032a4 <pfnTimerCBs>
    2fb6:	439c                	lw	a5,0(a5)
    2fb8:	1141                	addi	sp,sp,-16
    2fba:	c422                	sw	s0,8(sp)
    2fbc:	c606                	sw	ra,12(sp)
    2fbe:	20000417          	auipc	s0,0x20000
    2fc2:	24e40413          	addi	s0,s0,590 # 2000320c <gTmosPara>
    2fc6:	cb81                	beqz	a5,2fd6 <TMOS_GetSystemClock+0x28>
    2fc8:	9782                	jalr	a5
    2fca:	485c                	lw	a5,20(s0)
    2fcc:	953e                	add	a0,a0,a5
    2fce:	20000797          	auipc	a5,0x20000
    2fd2:	24a7a923          	sw	a0,594(a5) # 20003220 <gTmosPara+0x14>
    2fd6:	4848                	lw	a0,20(s0)
    2fd8:	40b2                	lw	ra,12(sp)
    2fda:	4422                	lw	s0,8(sp)
    2fdc:	0141                	addi	sp,sp,16
    2fde:	8082                	ret

00002fe0 <tmos_set_event>:
tmos_set_event():
    2fe0:	20000797          	auipc	a5,0x20000
    2fe4:	22d7c783          	lbu	a5,557(a5) # 2000320d <gTmosPara+0x1>
    2fe8:	02f57163          	bgeu	a0,a5,300a <tmos_set_event+0x2a>
    2fec:	20000717          	auipc	a4,0x20000
    2ff0:	27070713          	addi	a4,a4,624 # 2000325c <EventsArr>
    2ff4:	00151793          	slli	a5,a0,0x1
    2ff8:	4308                	lw	a0,0(a4)
    2ffa:	953e                	add	a0,a0,a5
    2ffc:	00055783          	lhu	a5,0(a0) # a8c00000 <_eusrstack+0x88bf8000>
    3000:	8ddd                	or	a1,a1,a5
    3002:	00b51023          	sh	a1,0(a0)
    3006:	4501                	li	a0,0
    3008:	8082                	ret
    300a:	450d                	li	a0,3
    300c:	8082                	ret

0000300e <tmos_clear_event>:
tmos_clear_event():
    300e:	20000797          	auipc	a5,0x20000
    3012:	1ff7c783          	lbu	a5,511(a5) # 2000320d <gTmosPara+0x1>
    3016:	02f57363          	bgeu	a0,a5,303c <tmos_clear_event+0x2e>
    301a:	20000717          	auipc	a4,0x20000
    301e:	24270713          	addi	a4,a4,578 # 2000325c <EventsArr>
    3022:	00151793          	slli	a5,a0,0x1
    3026:	4308                	lw	a0,0(a4)
    3028:	fff5c593          	not	a1,a1
    302c:	953e                	add	a0,a0,a5
    302e:	00055783          	lhu	a5,0(a0)
    3032:	8dfd                	and	a1,a1,a5
    3034:	00b51023          	sh	a1,0(a0)
    3038:	4501                	li	a0,0
    303a:	8082                	ret
    303c:	450d                	li	a0,3
    303e:	8082                	ret

00003040 <tmos_start_task>:
tmos_start_task():
    3040:	20000797          	auipc	a5,0x20000
    3044:	1cd7c783          	lbu	a5,461(a5) # 2000320d <gTmosPara+0x1>
    3048:	00f56463          	bltu	a0,a5,3050 <tmos_start_task+0x10>
    304c:	4501                	li	a0,0
    304e:	8082                	ret
    3050:	20000797          	auipc	a5,0x20000
    3054:	25878793          	addi	a5,a5,600 # 200032a8 <fnGetClockCBs>
    3058:	439c                	lw	a5,0(a5)
    305a:	dbed                	beqz	a5,304c <tmos_start_task+0xc>
    305c:	1101                	addi	sp,sp,-32
    305e:	cc22                	sw	s0,24(sp)
    3060:	ca26                	sw	s1,20(sp)
    3062:	c84a                	sw	s2,16(sp)
    3064:	c64e                	sw	s3,12(sp)
    3066:	ce06                	sw	ra,28(sp)
    3068:	89b2                	mv	s3,a2
    306a:	892e                	mv	s2,a1
    306c:	84aa                	mv	s1,a0
    306e:	9782                	jalr	a5
    3070:	20000417          	auipc	s0,0x20000
    3074:	1c445403          	lhu	s0,452(s0) # 20003234 <gTmosPara+0x28>
    3078:	03340433          	mul	s0,s0,s3
    307c:	64000793          	li	a5,1600
    3080:	32040413          	addi	s0,s0,800
    3084:	02f45433          	divu	s0,s0,a5
    3088:	20000797          	auipc	a5,0x20000
    308c:	1dc78793          	addi	a5,a5,476 # 20003264 <ble>
    3090:	01678703          	lb	a4,22(a5)
    3094:	89be                	mv	s3,a5
    3096:	942a                	add	s0,s0,a0
    3098:	00074963          	bltz	a4,30aa <tmos_start_task+0x6a>
    309c:	a8c007b7          	lui	a5,0xa8c00
    30a0:	00f46563          	bltu	s0,a5,30aa <tmos_start_task+0x6a>
    30a4:	574007b7          	lui	a5,0x57400
    30a8:	943e                	add	s0,s0,a5
    30aa:	85ca                	mv	a1,s2
    30ac:	8526                	mv	a0,s1
    30ae:	3155                	jal	2d52 <tmosFindTask>
    30b0:	c501                	beqz	a0,30b8 <tmos_start_task+0x78>
    30b2:	c500                	sw	s0,8(a0)
    30b4:	4505                	li	a0,1
    30b6:	a015                	j	30da <tmos_start_task+0x9a>
    30b8:	f004e593          	ori	a1,s1,-256
    30bc:	05c2                	slli	a1,a1,0x10
    30be:	81c1                	srli	a1,a1,0x10
    30c0:	4541                	li	a0,16
    30c2:	1fffe097          	auipc	ra,0x1fffe
    30c6:	4d0080e7          	jalr	1232(ra) # 20001592 <tmos_memory_allocate>
    30ca:	ed19                	bnez	a0,30e8 <tmos_start_task+0xa8>
    30cc:	0309a783          	lw	a5,48(s3)
    30d0:	c781                	beqz	a5,30d8 <tmos_start_task+0x98>
    30d2:	85a6                	mv	a1,s1
    30d4:	4511                	li	a0,4
    30d6:	9782                	jalr	a5
    30d8:	4501                	li	a0,0
    30da:	40f2                	lw	ra,28(sp)
    30dc:	4462                	lw	s0,24(sp)
    30de:	44d2                	lw	s1,20(sp)
    30e0:	4942                	lw	s2,16(sp)
    30e2:	49b2                	lw	s3,12(sp)
    30e4:	6105                	addi	sp,sp,32
    30e6:	8082                	ret
    30e8:	20000797          	auipc	a5,0x20000
    30ec:	17878793          	addi	a5,a5,376 # 20003260 <taskHead>
    30f0:	439c                	lw	a5,0(a5)
    30f2:	e39d                	bnez	a5,3118 <tmos_start_task+0xd8>
    30f4:	20000797          	auipc	a5,0x20000
    30f8:	16a7a623          	sw	a0,364(a5) # 20003260 <taskHead>
    30fc:	4785                	li	a5,1
    30fe:	00052623          	sw	zero,12(a0)
    3102:	c500                	sw	s0,8(a0)
    3104:	01251123          	sh	s2,2(a0)
    3108:	00950023          	sb	s1,0(a0)
    310c:	00f500a3          	sb	a5,1(a0)
    3110:	00052223          	sw	zero,4(a0)
    3114:	b745                	j	30b4 <tmos_start_task+0x74>
    3116:	87ba                	mv	a5,a4
    3118:	47d8                	lw	a4,12(a5)
    311a:	ff75                	bnez	a4,3116 <tmos_start_task+0xd6>
    311c:	c7c8                	sw	a0,12(a5)
    311e:	bff9                	j	30fc <tmos_start_task+0xbc>

00003120 <tmos_stop_task>:
tmos_stop_task():
    3120:	1141                	addi	sp,sp,-16
    3122:	c422                	sw	s0,8(sp)
    3124:	c226                	sw	s1,4(sp)
    3126:	c04a                	sw	s2,0(sp)
    3128:	c606                	sw	ra,12(sp)
    312a:	892a                	mv	s2,a0
    312c:	842e                	mv	s0,a1
    312e:	3115                	jal	2d52 <tmosFindTask>
    3130:	84aa                	mv	s1,a0
    3132:	c119                	beqz	a0,3138 <tmos_stop_task+0x18>
    3134:	00051123          	sh	zero,2(a0)
    3138:	85a2                	mv	a1,s0
    313a:	854a                	mv	a0,s2
    313c:	3dc9                	jal	300e <tmos_clear_event>
    313e:	20000797          	auipc	a5,0x20000
    3142:	0ce7c783          	lbu	a5,206(a5) # 2000320c <gTmosPara>
    3146:	01279b63          	bne	a5,s2,315c <tmos_stop_task+0x3c>
    314a:	20000797          	auipc	a5,0x20000
    314e:	10e7d783          	lhu	a5,270(a5) # 20003258 <eventsClear>
    3152:	8c5d                	or	s0,s0,a5
    3154:	20000797          	auipc	a5,0x20000
    3158:	10879223          	sh	s0,260(a5) # 20003258 <eventsClear>
    315c:	4501                	li	a0,0
    315e:	e091                	bnez	s1,3162 <tmos_stop_task+0x42>
    3160:	4519                	li	a0,6
    3162:	40b2                	lw	ra,12(sp)
    3164:	4422                	lw	s0,8(sp)
    3166:	4492                	lw	s1,4(sp)
    3168:	4902                	lw	s2,0(sp)
    316a:	0141                	addi	sp,sp,16
    316c:	8082                	ret

0000316e <TMOS_TimerRegister>:
TMOS_TimerRegister():
    316e:	1141                	addi	sp,sp,-16
    3170:	c606                	sw	ra,12(sp)
    3172:	20000797          	auipc	a5,0x20000
    3176:	12a7a923          	sw	a0,306(a5) # 200032a4 <pfnTimerCBs>
    317a:	9502                	jalr	a0
    317c:	40b2                	lw	ra,12(sp)
    317e:	20000797          	auipc	a5,0x20000
    3182:	0aa7a323          	sw	a0,166(a5) # 20003224 <gTmosPara+0x18>
    3186:	4501                	li	a0,0
    3188:	0141                	addi	sp,sp,16
    318a:	8082                	ret

0000318c <TMOS_ProcessRegister>:
TMOS_ProcessRegister():
    318c:	4799                	li	a5,6
    318e:	00b7e963          	bltu	a5,a1,31a0 <TMOS_ProcessRegister+0x14>
    3192:	058a                	slli	a1,a1,0x2
    3194:	20000797          	auipc	a5,0x20000
    3198:	0a878793          	addi	a5,a5,168 # 2000323c <pfnProcessCBs>
    319c:	95be                	add	a1,a1,a5
    319e:	c188                	sw	a0,0(a1)
    31a0:	8082                	ret

000031a2 <TMOS_Init>:
TMOS_Init():
    31a2:	1141                	addi	sp,sp,-16
    31a4:	4671                	li	a2,28
    31a6:	4581                	li	a1,0
    31a8:	20000517          	auipc	a0,0x20000
    31ac:	09450513          	addi	a0,a0,148 # 2000323c <pfnProcessCBs>
    31b0:	c606                	sw	ra,12(sp)
    31b2:	c422                	sw	s0,8(sp)
    31b4:	c226                	sw	s1,4(sp)
    31b6:	1fffd097          	auipc	ra,0x1fffd
    31ba:	62e080e7          	jalr	1582(ra) # 200007e4 <tmos_memset>
    31be:	02c00613          	li	a2,44
    31c2:	4581                	li	a1,0
    31c4:	20000517          	auipc	a0,0x20000
    31c8:	04850513          	addi	a0,a0,72 # 2000320c <gTmosPara>
    31cc:	1fffd097          	auipc	ra,0x1fffd
    31d0:	618080e7          	jalr	1560(ra) # 200007e4 <tmos_memset>
    31d4:	72b020ef          	jal	ra,60fe <tmos_memory_init>
    31d8:	20000797          	auipc	a5,0x20000
    31dc:	0807a423          	sw	zero,136(a5) # 20003260 <taskHead>
    31e0:	20000797          	auipc	a5,0x20000
    31e4:	0c07a223          	sw	zero,196(a5) # 200032a4 <pfnTimerCBs>
    31e8:	20000797          	auipc	a5,0x20000
    31ec:	0937c783          	lbu	a5,147(a5) # 2000327b <ble+0x17>
    31f0:	0027d513          	srli	a0,a5,0x2
    31f4:	8b8d                	andi	a5,a5,3
    31f6:	953e                	add	a0,a0,a5
    31f8:	478d                	li	a5,3
    31fa:	02f50533          	mul	a0,a0,a5
    31fe:	20000417          	auipc	s0,0x20000
    3202:	00e40413          	addi	s0,s0,14 # 2000320c <gTmosPara>
    3206:	4799                	li	a5,6
    3208:	4585                	li	a1,1
    320a:	20000497          	auipc	s1,0x20000
    320e:	02e48493          	addi	s1,s1,46 # 20003238 <tasksArr>
    3212:	0539                	addi	a0,a0,14
    3214:	0ff57513          	andi	a0,a0,255
    3218:	00a40123          	sb	a0,2(s0)
    321c:	02f50533          	mul	a0,a0,a5
    3220:	24050513          	addi	a0,a0,576
    3224:	1fffe097          	auipc	ra,0x1fffe
    3228:	36e080e7          	jalr	878(ra) # 20001592 <tmos_memory_allocate>
    322c:	20000797          	auipc	a5,0x20000
    3230:	06a7aa23          	sw	a0,116(a5) # 200032a0 <cbTimersHead>
    3234:	00244783          	lbu	a5,2(s0)
    3238:	24050513          	addi	a0,a0,576
    323c:	c088                	sw	a0,0(s1)
    323e:	078a                	slli	a5,a5,0x2
    3240:	953e                	add	a0,a0,a5
    3242:	20000797          	auipc	a5,0x20000
    3246:	00a7ad23          	sw	a0,26(a5) # 2000325c <EventsArr>
    324a:	3cfd                	jal	2d48 <tmos_msg_init>
    324c:	2ebd                	jal	35ca <tmos_snv_init>
    324e:	00144783          	lbu	a5,1(s0)
    3252:	4094                	lw	a3,0(s1)
    3254:	00000617          	auipc	a2,0x0
    3258:	b2260613          	addi	a2,a2,-1246 # 2d76 <TMOS_CB_PeriodicProcessEvent>
    325c:	00279713          	slli	a4,a5,0x2
    3260:	9736                	add	a4,a4,a3
    3262:	c310                	sw	a2,0(a4)
    3264:	00178713          	addi	a4,a5,1
    3268:	0ff77713          	andi	a4,a4,255
    326c:	070a                	slli	a4,a4,0x2
    326e:	9736                	add	a4,a4,a3
    3270:	00000617          	auipc	a2,0x0
    3274:	b8c60613          	addi	a2,a2,-1140 # 2dfc <TMOS_CB_ProcessEvent>
    3278:	c310                	sw	a2,0(a4)
    327a:	00378713          	addi	a4,a5,3
    327e:	0789                	addi	a5,a5,2
    3280:	0ff7f793          	andi	a5,a5,255
    3284:	00e400a3          	sb	a4,1(s0)
    3288:	40b2                	lw	ra,12(sp)
    328a:	4422                	lw	s0,8(sp)
    328c:	078a                	slli	a5,a5,0x2
    328e:	97b6                	add	a5,a5,a3
    3290:	c390                	sw	a2,0(a5)
    3292:	4492                	lw	s1,4(sp)
    3294:	0141                	addi	sp,sp,16
    3296:	8082                	ret

00003298 <TMOS_ProcessEventRegister>:
TMOS_ProcessEventRegister():
    3298:	20000797          	auipc	a5,0x20000
    329c:	f757c783          	lbu	a5,-139(a5) # 2000320d <gTmosPara+0x1>
    32a0:	20000717          	auipc	a4,0x20000
    32a4:	f6e74703          	lbu	a4,-146(a4) # 2000320e <gTmosPara+0x2>
    32a8:	02e7f363          	bgeu	a5,a4,32ce <TMOS_ProcessEventRegister+0x36>
    32ac:	20000717          	auipc	a4,0x20000
    32b0:	f8c70713          	addi	a4,a4,-116 # 20003238 <tasksArr>
    32b4:	4318                	lw	a4,0(a4)
    32b6:	00178693          	addi	a3,a5,1
    32ba:	20000617          	auipc	a2,0x20000
    32be:	f4d609a3          	sb	a3,-173(a2) # 2000320d <gTmosPara+0x1>
    32c2:	00279693          	slli	a3,a5,0x2
    32c6:	9736                	add	a4,a4,a3
    32c8:	c308                	sw	a0,0(a4)
    32ca:	853e                	mv	a0,a5
    32cc:	8082                	ret
    32ce:	0ff00793          	li	a5,255
    32d2:	bfe5                	j	32ca <TMOS_ProcessEventRegister+0x32>

000032d4 <BLE_LibInit>:
BLE_LibInit():
    32d4:	411c                	lw	a5,0(a0)
    32d6:	16078763          	beqz	a5,3444 <BLE_LibInit+0x170>
    32da:	7741                	lui	a4,0xffff0
    32dc:	8f7d                	and	a4,a4,a5
    32de:	200006b7          	lui	a3,0x20000
    32e2:	4789                	li	a5,2
    32e4:	16d71163          	bne	a4,a3,3446 <BLE_LibInit+0x172>
    32e8:	00455703          	lhu	a4,4(a0)
    32ec:	14070d63          	beqz	a4,3446 <BLE_LibInit+0x172>
    32f0:	1141                	addi	sp,sp,-16
    32f2:	c226                	sw	s1,4(sp)
    32f4:	4619                	li	a2,6
    32f6:	84aa                	mv	s1,a0
    32f8:	0ff00593          	li	a1,255
    32fc:	0569                	addi	a0,a0,26
    32fe:	c606                	sw	ra,12(sp)
    3300:	c422                	sw	s0,8(sp)
    3302:	1fffd097          	auipc	ra,0x1fffd
    3306:	584080e7          	jalr	1412(ra) # 20000886 <tmos_isbufset>
    330a:	4705                	li	a4,1
    330c:	478d                	li	a5,3
    330e:	12e50563          	beq	a0,a4,3438 <BLE_LibInit+0x164>
    3312:	20000417          	auipc	s0,0x20000
    3316:	f5240413          	addi	s0,s0,-174 # 20003264 <ble>
    331a:	441c                	lw	a5,8(s0)
    331c:	cb81                	beqz	a5,332c <BLE_LibInit+0x58>
    331e:	5858                	lw	a4,52(s0)
    3320:	4799                	li	a5,6
    3322:	10071b63          	bnez	a4,3438 <BLE_LibInit+0x164>
    3326:	5c18                	lw	a4,56(s0)
    3328:	10071863          	bnez	a4,3438 <BLE_LibInit+0x164>
    332c:	03c00613          	li	a2,60
    3330:	4581                	li	a1,0
    3332:	20000517          	auipc	a0,0x20000
    3336:	f3250513          	addi	a0,a0,-206 # 20003264 <ble>
    333a:	1fffd097          	auipc	ra,0x1fffd
    333e:	4aa080e7          	jalr	1194(ra) # 200007e4 <tmos_memset>
    3342:	03c00613          	li	a2,60
    3346:	85a6                	mv	a1,s1
    3348:	20000517          	auipc	a0,0x20000
    334c:	f1c50513          	addi	a0,a0,-228 # 20003264 <ble>
    3350:	1fffd097          	auipc	ra,0x1fffd
    3354:	45c080e7          	jalr	1116(ra) # 200007ac <tmos_memcpy>
    3358:	20000797          	auipc	a5,0x20000
    335c:	f187d783          	lhu	a5,-232(a5) # 20003270 <ble+0xc>
    3360:	e799                	bnez	a5,336e <BLE_LibInit+0x9a>
    3362:	10000793          	li	a5,256
    3366:	20000717          	auipc	a4,0x20000
    336a:	f0f71523          	sh	a5,-246(a4) # 20003270 <ble+0xc>
    336e:	20000797          	auipc	a5,0x20000
    3372:	f047c783          	lbu	a5,-252(a5) # 20003272 <ble+0xe>
    3376:	e791                	bnez	a5,3382 <BLE_LibInit+0xae>
    3378:	4785                	li	a5,1
    337a:	20000717          	auipc	a4,0x20000
    337e:	eef70c23          	sb	a5,-264(a4) # 20003272 <ble+0xe>
    3382:	20000797          	auipc	a5,0x20000
    3386:	ef27d783          	lhu	a5,-270(a5) # 20003274 <ble+0x10>
    338a:	e791                	bnez	a5,3396 <BLE_LibInit+0xc2>
    338c:	47ed                	li	a5,27
    338e:	20000717          	auipc	a4,0x20000
    3392:	eef71323          	sh	a5,-282(a4) # 20003274 <ble+0x10>
    3396:	20000797          	auipc	a5,0x20000
    339a:	edd7c783          	lbu	a5,-291(a5) # 20003273 <ble+0xf>
    339e:	e791                	bnez	a5,33aa <BLE_LibInit+0xd6>
    33a0:	4795                	li	a5,5
    33a2:	20000717          	auipc	a4,0x20000
    33a6:	ecf708a3          	sb	a5,-303(a4) # 20003273 <ble+0xf>
    33aa:	20000797          	auipc	a5,0x20000
    33ae:	ecc7c783          	lbu	a5,-308(a5) # 20003276 <ble+0x12>
    33b2:	e791                	bnez	a5,33be <BLE_LibInit+0xea>
    33b4:	4785                	li	a5,1
    33b6:	20000717          	auipc	a4,0x20000
    33ba:	ecf70023          	sb	a5,-320(a4) # 20003276 <ble+0x12>
    33be:	20000797          	auipc	a5,0x20000
    33c2:	eb97c783          	lbu	a5,-327(a5) # 20003277 <ble+0x13>
    33c6:	e799                	bnez	a5,33d4 <BLE_LibInit+0x100>
    33c8:	00f44783          	lbu	a5,15(s0)
    33cc:	20000717          	auipc	a4,0x20000
    33d0:	eaf705a3          	sb	a5,-341(a4) # 20003277 <ble+0x13>
    33d4:	20000797          	auipc	a5,0x20000
    33d8:	ea47c783          	lbu	a5,-348(a5) # 20003278 <ble+0x14>
    33dc:	e791                	bnez	a5,33e8 <BLE_LibInit+0x114>
    33de:	47b5                	li	a5,13
    33e0:	20000717          	auipc	a4,0x20000
    33e4:	e8f70c23          	sb	a5,-360(a4) # 20003278 <ble+0x14>
    33e8:	20000797          	auipc	a5,0x20000
    33ec:	e957c783          	lbu	a5,-363(a5) # 2000327d <ble+0x19>
    33f0:	e799                	bnez	a5,33fe <BLE_LibInit+0x12a>
    33f2:	02800793          	li	a5,40
    33f6:	20000717          	auipc	a4,0x20000
    33fa:	e8f703a3          	sb	a5,-377(a4) # 2000327d <ble+0x19>
    33fe:	20000797          	auipc	a5,0x20000
    3402:	e7b7c783          	lbu	a5,-389(a5) # 20003279 <ble+0x15>
    3406:	e799                	bnez	a5,3414 <BLE_LibInit+0x140>
    3408:	02d00793          	li	a5,45
    340c:	20000717          	auipc	a4,0x20000
    3410:	e6f706a3          	sb	a5,-403(a4) # 20003279 <ble+0x15>
    3414:	0184c783          	lbu	a5,24(s1)
    3418:	e799                	bnez	a5,3426 <BLE_LibInit+0x152>
    341a:	03c00793          	li	a5,60
    341e:	20000717          	auipc	a4,0x20000
    3422:	e4f70f23          	sb	a5,-418(a4) # 2000327c <ble+0x18>
    3426:	541c                	lw	a5,40(s0)
    3428:	c791                	beqz	a5,3434 <BLE_LibInit+0x160>
    342a:	9782                	jalr	a5
    342c:	20000797          	auipc	a5,0x20000
    3430:	dea79423          	sh	a0,-536(a5) # 20003214 <gTmosPara+0x8>
    3434:	33bd                	jal	31a2 <TMOS_Init>
    3436:	4781                	li	a5,0
    3438:	40b2                	lw	ra,12(sp)
    343a:	4422                	lw	s0,8(sp)
    343c:	4492                	lw	s1,4(sp)
    343e:	853e                	mv	a0,a5
    3440:	0141                	addi	sp,sp,16
    3442:	8082                	ret
    3444:	4789                	li	a5,2
    3446:	853e                	mv	a0,a5
    3448:	8082                	ret

0000344a <clockGetTickValve>:
clockGetTickValve():
    344a:	20000797          	auipc	a5,0x20000
    344e:	e5e78793          	addi	a5,a5,-418 # 200032a8 <fnGetClockCBs>
    3452:	439c                	lw	a5,0(a5)
    3454:	1141                	addi	sp,sp,-16
    3456:	c606                	sw	ra,12(sp)
    3458:	9782                	jalr	a5
    345a:	64000793          	li	a5,1600
    345e:	02f507b3          	mul	a5,a0,a5
    3462:	20000697          	auipc	a3,0x20000
    3466:	dd26d683          	lhu	a3,-558(a3) # 20003234 <gTmosPara+0x28>
    346a:	20000717          	auipc	a4,0x20000
    346e:	da270713          	addi	a4,a4,-606 # 2000320c <gTmosPara>
    3472:	4f18                	lw	a4,24(a4)
    3474:	4501                	li	a0,0
    3476:	02d7d7b3          	divu	a5,a5,a3
    347a:	02f70063          	beq	a4,a5,349a <clockGetTickValve+0x50>
    347e:	40e78533          	sub	a0,a5,a4
    3482:	00f76863          	bltu	a4,a5,3492 <clockGetTickValve+0x48>
    3486:	b0000537          	lui	a0,0xb0000
    348a:	02d55533          	divu	a0,a0,a3
    348e:	8d19                	sub	a0,a0,a4
    3490:	953e                	add	a0,a0,a5
    3492:	20000717          	auipc	a4,0x20000
    3496:	d8f72923          	sw	a5,-622(a4) # 20003224 <gTmosPara+0x18>
    349a:	40b2                	lw	ra,12(sp)
    349c:	0141                	addi	sp,sp,16
    349e:	8082                	ret

000034a0 <TMOS_TempSample>:
TMOS_TempSample():
    34a0:	20000797          	auipc	a5,0x20000
    34a4:	dc478793          	addi	a5,a5,-572 # 20003264 <ble>
    34a8:	5798                	lw	a4,40(a5)
    34aa:	cb39                	beqz	a4,3500 <TMOS_TempSample+0x60>
    34ac:	1141                	addi	sp,sp,-16
    34ae:	c422                	sw	s0,8(sp)
    34b0:	c226                	sw	s1,4(sp)
    34b2:	c606                	sw	ra,12(sp)
    34b4:	84be                	mv	s1,a5
    34b6:	9702                	jalr	a4
    34b8:	20000717          	auipc	a4,0x20000
    34bc:	d5c75703          	lhu	a4,-676(a4) # 20003214 <gTmosPara+0x8>
    34c0:	842a                	mv	s0,a0
    34c2:	cb15                	beqz	a4,34f6 <TMOS_TempSample+0x56>
    34c4:	87ba                	mv	a5,a4
    34c6:	00a77363          	bgeu	a4,a0,34cc <TMOS_TempSample+0x2c>
    34ca:	87aa                	mv	a5,a0
    34cc:	07c2                	slli	a5,a5,0x10
    34ce:	83c1                	srli	a5,a5,0x10
    34d0:	86ba                	mv	a3,a4
    34d2:	00e47363          	bgeu	s0,a4,34d8 <TMOS_TempSample+0x38>
    34d6:	86a2                	mv	a3,s0
    34d8:	06c2                	slli	a3,a3,0x10
    34da:	82c1                	srli	a3,a3,0x10
    34dc:	8f95                	sub	a5,a5,a3
    34de:	4751                	li	a4,20
    34e0:	00f75b63          	bge	a4,a5,34f6 <TMOS_TempSample+0x56>
    34e4:	54dc                	lw	a5,44(s1)
    34e6:	c391                	beqz	a5,34ea <TMOS_TempSample+0x4a>
    34e8:	9782                	jalr	a5
    34ea:	0d3000ef          	jal	ra,3dbc <BLE_RegInit>
    34ee:	20000797          	auipc	a5,0x20000
    34f2:	d2879323          	sh	s0,-730(a5) # 20003214 <gTmosPara+0x8>
    34f6:	40b2                	lw	ra,12(sp)
    34f8:	4422                	lw	s0,8(sp)
    34fa:	4492                	lw	s1,4(sp)
    34fc:	0141                	addi	sp,sp,16
    34fe:	8082                	ret
    3500:	8082                	ret

00003502 <TMOS_TimerInit>:
TMOS_TimerInit():
    3502:	20000797          	auipc	a5,0x20000
    3506:	d6278793          	addi	a5,a5,-670 # 20003264 <ble>
    350a:	57dc                	lw	a5,44(a5)
    350c:	1101                	addi	sp,sp,-32
    350e:	ce06                	sw	ra,28(sp)
    3510:	c781                	beqz	a5,3518 <TMOS_TimerInit+0x16>
    3512:	c62a                	sw	a0,12(sp)
    3514:	9782                	jalr	a5
    3516:	4532                	lw	a0,12(sp)
    3518:	c515                	beqz	a0,3544 <TMOS_TimerInit+0x42>
    351a:	003287b7          	lui	a5,0x328
    351e:	a1278793          	addi	a5,a5,-1518 # 327a12 <_data_lma+0x3214ba>
    3522:	20000717          	auipc	a4,0x20000
    3526:	d0f72923          	sw	a5,-750(a4) # 20003234 <gTmosPara+0x28>
    352a:	20000797          	auipc	a5,0x20000
    352e:	d6a7af23          	sw	a0,-642(a5) # 200032a8 <fnGetClockCBs>
    3532:	00000517          	auipc	a0,0x0
    3536:	f1850513          	addi	a0,a0,-232 # 344a <clockGetTickValve>
    353a:	3915                	jal	316e <TMOS_TimerRegister>
    353c:	40f2                	lw	ra,28(sp)
    353e:	4501                	li	a0,0
    3540:	6105                	addi	sp,sp,32
    3542:	8082                	ret
    3544:	20000797          	auipc	a5,0x20000
    3548:	d367c783          	lbu	a5,-714(a5) # 2000327a <ble+0x16>
    354c:	01879713          	slli	a4,a5,0x18
    3550:	8761                	srai	a4,a4,0x18
    3552:	02075c63          	bgez	a4,358a <TMOS_TimerInit+0x88>
    3556:	20000797          	auipc	a5,0x20000
    355a:	cc07a923          	sw	zero,-814(a5) # 20003228 <gTmosPara+0x1c>
    355e:	003287b7          	lui	a5,0x328
    3562:	a1278793          	addi	a5,a5,-1518 # 327a12 <_data_lma+0x3214ba>
    3566:	20000717          	auipc	a4,0x20000
    356a:	ccf72723          	sw	a5,-818(a4) # 20003234 <gTmosPara+0x28>
    356e:	577d                	li	a4,-1
    3570:	4000c7b7          	lui	a5,0x4000c
    3574:	26e7a423          	sw	a4,616(a5) # 4000c268 <_eusrstack+0x20004268>
    3578:	1fffd797          	auipc	a5,0x1fffd
    357c:	67e78793          	addi	a5,a5,1662 # 20000bf6 <clockGetHSEValue>
    3580:	20000717          	auipc	a4,0x20000
    3584:	d2f72423          	sw	a5,-728(a4) # 200032a8 <fnGetClockCBs>
    3588:	b76d                	j	3532 <TMOS_TimerInit+0x30>
    358a:	0017f713          	andi	a4,a5,1
    358e:	cf11                	beqz	a4,35aa <TMOS_TimerInit+0xa8>
    3590:	032087b7          	lui	a5,0x3208
    3594:	d0078793          	addi	a5,a5,-768 # 3207d00 <_data_lma+0x32017a8>
    3598:	20000717          	auipc	a4,0x20000
    359c:	c8f72e23          	sw	a5,-868(a4) # 20003234 <gTmosPara+0x28>
    35a0:	1fffd797          	auipc	a5,0x1fffd
    35a4:	68878793          	addi	a5,a5,1672 # 20000c28 <clockGetLSEValue>
    35a8:	bfe1                	j	3580 <TMOS_TimerInit+0x7e>
    35aa:	7761                	lui	a4,0xffff8
    35ac:	20000697          	auipc	a3,0x20000
    35b0:	c8e69423          	sh	a4,-888(a3) # 20003234 <gTmosPara+0x28>
    35b4:	cb81                	beqz	a5,35c4 <TMOS_TimerInit+0xc2>
    35b6:	32000793          	li	a5,800
    35ba:	20000717          	auipc	a4,0x20000
    35be:	c6f71e23          	sh	a5,-900(a4) # 20003236 <gTmosPara+0x2a>
    35c2:	bff9                	j	35a0 <TMOS_TimerInit+0x9e>
    35c4:	03200793          	li	a5,50
    35c8:	bfcd                	j	35ba <TMOS_TimerInit+0xb8>

000035ca <tmos_snv_init>:
tmos_snv_init():
    35ca:	1101                	addi	sp,sp,-32
    35cc:	cc22                	sw	s0,24(sp)
    35ce:	20000417          	auipc	s0,0x20000
    35d2:	c9640413          	addi	s0,s0,-874 # 20003264 <ble>
    35d6:	4408                	lw	a0,8(s0)
    35d8:	ce06                	sw	ra,28(sp)
    35da:	ca26                	sw	s1,20(sp)
    35dc:	c84a                	sw	s2,16(sp)
    35de:	e901                	bnez	a0,35ee <tmos_snv_init+0x24>
    35e0:	4505                	li	a0,1
    35e2:	40f2                	lw	ra,28(sp)
    35e4:	4462                	lw	s0,24(sp)
    35e6:	44d2                	lw	s1,20(sp)
    35e8:	4942                	lw	s2,16(sp)
    35ea:	6105                	addi	sp,sp,32
    35ec:	8082                	ret
    35ee:	585c                	lw	a5,52(s0)
    35f0:	dbe5                	beqz	a5,35e0 <tmos_snv_init+0x16>
    35f2:	5c18                	lw	a4,56(s0)
    35f4:	d775                	beqz	a4,35e0 <tmos_snv_init+0x16>
    35f6:	0070                	addi	a2,sp,12
    35f8:	4585                	li	a1,1
    35fa:	9782                	jalr	a5
    35fc:	4418                	lw	a4,8(s0)
    35fe:	47b2                	lw	a5,12(sp)
    3600:	fef700e3          	beq	a4,a5,35e0 <tmos_snv_init+0x16>
    3604:	04e00593          	li	a1,78
    3608:	20000517          	auipc	a0,0x20000
    360c:	c6855503          	lhu	a0,-920(a0) # 20003270 <ble+0xc>
    3610:	1fffe097          	auipc	ra,0x1fffe
    3614:	f82080e7          	jalr	-126(ra) # 20001592 <tmos_memory_allocate>
    3618:	20000717          	auipc	a4,0x20000
    361c:	c0a72a23          	sw	a0,-1004(a4) # 2000322c <gTmosPara+0x20>
    3620:	d161                	beqz	a0,35e0 <tmos_snv_init+0x16>
    3622:	20000617          	auipc	a2,0x20000
    3626:	c4e65603          	lhu	a2,-946(a2) # 20003270 <ble+0xc>
    362a:	0ff00593          	li	a1,255
    362e:	1fffd097          	auipc	ra,0x1fffd
    3632:	1b6080e7          	jalr	438(ra) # 200007e4 <tmos_memset>
    3636:	4481                	li	s1,0
    3638:	20000917          	auipc	s2,0x20000
    363c:	bd490913          	addi	s2,s2,-1068 # 2000320c <gTmosPara>
    3640:	20000797          	auipc	a5,0x20000
    3644:	c327c783          	lbu	a5,-974(a5) # 20003272 <ble+0xe>
    3648:	02092603          	lw	a2,32(s2)
    364c:	02f4c163          	blt	s1,a5,366e <tmos_snv_init+0xa4>
    3650:	8532                	mv	a0,a2
    3652:	1fffe097          	auipc	ra,0x1fffe
    3656:	012080e7          	jalr	18(ra) # 20001664 <tmos_memory_free>
    365a:	4501                	li	a0,0
    365c:	20000797          	auipc	a5,0x20000
    3660:	bc07a823          	sw	zero,-1072(a5) # 2000322c <gTmosPara+0x20>
    3664:	20000797          	auipc	a5,0x20000
    3668:	bc07a623          	sw	zero,-1076(a5) # 20003230 <gTmosPara+0x24>
    366c:	bf9d                	j	35e2 <tmos_snv_init+0x18>
    366e:	20000597          	auipc	a1,0x20000
    3672:	c025d583          	lhu	a1,-1022(a1) # 20003270 <ble+0xc>
    3676:	029587b3          	mul	a5,a1,s1
    367a:	4408                	lw	a0,8(s0)
    367c:	5c18                	lw	a4,56(s0)
    367e:	8189                	srli	a1,a1,0x2
    3680:	0485                	addi	s1,s1,1
    3682:	953e                	add	a0,a0,a5
    3684:	c208                	sw	a0,0(a2)
    3686:	9702                	jalr	a4
    3688:	bf65                	j	3640 <tmos_snv_init+0x76>

0000368a <LL_GetNextConnectEventTime>:
LL_GetNextConnectEventTime():
    368a:	20000797          	auipc	a5,0x20000
    368e:	b857c783          	lbu	a5,-1147(a5) # 2000320f <gTmosPara+0x3>
    3692:	18078263          	beqz	a5,3816 <LL_GetNextConnectEventTime+0x18c>
    3696:	1141                	addi	sp,sp,-16
    3698:	c04a                	sw	s2,0(sp)
    369a:	c606                	sw	ra,12(sp)
    369c:	892a                	mv	s2,a0
    369e:	c422                	sw	s0,8(sp)
    36a0:	c226                	sw	s1,4(sp)
    36a2:	557d                	li	a0,-1
    36a4:	0e090c63          	beqz	s2,379c <LL_GetNextConnectEventTime+0x112>
    36a8:	20000797          	auipc	a5,0x20000
    36ac:	c8878793          	addi	a5,a5,-888 # 20003330 <gBleLlPara>
    36b0:	08c7a683          	lw	a3,140(a5)
    36b4:	c6e5                	beqz	a3,379c <LL_GetNextConnectEventTime+0x112>
    36b6:	20000497          	auipc	s1,0x20000
    36ba:	bae48493          	addi	s1,s1,-1106 # 20003264 <ble>
    36be:	01648883          	lb	a7,22(s1)
    36c2:	000f4537          	lui	a0,0xf4
    36c6:	23f50f13          	addi	t5,a0,575 # f423f <_data_lma+0xedce7>
    36ca:	20000317          	auipc	t1,0x20000
    36ce:	b6a35303          	lhu	t1,-1174(t1) # 20003234 <gTmosPara+0x28>
    36d2:	20000f97          	auipc	t6,0x20000
    36d6:	baafcf83          	lbu	t6,-1110(t6) # 2000327c <ble+0x18>
    36da:	547d                	li	s0,-1
    36dc:	4e85                	li	t4,1
    36de:	24050513          	addi	a0,a0,576
    36e2:	a8c00e37          	lui	t3,0xa8c00
    36e6:	429d                	li	t0,7
    36e8:	4e200393          	li	t2,1250
    36ec:	574000b7          	lui	ra,0x57400
    36f0:	00b6c703          	lbu	a4,11(a3)
    36f4:	0906a783          	lw	a5,144(a3)
    36f8:	07d71a63          	bne	a4,t4,376c <LL_GetNextConnectEventTime+0xe2>
    36fc:	07e6d703          	lhu	a4,126(a3)
    3700:	03a6d603          	lhu	a2,58(a3)
    3704:	0ac77863          	bgeu	a4,a2,37b4 <LL_GetNextConnectEventTime+0x12a>
    3708:	0106c583          	lbu	a1,16(a3)
    370c:	0bd59463          	bne	a1,t4,37b4 <LL_GetNextConnectEventTime+0x12a>
    3710:	1186a583          	lw	a1,280(a3)
    3714:	e1c5                	bnez	a1,37b4 <LL_GetNextConnectEventTime+0x12a>
    3716:	0a46a583          	lw	a1,164(a3)
    371a:	edc9                	bnez	a1,37b4 <LL_GetNextConnectEventTime+0x12a>
    371c:	00f6c583          	lbu	a1,15(a3)
    3720:	08559a63          	bne	a1,t0,37b4 <LL_GetNextConnectEventTime+0x12a>
    3724:	0386d583          	lhu	a1,56(a3)
    3728:	8e19                	sub	a2,a2,a4
    372a:	0946a703          	lw	a4,148(a3)
    372e:	02c585b3          	mul	a1,a1,a2
    3732:	02654633          	div	a2,a0,t1
    3736:	027585b3          	mul	a1,a1,t2
    373a:	02e5d733          	divu	a4,a1,a4
    373e:	02c5d5b3          	divu	a1,a1,a2
    3742:	977e                	add	a4,a4,t6
    3744:	0742                	slli	a4,a4,0x10
    3746:	8341                	srli	a4,a4,0x10
    3748:	08e69223          	sh	a4,132(a3)
    374c:	00f58633          	add	a2,a1,a5
    3750:	0008c563          	bltz	a7,375a <LL_GetNextConnectEventTime+0xd0>
    3754:	01c66363          	bltu	a2,t3,375a <LL_GetNextConnectEventTime+0xd0>
    3758:	9606                	add	a2,a2,ra
    375a:	026707b3          	mul	a5,a4,t1
    375e:	97fa                	add	a5,a5,t5
    3760:	02a7d7b3          	divu	a5,a5,a0
    3764:	0408d263          	bgez	a7,37a8 <LL_GetNextConnectEventTime+0x11e>
    3768:	40f607b3          	sub	a5,a2,a5
    376c:	0087f363          	bgeu	a5,s0,3772 <LL_GetNextConnectEventTime+0xe8>
    3770:	843e                	mv	s0,a5
    3772:	4294                	lw	a3,0(a3)
    3774:	feb5                	bnez	a3,36f0 <LL_GetNextConnectEventTime+0x66>
    3776:	20000797          	auipc	a5,0x20000
    377a:	b3278793          	addi	a5,a5,-1230 # 200032a8 <fnGetClockCBs>
    377e:	439c                	lw	a5,0(a5)
    3780:	9782                	jalr	a5
    3782:	04a46863          	bltu	s0,a0,37d2 <LL_GetNextConnectEventTime+0x148>
    3786:	40a407b3          	sub	a5,s0,a0
    378a:	00f92023          	sw	a5,0(s2)
    378e:	00092783          	lw	a5,0(s2)
    3792:	4729                	li	a4,10
    3794:	04f76f63          	bltu	a4,a5,37f2 <LL_GetNextConnectEventTime+0x168>
    3798:	00092023          	sw	zero,0(s2)
    379c:	40b2                	lw	ra,12(sp)
    379e:	4422                	lw	s0,8(sp)
    37a0:	4492                	lw	s1,4(sp)
    37a2:	4902                	lw	s2,0(sp)
    37a4:	0141                	addi	sp,sp,16
    37a6:	8082                	ret
    37a8:	fcf670e3          	bgeu	a2,a5,3768 <LL_GetNextConnectEventTime+0xde>
    37ac:	40fe07b3          	sub	a5,t3,a5
    37b0:	97b2                	add	a5,a5,a2
    37b2:	bf6d                	j	376c <LL_GetNextConnectEventTime+0xe2>
    37b4:	0846d703          	lhu	a4,132(a3)
    37b8:	02670733          	mul	a4,a4,t1
    37bc:	977a                	add	a4,a4,t5
    37be:	02a75733          	divu	a4,a4,a0
    37c2:	0008d463          	bgez	a7,37ca <LL_GetNextConnectEventTime+0x140>
    37c6:	8f99                	sub	a5,a5,a4
    37c8:	b755                	j	376c <LL_GetNextConnectEventTime+0xe2>
    37ca:	fee7fee3          	bgeu	a5,a4,37c6 <LL_GetNextConnectEventTime+0x13c>
    37ce:	97f2                	add	a5,a5,t3
    37d0:	bfdd                	j	37c6 <LL_GetNextConnectEventTime+0x13c>
    37d2:	408507b3          	sub	a5,a0,s0
    37d6:	0007db63          	bgez	a5,37ec <LL_GetNextConnectEventTime+0x162>
    37da:	01648783          	lb	a5,22(s1)
    37de:	fa07c4e3          	bltz	a5,3786 <LL_GetNextConnectEventTime+0xfc>
    37e2:	a8c007b7          	lui	a5,0xa8c00
    37e6:	97a2                	add	a5,a5,s0
    37e8:	8f89                	sub	a5,a5,a0
    37ea:	b745                	j	378a <LL_GetNextConnectEventTime+0x100>
    37ec:	00092023          	sw	zero,0(s2)
    37f0:	bf79                	j	378e <LL_GetNextConnectEventTime+0x104>
    37f2:	17d9                	addi	a5,a5,-10
    37f4:	00f92023          	sw	a5,0(s2)
    37f8:	01648783          	lb	a5,22(s1)
    37fc:	0007d563          	bgez	a5,3806 <LL_GetNextConnectEventTime+0x17c>
    3800:	ff640513          	addi	a0,s0,-10
    3804:	bf61                	j	379c <LL_GetNextConnectEventTime+0x112>
    3806:	47a5                	li	a5,9
    3808:	fe87ece3          	bltu	a5,s0,3800 <LL_GetNextConnectEventTime+0x176>
    380c:	a8c00537          	lui	a0,0xa8c00
    3810:	1559                	addi	a0,a0,-10
    3812:	9522                	add	a0,a0,s0
    3814:	b761                	j	379c <LL_GetNextConnectEventTime+0x112>
    3816:	557d                	li	a0,-1
    3818:	8082                	ret

0000381a <LL_ScanSetRF>:
LL_ScanSetRF():
    381a:	1141                	addi	sp,sp,-16
    381c:	20000797          	auipc	a5,0x20000
    3820:	b1478793          	addi	a5,a5,-1260 # 20003330 <gBleLlPara>
    3824:	c226                	sw	s1,4(sp)
    3826:	20000497          	auipc	s1,0x20000
    382a:	aae48493          	addi	s1,s1,-1362 # 200032d4 <gptrLLEReg>
    382e:	c422                	sw	s0,8(sp)
    3830:	5be0                	lw	s0,116(a5)
    3832:	409c                	lw	a5,0(s1)
    3834:	c606                	sw	ra,12(sp)
    3836:	c04a                	sw	s2,0(sp)
    3838:	4398                	lw	a4,0(a5)
    383a:	8b0d                	andi	a4,a4,3
    383c:	c305                	beqz	a4,385c <LL_ScanSetRF+0x42>
    383e:	4bb8                	lw	a4,80(a5)
    3840:	9b61                	andi	a4,a4,-8
    3842:	cbb8                	sw	a4,80(a5)
    3844:	4398                	lw	a4,0(a5)
    3846:	00876713          	ori	a4,a4,8
    384a:	c398                	sw	a4,0(a5)
    384c:	439c                	lw	a5,0(a5)
    384e:	838d                	srli	a5,a5,0x3
    3850:	8b85                	andi	a5,a5,1
    3852:	c789                	beqz	a5,385c <LL_ScanSetRF+0x42>
    3854:	0001                	nop
    3856:	0001                	nop
    3858:	0001                	nop
    385a:	0001                	nop
    385c:	20000797          	auipc	a5,0x20000
    3860:	a5478793          	addi	a5,a5,-1452 # 200032b0 <gptrBBReg>
    3864:	4394                	lw	a3,0(a5)
    3866:	8e89c737          	lui	a4,0x8e89c
    386a:	ed670713          	addi	a4,a4,-298 # 8e89bed6 <_eusrstack+0x6e893ed6>
    386e:	c698                	sw	a4,8(a3)
    3870:	00555737          	lui	a4,0x555
    3874:	55570713          	addi	a4,a4,1365 # 555555 <_data_lma+0x54effd>
    3878:	c2d8                	sw	a4,4(a3)
    387a:	02244703          	lbu	a4,34(s0)
    387e:	0ff00693          	li	a3,255
    3882:	893e                	mv	s2,a5
    3884:	00d70763          	beq	a4,a3,3892 <LL_ScanSetRF+0x78>
    3888:	57fd                	li	a5,-1
    388a:	02e400a3          	sb	a4,33(s0)
    388e:	02f40123          	sb	a5,34(s0)
    3892:	02144503          	lbu	a0,33(s0)
    3896:	4789                	li	a5,2
    3898:	00f50363          	beq	a0,a5,389e <LL_ScanSetRF+0x84>
    389c:	4501                	li	a0,0
    389e:	4098                	lw	a4,0(s1)
    38a0:	435c                	lw	a5,4(a4)
    38a2:	0017e793          	ori	a5,a5,1
    38a6:	c35c                	sw	a5,4(a4)
    38a8:	fa100793          	li	a5,-95
    38ac:	00f40523          	sb	a5,10(s0)
    38b0:	20000797          	auipc	a5,0x20000
    38b4:	a117c783          	lbu	a5,-1519(a5) # 200032c1 <gBleIPPara+0x9>
    38b8:	cf81                	beqz	a5,38d0 <LL_ScanSetRF+0xb6>
    38ba:	20000717          	auipc	a4,0x20000
    38be:	a0674703          	lbu	a4,-1530(a4) # 200032c0 <gBleIPPara+0x8>
    38c2:	4795                	li	a5,5
    38c4:	00f71663          	bne	a4,a5,38d0 <LL_ScanSetRF+0xb6>
    38c8:	20000797          	auipc	a5,0x20000
    38cc:	9e078ca3          	sb	zero,-1543(a5) # 200032c1 <gBleIPPara+0x9>
    38d0:	20000717          	auipc	a4,0x20000
    38d4:	9ef74703          	lbu	a4,-1553(a4) # 200032bf <gBleIPPara+0x7>
    38d8:	479d                	li	a5,7
    38da:	00f71863          	bne	a4,a5,38ea <LL_ScanSetRF+0xd0>
    38de:	10700793          	li	a5,263
    38e2:	20000717          	auipc	a4,0x20000
    38e6:	9cf71f23          	sh	a5,-1570(a4) # 200032c0 <gBleIPPara+0x8>
    38ea:	4795                	li	a5,5
    38ec:	20000717          	auipc	a4,0x20000
    38f0:	9cf709a3          	sb	a5,-1581(a4) # 200032bf <gBleIPPara+0x7>
    38f4:	4601                	li	a2,0
    38f6:	20000797          	auipc	a5,0x20000
    38fa:	9c078123          	sb	zero,-1598(a5) # 200032b8 <gBleIPPara>
    38fe:	0ff00593          	li	a1,255
    3902:	20000797          	auipc	a5,0x20000
    3906:	9a078d23          	sb	zero,-1606(a5) # 200032bc <gBleIPPara+0x4>
    390a:	24b9                	jal	3b58 <BLE_SetPHYRxMode>
    390c:	4090                	lw	a2,0(s1)
    390e:	20000797          	auipc	a5,0x20000
    3912:	9a0787a3          	sb	zero,-1617(a5) # 200032bd <gBleIPPara+0x5>
    3916:	20000797          	auipc	a5,0x20000
    391a:	9a0781a3          	sb	zero,-1629(a5) # 200032b9 <gBleIPPara+0x1>
    391e:	4785                	li	a5,1
    3920:	c21c                	sw	a5,0(a2)
    3922:	00092783          	lw	a5,0(s2)
    3926:	003305b7          	lui	a1,0x330
    392a:	4398                	lw	a4,0(a5)
    392c:	e7f77713          	andi	a4,a4,-385
    3930:	c398                	sw	a4,0(a5)
    3932:	4398                	lw	a4,0(a5)
    3934:	e7f77713          	andi	a4,a4,-385
    3938:	10076713          	ori	a4,a4,256
    393c:	c398                	sw	a4,0(a5)
    393e:	20000717          	auipc	a4,0x20000
    3942:	9da70713          	addi	a4,a4,-1574 # 20003318 <gptrRFENDReg>
    3946:	4318                	lw	a4,0(a4)
    3948:	4714                	lw	a3,8(a4)
    394a:	8ecd                	or	a3,a3,a1
    394c:	c714                	sw	a3,8(a4)
    394e:	0d900693          	li	a3,217
    3952:	ca34                	sw	a3,80(a2)
    3954:	5754                	lw	a3,44(a4)
    3956:	9af5                	andi	a3,a3,-3
    3958:	d754                	sw	a3,44(a4)
    395a:	00944703          	lbu	a4,9(s0)
    395e:	07f77693          	andi	a3,a4,127
    3962:	4398                	lw	a4,0(a5)
    3964:	f8077713          	andi	a4,a4,-128
    3968:	8f55                	or	a4,a4,a3
    396a:	c398                	sw	a4,0(a5)
    396c:	40b2                	lw	ra,12(sp)
    396e:	4422                	lw	s0,8(sp)
    3970:	4492                	lw	s1,4(sp)
    3972:	4902                	lw	s2,0(sp)
    3974:	0141                	addi	sp,sp,16
    3976:	8082                	ret

00003978 <BB_DevInit>:
BB_DevInit():
    3978:	20000617          	auipc	a2,0x20000
    397c:	93860613          	addi	a2,a2,-1736 # 200032b0 <gptrBBReg>
    3980:	421c                	lw	a5,0(a2)
    3982:	008006b7          	lui	a3,0x800
    3986:	800115b7          	lui	a1,0x80011
    398a:	4398                	lw	a4,0(a5)
    398c:	e7858593          	addi	a1,a1,-392 # 80010e78 <_eusrstack+0x60008e78>
    3990:	8f55                	or	a4,a4,a3
    3992:	c398                	sw	a4,0(a5)
    3994:	4398                	lw	a4,0(a5)
    3996:	100006b7          	lui	a3,0x10000
    399a:	8f55                	or	a4,a4,a3
    399c:	c398                	sw	a4,0(a5)
    399e:	1d000713          	li	a4,464
    39a2:	dbd8                	sw	a4,52(a5)
    39a4:	20000717          	auipc	a4,0x20000
    39a8:	8d474703          	lbu	a4,-1836(a4) # 20003278 <ble+0x14>
    39ac:	01971693          	slli	a3,a4,0x19
    39b0:	8ecd                	or	a3,a3,a1
    39b2:	d7d4                	sw	a3,44(a5)
    39b4:	57d4                	lw	a3,44(a5)
    39b6:	820005b7          	lui	a1,0x82000
    39ba:	03f77713          	andi	a4,a4,63
    39be:	15fd                	addi	a1,a1,-1
    39c0:	8eed                	and	a3,a3,a1
    39c2:	0766                	slli	a4,a4,0x19
    39c4:	8f55                	or	a4,a4,a3
    39c6:	d7d8                	sw	a4,44(a5)
    39c8:	40001737          	lui	a4,0x40001
    39cc:	05700793          	li	a5,87
    39d0:	04f70023          	sb	a5,64(a4) # 40001040 <_eusrstack+0x1fff9040>
    39d4:	fa800793          	li	a5,-88
    39d8:	04f70023          	sb	a5,64(a4)
    39dc:	20000697          	auipc	a3,0x20000
    39e0:	89c6c683          	lbu	a3,-1892(a3) # 20003278 <ble+0x14>
    39e4:	47b5                	li	a5,13
    39e6:	02d7fb63          	bgeu	a5,a3,3a1c <BB_DevInit+0xa4>
    39ea:	02275783          	lhu	a5,34(a4)
    39ee:	0107e793          	ori	a5,a5,16
    39f2:	02f71123          	sh	a5,34(a4)
    39f6:	4218                	lw	a4,0(a2)
    39f8:	000907b7          	lui	a5,0x90
    39fc:	08378793          	addi	a5,a5,131 # 90083 <_data_lma+0x89b2b>
    3a00:	d31c                	sw	a5,32(a4)
    3a02:	e000e737          	lui	a4,0xe000e
    3a06:	47d1                	li	a5,20
    3a08:	04f709a3          	sb	a5,83(a4) # e000e053 <_eusrstack+0xc0006053>
    3a0c:	1fffd797          	auipc	a5,0x1fffd
    3a10:	23678793          	addi	a5,a5,566 # 20000c42 <BB_IRQLibHandler>
    3a14:	0017e793          	ori	a5,a5,1
    3a18:	d77c                	sw	a5,108(a4)
    3a1a:	8082                	ret
    3a1c:	02275783          	lhu	a5,34(a4)
    3a20:	07c2                	slli	a5,a5,0x10
    3a22:	83c1                	srli	a5,a5,0x10
    3a24:	9bbd                	andi	a5,a5,-17
    3a26:	07c2                	slli	a5,a5,0x10
    3a28:	83c1                	srli	a5,a5,0x10
    3a2a:	b7e1                	j	39f2 <BB_DevInit+0x7a>

00003a2c <BLE_SetPHYTxMode>:
BLE_SetPHYTxMode():
    3a2c:	20000797          	auipc	a5,0x20000
    3a30:	88878793          	addi	a5,a5,-1912 # 200032b4 <gPaControl>
    3a34:	439c                	lw	a5,0(a5)
    3a36:	cb99                	beqz	a5,3a4c <BLE_SetPHYTxMode+0x20>
    3a38:	4b94                	lw	a3,16(a5)
    3a3a:	4bd0                	lw	a2,20(a5)
    3a3c:	4298                	lw	a4,0(a3)
    3a3e:	8f51                	or	a4,a4,a2
    3a40:	c298                	sw	a4,0(a3)
    3a42:	4394                	lw	a3,0(a5)
    3a44:	479c                	lw	a5,8(a5)
    3a46:	4298                	lw	a4,0(a3)
    3a48:	8fd9                	or	a5,a5,a4
    3a4a:	c29c                	sw	a5,0(a3)
    3a4c:	20000797          	auipc	a5,0x20000
    3a50:	86478793          	addi	a5,a5,-1948 # 200032b0 <gptrBBReg>
    3a54:	20000617          	auipc	a2,0x20000
    3a58:	88060613          	addi	a2,a2,-1920 # 200032d4 <gptrLLEReg>
    3a5c:	00257693          	andi	a3,a0,2
    3a60:	4398                	lw	a4,0(a5)
    3a62:	00062803          	lw	a6,0(a2)
    3a66:	20000797          	auipc	a5,0x20000
    3a6a:	85c7c783          	lbu	a5,-1956(a5) # 200032c2 <gBleIPPara+0xa>
    3a6e:	c6c1                	beqz	a3,3af6 <BLE_SetPHYTxMode+0xca>
    3a70:	4314                	lw	a3,0(a4)
    3a72:	78f5                	lui	a7,0xffffd
    3a74:	18fd                	addi	a7,a7,-1
    3a76:	0116f6b3          	and	a3,a3,a7
    3a7a:	6309                	lui	t1,0x2
    3a7c:	0066e6b3          	or	a3,a3,t1
    3a80:	c314                	sw	a3,0(a4)
    3a82:	76d1                	lui	a3,0xffff4
    3a84:	fff68893          	addi	a7,a3,-1 # ffff3fff <_eusrstack+0xdffebfff>
    3a88:	4314                	lw	a3,0(a4)
    3a8a:	058e                	slli	a1,a1,0x3
    3a8c:	4e0d                	li	t3,3
    3a8e:	02b58593          	addi	a1,a1,43 # 8200002b <_eusrstack+0x61ff802b>
    3a92:	23678793          	addi	a5,a5,566
    3a96:	0116f6b3          	and	a3,a3,a7
    3a9a:	03c51c63          	bne	a0,t3,3ad2 <BLE_SetPHYTxMode+0xa6>
    3a9e:	6511                	lui	a0,0x4
    3aa0:	8ec9                	or	a3,a3,a0
    3aa2:	c314                	sw	a3,0(a4)
    3aa4:	6735                	lui	a4,0xd
    3aa6:	073d                	addi	a4,a4,15
    3aa8:	00e82623          	sw	a4,12(a6)
    3aac:	0000100f          	fence.i
    3ab0:	4218                	lw	a4,0(a2)
    3ab2:	f8000693          	li	a3,-128
    3ab6:	0586                	slli	a1,a1,0x1
    3ab8:	00672423          	sw	t1,8(a4) # d008 <_data_lma+0x6ab0>
    3abc:	20000617          	auipc	a2,0x20000
    3ac0:	80d60023          	sb	a3,-2048(a2) # 200032bc <gBleIPPara+0x4>
    3ac4:	95be                	add	a1,a1,a5
    3ac6:	0586                	slli	a1,a1,0x1
    3ac8:	67bd                	lui	a5,0xf
    3aca:	d36c                	sw	a1,100(a4)
    3acc:	07bd                	addi	a5,a5,15
    3ace:	c75c                	sw	a5,12(a4)
    3ad0:	8082                	ret
    3ad2:	c314                	sw	a3,0(a4)
    3ad4:	6735                	lui	a4,0xd
    3ad6:	073d                	addi	a4,a4,15
    3ad8:	00e82623          	sw	a4,12(a6)
    3adc:	0000100f          	fence.i
    3ae0:	4218                	lw	a4,0(a2)
    3ae2:	f8000693          	li	a3,-128
    3ae6:	00672423          	sw	t1,8(a4) # d008 <_data_lma+0x6ab0>
    3aea:	1ffff617          	auipc	a2,0x1ffff
    3aee:	7cd60923          	sb	a3,2002(a2) # 200032bc <gBleIPPara+0x4>
    3af2:	058e                	slli	a1,a1,0x3
    3af4:	bfc1                	j	3ac4 <BLE_SetPHYTxMode+0x98>
    3af6:	76f5                	lui	a3,0xffffd
    3af8:	fff68893          	addi	a7,a3,-1 # ffffcfff <_eusrstack+0xdfff4fff>
    3afc:	4314                	lw	a3,0(a4)
    3afe:	8905                	andi	a0,a0,1
    3b00:	09e78793          	addi	a5,a5,158 # f09e <_data_lma+0x8b46>
    3b04:	0116f6b3          	and	a3,a3,a7
    3b08:	c505                	beqz	a0,3b30 <BLE_SetPHYTxMode+0x104>
    3b0a:	c314                	sw	a3,0(a4)
    3b0c:	6735                	lui	a4,0xd
    3b0e:	073d                	addi	a4,a4,15
    3b10:	00e82623          	sw	a4,12(a6)
    3b14:	0000100f          	fence.i
    3b18:	4218                	lw	a4,0(a2)
    3b1a:	6689                	lui	a3,0x2
    3b1c:	05ad                	addi	a1,a1,11
    3b1e:	c714                	sw	a3,8(a4)
    3b20:	f8000693          	li	a3,-128
    3b24:	1ffff617          	auipc	a2,0x1ffff
    3b28:	78d60c23          	sb	a3,1944(a2) # 200032bc <gBleIPPara+0x4>
    3b2c:	058a                	slli	a1,a1,0x2
    3b2e:	bf59                	j	3ac4 <BLE_SetPHYTxMode+0x98>
    3b30:	6505                	lui	a0,0x1
    3b32:	8ec9                	or	a3,a3,a0
    3b34:	c314                	sw	a3,0(a4)
    3b36:	6735                	lui	a4,0xd
    3b38:	073d                	addi	a4,a4,15
    3b3a:	00e82623          	sw	a4,12(a6)
    3b3e:	0000100f          	fence.i
    3b42:	4218                	lw	a4,0(a2)
    3b44:	6689                	lui	a3,0x2
    3b46:	05a9                	addi	a1,a1,10
    3b48:	c714                	sw	a3,8(a4)
    3b4a:	f8000693          	li	a3,-128
    3b4e:	1ffff617          	auipc	a2,0x1ffff
    3b52:	76d60723          	sb	a3,1902(a2) # 200032bc <gBleIPPara+0x4>
    3b56:	bf71                	j	3af2 <BLE_SetPHYTxMode+0xc6>

00003b58 <BLE_SetPHYRxMode>:
BLE_SetPHYRxMode():
    3b58:	1ffff797          	auipc	a5,0x1ffff
    3b5c:	75c78793          	addi	a5,a5,1884 # 200032b4 <gPaControl>
    3b60:	439c                	lw	a5,0(a5)
    3b62:	cf89                	beqz	a5,3b7c <BLE_SetPHYRxMode+0x24>
    3b64:	43d4                	lw	a3,4(a5)
    3b66:	0087a803          	lw	a6,8(a5)
    3b6a:	4298                	lw	a4,0(a3)
    3b6c:	01076733          	or	a4,a4,a6
    3b70:	c298                	sw	a4,0(a3)
    3b72:	47d4                	lw	a3,12(a5)
    3b74:	4bdc                	lw	a5,20(a5)
    3b76:	4298                	lw	a4,0(a3)
    3b78:	8fd9                	or	a5,a5,a4
    3b7a:	c29c                	sw	a5,0(a3)
    3b7c:	1ffff797          	auipc	a5,0x1ffff
    3b80:	73478793          	addi	a5,a5,1844 # 200032b0 <gptrBBReg>
    3b84:	00257713          	andi	a4,a0,2
    3b88:	439c                	lw	a5,0(a5)
    3b8a:	c335                	beqz	a4,3bee <BLE_SetPHYRxMode+0x96>
    3b8c:	4398                	lw	a4,0(a5)
    3b8e:	76f5                	lui	a3,0xffffd
    3b90:	16fd                	addi	a3,a3,-1
    3b92:	8f75                	and	a4,a4,a3
    3b94:	6689                	lui	a3,0x2
    3b96:	8f55                	or	a4,a4,a3
    3b98:	c398                	sw	a4,0(a5)
    3b9a:	00090737          	lui	a4,0x90
    3b9e:	08670713          	addi	a4,a4,134 # 90086 <_data_lma+0x89b2e>
    3ba2:	d398                	sw	a4,32(a5)
    3ba4:	00372737          	lui	a4,0x372
    3ba8:	2df70713          	addi	a4,a4,735 # 3722df <_data_lma+0x36bd87>
    3bac:	cb98                	sw	a4,16(a5)
    3bae:	08302737          	lui	a4,0x8302
    3bb2:	1745                	addi	a4,a4,-15
    3bb4:	cbd8                	sw	a4,20(a5)
    3bb6:	00031737          	lui	a4,0x31
    3bba:	61970713          	addi	a4,a4,1561 # 31619 <_data_lma+0x2b0c1>
    3bbe:	cf98                	sw	a4,24(a5)
    3bc0:	670d                	lui	a4,0x3
    3bc2:	8de70713          	addi	a4,a4,-1826 # 28de <USB_DevTransProcess+0x2ca>
    3bc6:	d798                	sw	a4,40(a5)
    3bc8:	01006737          	lui	a4,0x1006
    3bcc:	31070713          	addi	a4,a4,784 # 1006310 <_data_lma+0xfffdb8>
    3bd0:	059e                	slli	a1,a1,0x7
    3bd2:	d3d8                	sw	a4,36(a5)
    3bd4:	36458593          	addi	a1,a1,868
    3bd8:	1ffff797          	auipc	a5,0x1ffff
    3bdc:	6eb7a623          	sw	a1,1772(a5) # 200032c4 <gBleIPPara+0xc>
    3be0:	c611                	beqz	a2,3bec <BLE_SetPHYRxMode+0x94>
    3be2:	0606                	slli	a2,a2,0x1
    3be4:	1ffff797          	auipc	a5,0x1ffff
    3be8:	6ec7a023          	sw	a2,1760(a5) # 200032c4 <gBleIPPara+0xc>
    3bec:	8082                	ret
    3bee:	00090737          	lui	a4,0x90
    3bf2:	08370713          	addi	a4,a4,131 # 90083 <_data_lma+0x89b2b>
    3bf6:	d398                	sw	a4,32(a5)
    3bf8:	08102737          	lui	a4,0x8102
    3bfc:	90170713          	addi	a4,a4,-1791 # 8101901 <_data_lma+0x80fb3a9>
    3c00:	cbd8                	sw	a4,20(a5)
    3c02:	00031737          	lui	a4,0x31
    3c06:	62470713          	addi	a4,a4,1572 # 31624 <_data_lma+0x2b0cc>
    3c0a:	cf98                	sw	a4,24(a5)
    3c0c:	670d                	lui	a4,0x3
    3c0e:	8be70713          	addi	a4,a4,-1858 # 28be <USB_DevTransProcess+0x2aa>
    3c12:	d798                	sw	a4,40(a5)
    3c14:	01006737          	lui	a4,0x1006
    3c18:	31070713          	addi	a4,a4,784 # 1006310 <_data_lma+0xfffdb8>
    3c1c:	d3d8                	sw	a4,36(a5)
    3c1e:	7775                	lui	a4,0xffffd
    3c20:	fff70693          	addi	a3,a4,-1 # ffffcfff <_eusrstack+0xdfff4fff>
    3c24:	4398                	lw	a4,0(a5)
    3c26:	4805                	li	a6,1
    3c28:	0595                	addi	a1,a1,5
    3c2a:	8f75                	and	a4,a4,a3
    3c2c:	01051c63          	bne	a0,a6,3c44 <BLE_SetPHYRxMode+0xec>
    3c30:	c398                	sw	a4,0(a5)
    3c32:	002d2737          	lui	a4,0x2d2
    3c36:	2d070713          	addi	a4,a4,720 # 2d22d0 <_data_lma+0x2cbd78>
    3c3a:	cb98                	sw	a4,16(a5)
    3c3c:	058e                	slli	a1,a1,0x3
    3c3e:	03c58593          	addi	a1,a1,60
    3c42:	bf59                	j	3bd8 <BLE_SetPHYRxMode+0x80>
    3c44:	6685                	lui	a3,0x1
    3c46:	8f55                	or	a4,a4,a3
    3c48:	c398                	sw	a4,0(a5)
    3c4a:	00372737          	lui	a4,0x372
    3c4e:	2d070713          	addi	a4,a4,720 # 3722d0 <_data_lma+0x36bd78>
    3c52:	cb98                	sw	a4,16(a5)
    3c54:	0592                	slli	a1,a1,0x4
    3c56:	b7e5                	j	3c3e <BLE_SetPHYRxMode+0xe6>

00003c58 <ll_multi_states_check>:
ll_multi_states_check():
    3c58:	1ffff797          	auipc	a5,0x1ffff
    3c5c:	6697c783          	lbu	a5,1641(a5) # 200032c1 <gBleIPPara+0x9>
    3c60:	e78d                	bnez	a5,3c8a <ll_multi_states_check+0x32>
    3c62:	1ffff717          	auipc	a4,0x1ffff
    3c66:	65d74703          	lbu	a4,1629(a4) # 200032bf <gBleIPPara+0x7>
    3c6a:	ffb70793          	addi	a5,a4,-5
    3c6e:	0ff7f793          	andi	a5,a5,255
    3c72:	4689                	li	a3,2
    3c74:	00f6eb63          	bltu	a3,a5,3c8a <ll_multi_states_check+0x32>
    3c78:	1ffff797          	auipc	a5,0x1ffff
    3c7c:	64e78423          	sb	a4,1608(a5) # 200032c0 <gBleIPPara+0x8>
    3c80:	4785                	li	a5,1
    3c82:	1ffff717          	auipc	a4,0x1ffff
    3c86:	62f70fa3          	sb	a5,1599(a4) # 200032c1 <gBleIPPara+0x9>
    3c8a:	8082                	ret

00003c8c <ll_multi_states_process>:
ll_multi_states_process():
    3c8c:	1141                	addi	sp,sp,-16
    3c8e:	c606                	sw	ra,12(sp)
    3c90:	1ffff717          	auipc	a4,0x1ffff
    3c94:	63074703          	lbu	a4,1584(a4) # 200032c0 <gBleIPPara+0x8>
    3c98:	479d                	li	a5,7
    3c9a:	04f71163          	bne	a4,a5,3cdc <ll_multi_states_process+0x50>
    3c9e:	1ffff797          	auipc	a5,0x1ffff
    3ca2:	63a7c783          	lbu	a5,1594(a5) # 200032d8 <rfConfig>
    3ca6:	8b85                	andi	a5,a5,1
    3ca8:	1ffff617          	auipc	a2,0x1ffff
    3cac:	65364603          	lbu	a2,1619(a2) # 200032fb <rfInfo+0x3>
    3cb0:	1ffff697          	auipc	a3,0x1ffff
    3cb4:	64a6c683          	lbu	a3,1610(a3) # 200032fa <rfInfo+0x2>
    3cb8:	c7b5                	beqz	a5,3d24 <ll_multi_states_process+0x98>
    3cba:	1ffff797          	auipc	a5,0x1ffff
    3cbe:	63e78793          	addi	a5,a5,1598 # 200032f8 <rfInfo>
    3cc2:	43c8                	lw	a0,4(a5)
    3cc4:	c125                	beqz	a0,3d24 <ll_multi_states_process+0x98>
    3cc6:	00154583          	lbu	a1,1(a0) # 1001 <_einit+0xffd>
    3cca:	0509                	addi	a0,a0,2
    3ccc:	151000ef          	jal	ra,461c <RF_Rx>
    3cd0:	c511                	beqz	a0,3cdc <ll_multi_states_process+0x50>
    3cd2:	4785                	li	a5,1
    3cd4:	1ffff717          	auipc	a4,0x1ffff
    3cd8:	5ef706a3          	sb	a5,1517(a4) # 200032c1 <gBleIPPara+0x9>
    3cdc:	1ffff717          	auipc	a4,0x1ffff
    3ce0:	5e474703          	lbu	a4,1508(a4) # 200032c0 <gBleIPPara+0x8>
    3ce4:	4795                	li	a5,5
    3ce6:	00f71b63          	bne	a4,a5,3cfc <ll_multi_states_process+0x70>
    3cea:	1ffff797          	auipc	a5,0x1ffff
    3cee:	64678793          	addi	a5,a5,1606 # 20003330 <gBleLlPara>
    3cf2:	5bfc                	lw	a5,116(a5)
    3cf4:	00b7c783          	lbu	a5,11(a5)
    3cf8:	cb8d                	beqz	a5,3d2a <ll_multi_states_process+0x9e>
    3cfa:	3605                	jal	381a <LL_ScanSetRF>
    3cfc:	1ffff717          	auipc	a4,0x1ffff
    3d00:	5c474703          	lbu	a4,1476(a4) # 200032c0 <gBleIPPara+0x8>
    3d04:	4799                	li	a5,6
    3d06:	02f71263          	bne	a4,a5,3d2a <ll_multi_states_process+0x9e>
    3d0a:	1ffff797          	auipc	a5,0x1ffff
    3d0e:	62678793          	addi	a5,a5,1574 # 20003330 <gBleLlPara>
    3d12:	0847a783          	lw	a5,132(a5)
    3d16:	0077c783          	lbu	a5,7(a5)
    3d1a:	cb81                	beqz	a5,3d2a <ll_multi_states_process+0x9e>
    3d1c:	40b2                	lw	ra,12(sp)
    3d1e:	0141                	addi	sp,sp,16
    3d20:	4560206f          	j	6176 <LL_InitiateSetRF>
    3d24:	4581                	li	a1,0
    3d26:	4501                	li	a0,0
    3d28:	b755                	j	3ccc <ll_multi_states_process+0x40>
    3d2a:	40b2                	lw	ra,12(sp)
    3d2c:	0141                	addi	sp,sp,16
    3d2e:	8082                	ret

00003d30 <ble_ll_hw_api_shut>:
ble_ll_hw_api_shut():
    3d30:	1ffff717          	auipc	a4,0x1ffff
    3d34:	5a470713          	addi	a4,a4,1444 # 200032d4 <gptrLLEReg>
    3d38:	431c                	lw	a5,0(a4)
    3d3a:	4394                	lw	a3,0(a5)
    3d3c:	8a8d                	andi	a3,a3,3
    3d3e:	c285                	beqz	a3,3d5e <ble_ll_hw_api_shut+0x2e>
    3d40:	4bb4                	lw	a3,80(a5)
    3d42:	9ae1                	andi	a3,a3,-8
    3d44:	cbb4                	sw	a3,80(a5)
    3d46:	4394                	lw	a3,0(a5)
    3d48:	0086e693          	ori	a3,a3,8
    3d4c:	c394                	sw	a3,0(a5)
    3d4e:	439c                	lw	a5,0(a5)
    3d50:	838d                	srli	a5,a5,0x3
    3d52:	8b85                	andi	a5,a5,1
    3d54:	c789                	beqz	a5,3d5e <ble_ll_hw_api_shut+0x2e>
    3d56:	0001                	nop
    3d58:	0001                	nop
    3d5a:	0001                	nop
    3d5c:	0001                	nop
    3d5e:	1ffff797          	auipc	a5,0x1ffff
    3d62:	55278793          	addi	a5,a5,1362 # 200032b0 <gptrBBReg>
    3d66:	4394                	lw	a3,0(a5)
    3d68:	429c                	lw	a5,0(a3)
    3d6a:	e7f7f793          	andi	a5,a5,-385
    3d6e:	0807e793          	ori	a5,a5,128
    3d72:	c29c                	sw	a5,0(a3)
    3d74:	1ffff797          	auipc	a5,0x1ffff
    3d78:	5a478793          	addi	a5,a5,1444 # 20003318 <gptrRFENDReg>
    3d7c:	4390                	lw	a2,0(a5)
    3d7e:	ffce06b7          	lui	a3,0xffce0
    3d82:	16fd                	addi	a3,a3,-1
    3d84:	461c                	lw	a5,8(a2)
    3d86:	8ff5                	and	a5,a5,a3
    3d88:	c61c                	sw	a5,8(a2)
    3d8a:	431c                	lw	a5,0(a4)
    3d8c:	08000713          	li	a4,128
    3d90:	cbb8                	sw	a4,80(a5)
    3d92:	1ffff797          	auipc	a5,0x1ffff
    3d96:	52278793          	addi	a5,a5,1314 # 200032b4 <gPaControl>
    3d9a:	439c                	lw	a5,0(a5)
    3d9c:	cb99                	beqz	a5,3db2 <ble_ll_hw_api_shut+0x82>
    3d9e:	43d4                	lw	a3,4(a5)
    3da0:	4790                	lw	a2,8(a5)
    3da2:	4298                	lw	a4,0(a3)
    3da4:	8f51                	or	a4,a4,a2
    3da6:	c298                	sw	a4,0(a3)
    3da8:	4b94                	lw	a3,16(a5)
    3daa:	4bdc                	lw	a5,20(a5)
    3dac:	4298                	lw	a4,0(a3)
    3dae:	8fd9                	or	a5,a5,a4
    3db0:	c29c                	sw	a5,0(a3)
    3db2:	1ffff797          	auipc	a5,0x1ffff
    3db6:	500786a3          	sb	zero,1293(a5) # 200032bf <gBleIPPara+0x7>
    3dba:	8082                	ret

00003dbc <BLE_RegInit>:
BLE_RegInit():
    3dbc:	1ffff797          	auipc	a5,0x1ffff
    3dc0:	4fc78793          	addi	a5,a5,1276 # 200032b8 <gBleIPPara>
    3dc4:	4f9c                	lw	a5,24(a5)
    3dc6:	c7dd                	beqz	a5,3e74 <BLE_RegInit+0xb8>
    3dc8:	1141                	addi	sp,sp,-16
    3dca:	c606                	sw	ra,12(sp)
    3dcc:	c422                	sw	s0,8(sp)
    3dce:	c226                	sw	s1,4(sp)
    3dd0:	c04a                	sw	s2,0(sp)
    3dd2:	2205                	jal	3ef2 <LLE_DevInit>
    3dd4:	1ffff917          	auipc	s2,0x1ffff
    3dd8:	4dc90913          	addi	s2,s2,1244 # 200032b0 <gptrBBReg>
    3ddc:	39e010ef          	jal	ra,517a <RFEND_DevInit>
    3de0:	3e61                	jal	3978 <BB_DevInit>
    3de2:	00092783          	lw	a5,0(s2)
    3de6:	76f5                	lui	a3,0xffffd
    3de8:	16fd                	addi	a3,a3,-1
    3dea:	4398                	lw	a4,0(a5)
    3dec:	1ffff497          	auipc	s1,0x1ffff
    3df0:	52c48493          	addi	s1,s1,1324 # 20003318 <gptrRFENDReg>
    3df4:	1ffff417          	auipc	s0,0x1ffff
    3df8:	4e040413          	addi	s0,s0,1248 # 200032d4 <gptrLLEReg>
    3dfc:	8f75                	and	a4,a4,a3
    3dfe:	c398                	sw	a4,0(a5)
    3e00:	4398                	lw	a4,0(a5)
    3e02:	003306b7          	lui	a3,0x330
    3e06:	e7f77713          	andi	a4,a4,-385
    3e0a:	c398                	sw	a4,0(a5)
    3e0c:	4398                	lw	a4,0(a5)
    3e0e:	e7f77713          	andi	a4,a4,-385
    3e12:	10076713          	ori	a4,a4,256
    3e16:	c398                	sw	a4,0(a5)
    3e18:	4098                	lw	a4,0(s1)
    3e1a:	471c                	lw	a5,8(a4)
    3e1c:	8fd5                	or	a5,a5,a3
    3e1e:	c71c                	sw	a5,8(a4)
    3e20:	401c                	lw	a5,0(s0)
    3e22:	0dd00713          	li	a4,221
    3e26:	cbb8                	sw	a4,80(a5)
    3e28:	580010ef          	jal	ra,53a8 <RFEND_TXCtune>
    3e2c:	292020ef          	jal	ra,60be <RFEND_TXFtune>
    3e30:	4be010ef          	jal	ra,52ee <RFEND_RXFilter>
    3e34:	53a010ef          	jal	ra,536e <RFEND_RXAdc>
    3e38:	00092703          	lw	a4,0(s2)
    3e3c:	431c                	lw	a5,0(a4)
    3e3e:	e7f7f793          	andi	a5,a5,-385
    3e42:	0807e793          	ori	a5,a5,128
    3e46:	c31c                	sw	a5,0(a4)
    3e48:	4094                	lw	a3,0(s1)
    3e4a:	ffce0737          	lui	a4,0xffce0
    3e4e:	177d                	addi	a4,a4,-1
    3e50:	469c                	lw	a5,8(a3)
    3e52:	8ff9                	and	a5,a5,a4
    3e54:	c69c                	sw	a5,8(a3)
    3e56:	401c                	lw	a5,0(s0)
    3e58:	08000713          	li	a4,128
    3e5c:	cbb8                	sw	a4,80(a5)
    3e5e:	3bed                	jal	3c58 <ll_multi_states_check>
    3e60:	40b2                	lw	ra,12(sp)
    3e62:	4422                	lw	s0,8(sp)
    3e64:	1ffff797          	auipc	a5,0x1ffff
    3e68:	44078da3          	sb	zero,1115(a5) # 200032bf <gBleIPPara+0x7>
    3e6c:	4492                	lw	s1,4(sp)
    3e6e:	4902                	lw	s2,0(sp)
    3e70:	0141                	addi	sp,sp,16
    3e72:	8082                	ret
    3e74:	8082                	ret

00003e76 <BLE_IPCoreInit>:
BLE_IPCoreInit():
    3e76:	1ffff797          	auipc	a5,0x1ffff
    3e7a:	4207af23          	sw	zero,1086(a5) # 200032b4 <gPaControl>
    3e7e:	4000c7b7          	lui	a5,0x4000c
    3e82:	30078713          	addi	a4,a5,768 # 4000c300 <_eusrstack+0x20004300>
    3e86:	1ffff697          	auipc	a3,0x1ffff
    3e8a:	42e6a323          	sw	a4,1062(a3) # 200032ac <gptrAESReg>
    3e8e:	20078713          	addi	a4,a5,512
    3e92:	1ffff697          	auipc	a3,0x1ffff
    3e96:	44e6a123          	sw	a4,1090(a3) # 200032d4 <gptrLLEReg>
    3e9a:	10078793          	addi	a5,a5,256
    3e9e:	4000d737          	lui	a4,0x4000d
    3ea2:	1141                	addi	sp,sp,-16
    3ea4:	1ffff697          	auipc	a3,0x1ffff
    3ea8:	46e6aa23          	sw	a4,1140(a3) # 20003318 <gptrRFENDReg>
    3eac:	1ffff717          	auipc	a4,0x1ffff
    3eb0:	40f72223          	sw	a5,1028(a4) # 200032b0 <gptrBBReg>
    3eb4:	c606                	sw	ra,12(sp)
    3eb6:	1ffff717          	auipc	a4,0x1ffff
    3eba:	40270713          	addi	a4,a4,1026 # 200032b8 <gBleIPPara>
    3ebe:	4785                	li	a5,1
    3ec0:	00f703a3          	sb	a5,7(a4)
    3ec4:	1ffff797          	auipc	a5,0x1ffff
    3ec8:	3a078793          	addi	a5,a5,928 # 20003264 <ble>
    3ecc:	439c                	lw	a5,0(a5)
    3ece:	cf1c                	sw	a5,24(a4)
    3ed0:	11078793          	addi	a5,a5,272
    3ed4:	cb5c                	sw	a5,20(a4)
    3ed6:	35dd                	jal	3dbc <BLE_RegInit>
    3ed8:	e000e7b7          	lui	a5,0xe000e
    3edc:	00100737          	lui	a4,0x100
    3ee0:	40b2                	lw	ra,12(sp)
    3ee2:	10e7a023          	sw	a4,256(a5) # e000e100 <_eusrstack+0xc0006100>
    3ee6:	00200737          	lui	a4,0x200
    3eea:	10e7a023          	sw	a4,256(a5)
    3eee:	0141                	addi	sp,sp,16
    3ef0:	8082                	ret

00003ef2 <LLE_DevInit>:
LLE_DevInit():
    3ef2:	1ffff797          	auipc	a5,0x1ffff
    3ef6:	3e278793          	addi	a5,a5,994 # 200032d4 <gptrLLEReg>
    3efa:	439c                	lw	a5,0(a5)
    3efc:	08c00713          	li	a4,140
    3f00:	07600693          	li	a3,118
    3f04:	cbd8                	sw	a4,20(a5)
    3f06:	cfd4                	sw	a3,28(a5)
    3f08:	d3d8                	sw	a4,36(a5)
    3f0a:	03c00613          	li	a2,60
    3f0e:	d7d0                	sw	a2,44(a5)
    3f10:	dbd8                	sw	a4,52(a5)
    3f12:	dfd0                	sw	a2,60(a5)
    3f14:	c3f8                	sw	a4,68(a5)
    3f16:	1ffff717          	auipc	a4,0x1ffff
    3f1a:	3a270713          	addi	a4,a4,930 # 200032b8 <gBleIPPara>
    3f1e:	4f18                	lw	a4,24(a4)
    3f20:	c7f4                	sw	a3,76(a5)
    3f22:	dbf8                	sw	a4,116(a5)
    3f24:	6741                	lui	a4,0x10
    3f26:	177d                	addi	a4,a4,-1
    3f28:	c798                	sw	a4,8(a5)
    3f2a:	673d                	lui	a4,0xf
    3f2c:	073d                	addi	a4,a4,15
    3f2e:	c7d8                	sw	a4,12(a5)
    3f30:	e000e737          	lui	a4,0xe000e
    3f34:	47d5                	li	a5,21
    3f36:	04f70923          	sb	a5,82(a4) # e000e052 <_eusrstack+0xc0006052>
    3f3a:	1fffd797          	auipc	a5,0x1fffd
    3f3e:	24478793          	addi	a5,a5,580 # 2000117e <LLE_IRQLibHandler>
    3f42:	0017e793          	ori	a5,a5,1
    3f46:	d73c                	sw	a5,104(a4)
    3f48:	8082                	ret

00003f4a <RF_DevSetChannel>:
RF_DevSetChannel():
    3f4a:	1ffff797          	auipc	a5,0x1ffff
    3f4e:	3ce78793          	addi	a5,a5,974 # 20003318 <gptrRFENDReg>
    3f52:	4394                	lw	a3,0(a5)
    3f54:	1ffff797          	auipc	a5,0x1ffff
    3f58:	35c78793          	addi	a5,a5,860 # 200032b0 <gptrBBReg>
    3f5c:	439c                	lw	a5,0(a5)
    3f5e:	10058763          	beqz	a1,406c <RF_DevSetChannel+0x122>
    3f62:	0024b737          	lui	a4,0x24b
    3f66:	e9f70713          	addi	a4,a4,-353 # 24ae9f <_data_lma+0x244947>
    3f6a:	08a76663          	bltu	a4,a0,3ff6 <RF_DevSetChannel+0xac>
    3f6e:	4398                	lw	a4,0(a5)
    3f70:	f8077713          	andi	a4,a4,-128
    3f74:	02576713          	ori	a4,a4,37
    3f78:	c398                	sw	a4,0(a5)
    3f7a:	0015f713          	andi	a4,a1,1
    3f7e:	cb01                	beqz	a4,3f8e <RF_DevSetChannel+0x44>
    3f80:	0305f593          	andi	a1,a1,48
    3f84:	4741                	li	a4,16
    3f86:	0ee59063          	bne	a1,a4,4066 <RF_DevSetChannel+0x11c>
    3f8a:	83050513          	addi	a0,a0,-2000
    3f8e:	56d8                	lw	a4,44(a3)
    3f90:	fe100837          	lui	a6,0xfe100
    3f94:	187d                	addi	a6,a6,-1
    3f96:	00276713          	ori	a4,a4,2
    3f9a:	d6d8                	sw	a4,44(a3)
    3f9c:	6741                	lui	a4,0x10
    3f9e:	a0070713          	addi	a4,a4,-1536 # fa00 <_data_lma+0x94a8>
    3fa2:	02e55633          	divu	a2,a0,a4
    3fa6:	02e57533          	remu	a0,a0,a4
    3faa:	0fa00713          	li	a4,250
    3fae:	8a7d                	andi	a2,a2,31
    3fb0:	01461593          	slli	a1,a2,0x14
    3fb4:	42f0                	lw	a2,68(a3)
    3fb6:	01067633          	and	a2,a2,a6
    3fba:	8e4d                	or	a2,a2,a1
    3fbc:	c2f0                	sw	a2,68(a3)
    3fbe:	fffc0637          	lui	a2,0xfffc0
    3fc2:	052a                	slli	a0,a0,0xa
    3fc4:	02e55533          	divu	a0,a0,a4
    3fc8:	42f8                	lw	a4,68(a3)
    3fca:	8f71                	and	a4,a4,a2
    3fcc:	053a                	slli	a0,a0,0xe
    3fce:	8139                	srli	a0,a0,0xe
    3fd0:	8d59                	or	a0,a0,a4
    3fd2:	c2e8                	sw	a0,68(a3)
    3fd4:	1ffff717          	auipc	a4,0x1ffff
    3fd8:	30474703          	lbu	a4,772(a4) # 200032d8 <rfConfig>
    3fdc:	8b09                	andi	a4,a4,2
    3fde:	cb19                	beqz	a4,3ff4 <RF_DevSetChannel+0xaa>
    3fe0:	4398                	lw	a4,0(a5)
    3fe2:	07f77713          	andi	a4,a4,127
    3fe6:	04076693          	ori	a3,a4,64
    3fea:	4398                	lw	a4,0(a5)
    3fec:	f8077713          	andi	a4,a4,-128
    3ff0:	8f55                	or	a4,a4,a3
    3ff2:	c398                	sw	a4,0(a5)
    3ff4:	8082                	ret
    3ff6:	00250737          	lui	a4,0x250
    3ffa:	48f70613          	addi	a2,a4,1167 # 25048f <_data_lma+0x249f37>
    3ffe:	02a66363          	bltu	a2,a0,4024 <RF_DevSetChannel+0xda>
    4002:	ffdb6737          	lui	a4,0xffdb6
    4006:	93070713          	addi	a4,a4,-1744 # ffdb5930 <_eusrstack+0xdfdad930>
    400a:	972a                	add	a4,a4,a0
    400c:	7d000613          	li	a2,2000
    4010:	02c75733          	divu	a4,a4,a2
    4014:	177d                	addi	a4,a4,-1
    4016:	4390                	lw	a2,0(a5)
    4018:	07f77713          	andi	a4,a4,127
    401c:	f8067613          	andi	a2,a2,-128
    4020:	8f51                	or	a4,a4,a2
    4022:	bf99                	j	3f78 <RF_DevSetChannel+0x2e>
    4024:	49070713          	addi	a4,a4,1168
    4028:	00e51863          	bne	a0,a4,4038 <RF_DevSetChannel+0xee>
    402c:	4398                	lw	a4,0(a5)
    402e:	f8077713          	andi	a4,a4,-128
    4032:	02676713          	ori	a4,a4,38
    4036:	b789                	j	3f78 <RF_DevSetChannel+0x2e>
    4038:	0025d737          	lui	a4,0x25d
    403c:	77f70713          	addi	a4,a4,1919 # 25d77f <_data_lma+0x257227>
    4040:	00a76d63          	bltu	a4,a0,405a <RF_DevSetChannel+0x110>
    4044:	ffdb6737          	lui	a4,0xffdb6
    4048:	93070713          	addi	a4,a4,-1744 # ffdb5930 <_eusrstack+0xdfdad930>
    404c:	972a                	add	a4,a4,a0
    404e:	7d000613          	li	a2,2000
    4052:	02c75733          	divu	a4,a4,a2
    4056:	1779                	addi	a4,a4,-2
    4058:	bf7d                	j	4016 <RF_DevSetChannel+0xcc>
    405a:	4398                	lw	a4,0(a5)
    405c:	f8077713          	andi	a4,a4,-128
    4060:	02776713          	ori	a4,a4,39
    4064:	bf11                	j	3f78 <RF_DevSetChannel+0x2e>
    4066:	c1850513          	addi	a0,a0,-1000
    406a:	b715                	j	3f8e <RF_DevSetChannel+0x44>
    406c:	56d8                	lw	a4,44(a3)
    406e:	07f57513          	andi	a0,a0,127
    4072:	9b75                	andi	a4,a4,-3
    4074:	d6d8                	sw	a4,44(a3)
    4076:	4398                	lw	a4,0(a5)
    4078:	f8077713          	andi	a4,a4,-128
    407c:	8d59                	or	a0,a0,a4
    407e:	c388                	sw	a0,0(a5)
    4080:	bf91                	j	3fd4 <RF_DevSetChannel+0x8a>

00004082 <rf_stop>:
rf_stop():
    4082:	1141                	addi	sp,sp,-16
    4084:	c606                	sw	ra,12(sp)
    4086:	1ffff797          	auipc	a5,0x1ffff
    408a:	28078023          	sb	zero,640(a5) # 20003306 <rfInfo+0xe>
    408e:	314d                	jal	3d30 <ble_ll_hw_api_shut>
    4090:	4501                	li	a0,0
    4092:	4581                	li	a1,0
    4094:	8f8ff0ef          	jal	ra,318c <TMOS_ProcessRegister>
    4098:	40b2                	lw	ra,12(sp)
    409a:	4501                	li	a0,0
    409c:	0141                	addi	sp,sp,16
    409e:	8082                	ret

000040a0 <RF_TxProcess>:
RF_TxProcess():
    40a0:	1ffff797          	auipc	a5,0x1ffff
    40a4:	23478793          	addi	a5,a5,564 # 200032d4 <gptrLLEReg>
    40a8:	4398                	lw	a4,0(a5)
    40aa:	7179                	addi	sp,sp,-48
    40ac:	1ffff517          	auipc	a0,0x1ffff
    40b0:	22c54503          	lbu	a0,556(a0) # 200032d8 <rfConfig>
    40b4:	d422                	sw	s0,40(sp)
    40b6:	d226                	sw	s1,36(sp)
    40b8:	d606                	sw	ra,44(sp)
    40ba:	d04a                	sw	s2,32(sp)
    40bc:	ce4e                	sw	s3,28(sp)
    40be:	00157693          	andi	a3,a0,1
    40c2:	84be                	mv	s1,a5
    40c4:	1ffff417          	auipc	s0,0x1ffff
    40c8:	1f440413          	addi	s0,s0,500 # 200032b8 <gBleIPPara>
    40cc:	12068c63          	beqz	a3,4204 <RF_TxProcess+0x164>
    40d0:	00244783          	lbu	a5,2(s0)
    40d4:	8b85                	andi	a5,a5,1
    40d6:	10078463          	beqz	a5,41de <RF_TxProcess+0x13e>
    40da:	8511                	srai	a0,a0,0x4
    40dc:	4601                	li	a2,0
    40de:	1ffff597          	auipc	a1,0x1ffff
    40e2:	2165c583          	lbu	a1,534(a1) # 200032f4 <rfConfig+0x1c>
    40e6:	890d                	andi	a0,a0,3
    40e8:	1ffff797          	auipc	a5,0x1ffff
    40ec:	1c078923          	sb	zero,466(a5) # 200032ba <gBleIPPara+0x2>
    40f0:	34a5                	jal	3b58 <BLE_SetPHYRxMode>
    40f2:	1ffff597          	auipc	a1,0x1ffff
    40f6:	1e65c583          	lbu	a1,486(a1) # 200032d8 <rfConfig>
    40fa:	8591                	srai	a1,a1,0x4
    40fc:	0ff00613          	li	a2,255
    4100:	898d                	andi	a1,a1,3
    4102:	4505                	li	a0,1
    4104:	1fffd097          	auipc	ra,0x1fffd
    4108:	d94080e7          	jalr	-620(ra) # 20000e98 <ll_tx_wait_finish>
    410c:	3f9d                	jal	4082 <rf_stop>
    410e:	1ffff917          	auipc	s2,0x1ffff
    4112:	1ca90913          	addi	s2,s2,458 # 200032d8 <rfConfig>
    4116:	01092783          	lw	a5,16(s2)
    411a:	4601                	li	a2,0
    411c:	4581                	li	a1,0
    411e:	4505                	li	a0,1
    4120:	9782                	jalr	a5
    4122:	00344783          	lbu	a5,3(s0)
    4126:	89ca                	mv	s3,s2
    4128:	8b85                	andi	a5,a5,1
    412a:	cfc1                	beqz	a5,41c2 <RF_TxProcess+0x122>
    412c:	4c08                	lw	a0,24(s0)
    412e:	1ffff797          	auipc	a5,0x1ffff
    4132:	180786a3          	sb	zero,397(a5) # 200032bb <gBleIPPara+0x3>
    4136:	4581                	li	a1,0
    4138:	4681                	li	a3,0
    413a:	00f10613          	addi	a2,sp,15
    413e:	000107a3          	sb	zero,15(sp)
    4142:	1ffff797          	auipc	a5,0x1ffff
    4146:	16078d23          	sb	zero,378(a5) # 200032bc <gBleIPPara+0x4>
    414a:	1fffd097          	auipc	ra,0x1fffd
    414e:	c84080e7          	jalr	-892(ra) # 20000dce <ble_ll_chkcrc>
    4152:	01851593          	slli	a1,a0,0x18
    4156:	85e1                	srai	a1,a1,0x18
    4158:	e18d                	bnez	a1,417a <RF_TxProcess+0xda>
    415a:	4c1c                	lw	a5,24(s0)
    415c:	0ff00693          	li	a3,255
    4160:	0007c703          	lbu	a4,0(a5)
    4164:	00d70b63          	beq	a4,a3,417a <RF_TxProcess+0xda>
    4168:	1ffff797          	auipc	a5,0x1ffff
    416c:	1917c783          	lbu	a5,401(a5) # 200032f9 <rfInfo+0x1>
    4170:	00d78563          	beq	a5,a3,417a <RF_TxProcess+0xda>
    4174:	00f70363          	beq	a4,a5,417a <RF_TxProcess+0xda>
    4178:	4589                	li	a1,2
    417a:	00098783          	lb	a5,0(s3)
    417e:	0007c763          	bltz	a5,418c <RF_TxProcess+0xec>
    4182:	4c1c                	lw	a5,24(s0)
    4184:	00f14703          	lbu	a4,15(sp)
    4188:	00e78023          	sb	a4,0(a5)
    418c:	0109a783          	lw	a5,16(s3)
    4190:	4c10                	lw	a2,24(s0)
    4192:	0ff5f593          	andi	a1,a1,255
    4196:	4509                	li	a0,2
    4198:	9782                	jalr	a5
    419a:	1ffff797          	auipc	a5,0x1ffff
    419e:	16a7c783          	lbu	a5,362(a5) # 20003304 <rfInfo+0xc>
    41a2:	8b89                	andi	a5,a5,2
    41a4:	cb81                	beqz	a5,41b4 <RF_TxProcess+0x114>
    41a6:	4585                	li	a1,1
    41a8:	1ffff517          	auipc	a0,0x1ffff
    41ac:	16054503          	lbu	a0,352(a0) # 20003308 <rfInfo+0x10>
    41b0:	e31fe0ef          	jal	ra,2fe0 <tmos_set_event>
    41b4:	50b2                	lw	ra,44(sp)
    41b6:	5422                	lw	s0,40(sp)
    41b8:	5492                	lw	s1,36(sp)
    41ba:	5902                	lw	s2,32(sp)
    41bc:	49f2                	lw	s3,28(sp)
    41be:	6145                	addi	sp,sp,48
    41c0:	8082                	ret
    41c2:	409c                	lw	a5,0(s1)
    41c4:	53fc                	lw	a5,100(a5)
    41c6:	f7fd                	bnez	a5,41b4 <RF_TxProcess+0x114>
    41c8:	1ffff797          	auipc	a5,0x1ffff
    41cc:	0e078a23          	sb	zero,244(a5) # 200032bc <gBleIPPara+0x4>
    41d0:	01092783          	lw	a5,16(s2)
    41d4:	4601                	li	a2,0
    41d6:	4581                	li	a1,0
    41d8:	4549                	li	a0,18
    41da:	9782                	jalr	a5
    41dc:	bfe1                	j	41b4 <RF_TxProcess+0x114>
    41de:	537c                	lw	a5,100(a4)
    41e0:	ee0796e3          	bnez	a5,40cc <RF_TxProcess+0x2c>
    41e4:	3d79                	jal	4082 <rf_stop>
    41e6:	abaff0ef          	jal	ra,34a0 <TMOS_TempSample>
    41ea:	1ffff797          	auipc	a5,0x1ffff
    41ee:	0c078923          	sb	zero,210(a5) # 200032bc <gBleIPPara+0x4>
    41f2:	1ffff797          	auipc	a5,0x1ffff
    41f6:	0e678793          	addi	a5,a5,230 # 200032d8 <rfConfig>
    41fa:	4b9c                	lw	a5,16(a5)
    41fc:	4601                	li	a2,0
    41fe:	4581                	li	a1,0
    4200:	4545                	li	a0,17
    4202:	bfe1                	j	41da <RF_TxProcess+0x13a>
    4204:	00344783          	lbu	a5,3(s0)
    4208:	8b85                	andi	a5,a5,1
    420a:	c39d                	beqz	a5,4230 <RF_TxProcess+0x190>
    420c:	3d9d                	jal	4082 <rf_stop>
    420e:	1ffff797          	auipc	a5,0x1ffff
    4212:	0a0786a3          	sb	zero,173(a5) # 200032bb <gBleIPPara+0x3>
    4216:	1ffff797          	auipc	a5,0x1ffff
    421a:	0a078323          	sb	zero,166(a5) # 200032bc <gBleIPPara+0x4>
    421e:	1ffff797          	auipc	a5,0x1ffff
    4222:	0ba78793          	addi	a5,a5,186 # 200032d8 <rfConfig>
    4226:	4b9c                	lw	a5,16(a5)
    4228:	4601                	li	a2,0
    422a:	4581                	li	a1,0
    422c:	4505                	li	a0,1
    422e:	b775                	j	41da <RF_TxProcess+0x13a>
    4230:	537c                	lw	a5,100(a4)
    4232:	fbe9                	bnez	a5,4204 <RF_TxProcess+0x164>
    4234:	35b9                	jal	4082 <rf_stop>
    4236:	bf55                	j	41ea <RF_TxProcess+0x14a>

00004238 <RF_Config>:
RF_Config():
    4238:	491c                	lw	a5,16(a0)
    423a:	10078c63          	beqz	a5,4352 <RF_Config+0x11a>
    423e:	1141                	addi	sp,sp,-16
    4240:	c422                	sw	s0,8(sp)
    4242:	c606                	sw	ra,12(sp)
    4244:	00054783          	lbu	a5,0(a0)
    4248:	842a                	mv	s0,a0
    424a:	0407f793          	andi	a5,a5,64
    424e:	c781                	beqz	a5,4256 <RF_Config+0x1e>
    4250:	415c                	lw	a5,4(a0)
    4252:	4509                	li	a0,2
    4254:	cbfd                	beqz	a5,434a <RF_Config+0x112>
    4256:	02000613          	li	a2,32
    425a:	4581                	li	a1,0
    425c:	1ffff517          	auipc	a0,0x1ffff
    4260:	07c50513          	addi	a0,a0,124 # 200032d8 <rfConfig>
    4264:	1fffc097          	auipc	ra,0x1fffc
    4268:	580080e7          	jalr	1408(ra) # 200007e4 <tmos_memset>
    426c:	85a2                	mv	a1,s0
    426e:	02000613          	li	a2,32
    4272:	1ffff517          	auipc	a0,0x1ffff
    4276:	06650513          	addi	a0,a0,102 # 200032d8 <rfConfig>
    427a:	1fffc097          	auipc	ra,0x1fffc
    427e:	532080e7          	jalr	1330(ra) # 200007ac <tmos_memcpy>
    4282:	1ffff797          	auipc	a5,0x1ffff
    4286:	06f7c783          	lbu	a5,111(a5) # 200032f1 <rfConfig+0x19>
    428a:	1ffff417          	auipc	s0,0x1ffff
    428e:	04e40413          	addi	s0,s0,78 # 200032d8 <rfConfig>
    4292:	e799                	bnez	a5,42a0 <RF_Config+0x68>
    4294:	02800793          	li	a5,40
    4298:	1ffff717          	auipc	a4,0x1ffff
    429c:	04f70ca3          	sb	a5,89(a4) # 200032f1 <rfConfig+0x19>
    42a0:	1ffff797          	auipc	a5,0x1ffff
    42a4:	0527c783          	lbu	a5,82(a5) # 200032f2 <rfConfig+0x1a>
    42a8:	e791                	bnez	a5,42b4 <RF_Config+0x7c>
    42aa:	47a1                	li	a5,8
    42ac:	1ffff717          	auipc	a4,0x1ffff
    42b0:	04f70323          	sb	a5,70(a4) # 200032f2 <rfConfig+0x1a>
    42b4:	1ffff797          	auipc	a5,0x1ffff
    42b8:	03f7c783          	lbu	a5,63(a5) # 200032f3 <rfConfig+0x1b>
    42bc:	e791                	bnez	a5,42c8 <RF_Config+0x90>
    42be:	47c5                	li	a5,17
    42c0:	1ffff717          	auipc	a4,0x1ffff
    42c4:	02f709a3          	sb	a5,51(a4) # 200032f3 <rfConfig+0x1b>
    42c8:	1ffff797          	auipc	a5,0x1ffff
    42cc:	02c7c783          	lbu	a5,44(a5) # 200032f4 <rfConfig+0x1c>
    42d0:	e791                	bnez	a5,42dc <RF_Config+0xa4>
    42d2:	57ed                	li	a5,-5
    42d4:	1ffff717          	auipc	a4,0x1ffff
    42d8:	02f70023          	sb	a5,32(a4) # 200032f4 <rfConfig+0x1c>
    42dc:	1ffff797          	auipc	a5,0x1ffff
    42e0:	0197c783          	lbu	a5,25(a5) # 200032f5 <rfConfig+0x1d>
    42e4:	e791                	bnez	a5,42f0 <RF_Config+0xb8>
    42e6:	57ed                	li	a5,-5
    42e8:	1ffff717          	auipc	a4,0x1ffff
    42ec:	00f706a3          	sb	a5,13(a4) # 200032f5 <rfConfig+0x1d>
    42f0:	1ffff797          	auipc	a5,0x1ffff
    42f4:	00878793          	addi	a5,a5,8 # 200032f8 <rfInfo>
    42f8:	43c8                	lw	a0,4(a5)
    42fa:	c509                	beqz	a0,4304 <RF_Config+0xcc>
    42fc:	1fffd097          	auipc	ra,0x1fffd
    4300:	368080e7          	jalr	872(ra) # 20001664 <tmos_memory_free>
    4304:	1ffff797          	auipc	a5,0x1ffff
    4308:	fe07ac23          	sw	zero,-8(a5) # 200032fc <rfInfo+0x4>
    430c:	00044783          	lbu	a5,0(s0)
    4310:	8b85                	andi	a5,a5,1
    4312:	c385                	beqz	a5,4332 <RF_Config+0xfa>
    4314:	1ffff517          	auipc	a0,0x1ffff
    4318:	fe154503          	lbu	a0,-31(a0) # 200032f5 <rfConfig+0x1d>
    431c:	04900593          	li	a1,73
    4320:	0509                	addi	a0,a0,2
    4322:	1fffd097          	auipc	ra,0x1fffd
    4326:	270080e7          	jalr	624(ra) # 20001592 <tmos_memory_allocate>
    432a:	1ffff797          	auipc	a5,0x1ffff
    432e:	fca7a923          	sw	a0,-46(a5) # 200032fc <rfInfo+0x4>
    4332:	00144783          	lbu	a5,1(s0)
    4336:	4501                	li	a0,0
    4338:	1ffff717          	auipc	a4,0x1ffff
    433c:	fcf707a3          	sb	a5,-49(a4) # 20003307 <rfInfo+0xf>
    4340:	441c                	lw	a5,8(s0)
    4342:	1ffff717          	auipc	a4,0x1ffff
    4346:	fcf72523          	sw	a5,-54(a4) # 2000330c <rfInfo+0x14>
    434a:	40b2                	lw	ra,12(sp)
    434c:	4422                	lw	s0,8(sp)
    434e:	0141                	addi	sp,sp,16
    4350:	8082                	ret
    4352:	4505                	li	a0,1
    4354:	8082                	ret

00004356 <RF_Tx>:
RF_Tx():
    4356:	7179                	addi	sp,sp,-48
    4358:	d422                	sw	s0,40(sp)
    435a:	1ffff417          	auipc	s0,0x1ffff
    435e:	f7e40413          	addi	s0,s0,-130 # 200032d8 <rfConfig>
    4362:	441c                	lw	a5,8(s0)
    4364:	d606                	sw	ra,44(sp)
    4366:	d226                	sw	s1,36(sp)
    4368:	d04a                	sw	s2,32(sp)
    436a:	ce4e                	sw	s3,28(sp)
    436c:	cc52                	sw	s4,24(sp)
    436e:	ca56                	sw	s5,20(sp)
    4370:	c85a                	sw	s6,16(sp)
    4372:	c65e                	sw	s7,12(sp)
    4374:	c462                	sw	s8,8(sp)
    4376:	c266                	sw	s9,4(sp)
    4378:	2a078063          	beqz	a5,4618 <RF_Tx+0x2c2>
    437c:	1ffffc17          	auipc	s8,0x1ffff
    4380:	f34c0c13          	addi	s8,s8,-204 # 200032b0 <gptrBBReg>
    4384:	000c2703          	lw	a4,0(s8)
    4388:	1ffffa17          	auipc	s4,0x1ffff
    438c:	f90a0a13          	addi	s4,s4,-112 # 20003318 <gptrRFENDReg>
    4390:	8ab6                	mv	s5,a3
    4392:	431c                	lw	a5,0(a4)
    4394:	1ffff997          	auipc	s3,0x1ffff
    4398:	f4098993          	addi	s3,s3,-192 # 200032d4 <gptrLLEReg>
    439c:	1ffff917          	auipc	s2,0x1ffff
    43a0:	f5c90913          	addi	s2,s2,-164 # 200032f8 <rfInfo>
    43a4:	e7f7f793          	andi	a5,a5,-385
    43a8:	0807e793          	ori	a5,a5,128
    43ac:	c31c                	sw	a5,0(a4)
    43ae:	000a2683          	lw	a3,0(s4)
    43b2:	ffce0737          	lui	a4,0xffce0
    43b6:	177d                	addi	a4,a4,-1
    43b8:	469c                	lw	a5,8(a3)
    43ba:	8baa                	mv	s7,a0
    43bc:	84ae                	mv	s1,a1
    43be:	8ff9                	and	a5,a5,a4
    43c0:	c69c                	sw	a5,8(a3)
    43c2:	0009a783          	lw	a5,0(s3)
    43c6:	08000713          	li	a4,128
    43ca:	8b32                	mv	s6,a2
    43cc:	cbb8                	sw	a4,80(a5)
    43ce:	00c94783          	lbu	a5,12(s2)
    43d2:	4cbd                	li	s9,15
    43d4:	8b89                	andi	a5,a5,2
    43d6:	1e079063          	bnez	a5,45b6 <RF_Tx+0x260>
    43da:	000c2703          	lw	a4,0(s8)
    43de:	575c                	lw	a5,44(a4)
    43e0:	9bf1                	andi	a5,a5,-4
    43e2:	0017e793          	ori	a5,a5,1
    43e6:	d75c                	sw	a5,44(a4)
    43e8:	00c94783          	lbu	a5,12(s2)
    43ec:	8b89                	andi	a5,a5,2
    43ee:	1e078363          	beqz	a5,45d4 <RF_Tx+0x27e>
    43f2:	4581                	li	a1,0
    43f4:	1ffff517          	auipc	a0,0x1ffff
    43f8:	ee554503          	lbu	a0,-283(a0) # 200032d9 <rfConfig+0x1>
    43fc:	36b9                	jal	3f4a <RF_DevSetChannel>
    43fe:	000c2783          	lw	a5,0(s8)
    4402:	00330637          	lui	a2,0x330
    4406:	4398                	lw	a4,0(a5)
    4408:	e7f77713          	andi	a4,a4,-385
    440c:	c398                	sw	a4,0(a5)
    440e:	4398                	lw	a4,0(a5)
    4410:	e7f77713          	andi	a4,a4,-385
    4414:	10076713          	ori	a4,a4,256
    4418:	c398                	sw	a4,0(a5)
    441a:	000a2683          	lw	a3,0(s4)
    441e:	4698                	lw	a4,8(a3)
    4420:	8f51                	or	a4,a4,a2
    4422:	c698                	sw	a4,8(a3)
    4424:	0009a703          	lw	a4,0(s3)
    4428:	0da00693          	li	a3,218
    442c:	cb34                	sw	a3,80(a4)
    442e:	1ffff697          	auipc	a3,0x1ffff
    4432:	eaa6c683          	lbu	a3,-342(a3) # 200032d8 <rfConfig>
    4436:	0406f613          	andi	a2,a3,64
    443a:	1a060663          	beqz	a2,45e6 <RF_Tx+0x290>
    443e:	404c                	lw	a1,4(s0)
    4440:	ffdb9637          	lui	a2,0xffdb9
    4444:	81060613          	addi	a2,a2,-2032 # ffdb8810 <_eusrstack+0xdfdb0810>
    4448:	95b2                	add	a1,a1,a2
    444a:	6661                	lui	a2,0x18
    444c:	6a060613          	addi	a2,a2,1696 # 186a0 <_data_lma+0x12148>
    4450:	18b67b63          	bgeu	a2,a1,45e6 <RF_Tx+0x290>
    4454:	0c800613          	li	a2,200
    4458:	d370                	sw	a2,100(a4)
    445a:	4410                	lw	a2,8(s0)
    445c:	8a85                	andi	a3,a3,1
    445e:	c790                	sw	a2,8(a5)
    4460:	4450                	lw	a2,12(s0)
    4462:	c3d0                	sw	a2,4(a5)
    4464:	c354                	sw	a3,4(a4)
    4466:	00e94783          	lbu	a5,14(s2)
    446a:	0027e793          	ori	a5,a5,2
    446e:	1ffff717          	auipc	a4,0x1ffff
    4472:	e8f70c23          	sb	a5,-360(a4) # 20003306 <rfInfo+0xe>
    4476:	1ffff797          	auipc	a5,0x1ffff
    447a:	e95781a3          	sb	s5,-381(a5) # 200032f9 <rfInfo+0x1>
    447e:	1ffff797          	auipc	a5,0x1ffff
    4482:	e7678d23          	sb	s6,-390(a5) # 200032f8 <rfInfo>
    4486:	1ffffa97          	auipc	s5,0x1ffff
    448a:	e32a8a93          	addi	s5,s5,-462 # 200032b8 <gBleIPPara>
    448e:	014aa503          	lw	a0,20(s5)
    4492:	140b8d63          	beqz	s7,45ec <RF_Tx+0x296>
    4496:	01650023          	sb	s6,0(a0)
    449a:	009500a3          	sb	s1,1(a0)
    449e:	8626                	mv	a2,s1
    44a0:	85de                	mv	a1,s7
    44a2:	0509                	addi	a0,a0,2
    44a4:	1fffc097          	auipc	ra,0x1fffc
    44a8:	308080e7          	jalr	776(ra) # 200007ac <tmos_memcpy>
    44ac:	0009a783          	lw	a5,0(s3)
    44b0:	014aa703          	lw	a4,20(s5)
    44b4:	4581                	li	a1,0
    44b6:	00000517          	auipc	a0,0x0
    44ba:	bea50513          	addi	a0,a0,-1046 # 40a0 <RF_TxProcess>
    44be:	dbb8                	sw	a4,112(a5)
    44c0:	1ffff797          	auipc	a5,0x1ffff
    44c4:	de078da3          	sb	zero,-517(a5) # 200032bb <gBleIPPara+0x3>
    44c8:	1ffff797          	auipc	a5,0x1ffff
    44cc:	de078a23          	sb	zero,-524(a5) # 200032bc <gBleIPPara+0x4>
    44d0:	cbdfe0ef          	jal	ra,318c <TMOS_ProcessRegister>
    44d4:	f84ff0ef          	jal	ra,3c58 <ll_multi_states_check>
    44d8:	478d                	li	a5,3
    44da:	1ffff717          	auipc	a4,0x1ffff
    44de:	def702a3          	sb	a5,-539(a4) # 200032bf <gBleIPPara+0x7>
    44e2:	00c94783          	lbu	a5,12(s2)
    44e6:	8b89                	andi	a5,a5,2
    44e8:	c7a9                	beqz	a5,4532 <RF_Tx+0x1dc>
    44ea:	0009a703          	lw	a4,0(s3)
    44ee:	537c                	lw	a5,100(a4)
    44f0:	fffd                	bnez	a5,44ee <RF_Tx+0x198>
    44f2:	1ffff797          	auipc	a5,0x1ffff
    44f6:	db678793          	addi	a5,a5,-586 # 200032a8 <fnGetClockCBs>
    44fa:	439c                	lw	a5,0(a5)
    44fc:	9782                	jalr	a5
    44fe:	1ffff717          	auipc	a4,0x1ffff
    4502:	d6670713          	addi	a4,a4,-666 # 20003264 <ble>
    4506:	01670703          	lb	a4,22(a4)
    450a:	00892783          	lw	a5,8(s2)
    450e:	0e075263          	bgez	a4,45f2 <RF_Tx+0x29c>
    4512:	8d1d                	sub	a0,a0,a5
    4514:	00044703          	lbu	a4,0(s0)
    4518:	810d                	srli	a0,a0,0x3
    451a:	014aa783          	lw	a5,20(s5)
    451e:	8b21                	andi	a4,a4,8
    4520:	c36d                	beqz	a4,4602 <RF_Tx+0x2ac>
    4522:	00800737          	lui	a4,0x800
    4526:	0562                	slli	a0,a0,0x18
    4528:	2ff70713          	addi	a4,a4,767 # 8002ff <_data_lma+0x7f9da7>
    452c:	8d59                	or	a0,a0,a4
    452e:	c388                	sw	a0,0(a5)
    4530:	4489                	li	s1,2
    4532:	1ffff597          	auipc	a1,0x1ffff
    4536:	da65c583          	lbu	a1,-602(a1) # 200032d8 <rfConfig>
    453a:	8591                	srai	a1,a1,0x4
    453c:	4501                	li	a0,0
    453e:	8626                	mv	a2,s1
    4540:	898d                	andi	a1,a1,3
    4542:	1fffd097          	auipc	ra,0x1fffd
    4546:	956080e7          	jalr	-1706(ra) # 20000e98 <ll_tx_wait_finish>
    454a:	000a2703          	lw	a4,0(s4)
    454e:	4501                	li	a0,0
    4550:	575c                	lw	a5,44(a4)
    4552:	8385                	srli	a5,a5,0x1
    4554:	8b85                	andi	a5,a5,1
    4556:	c3b9                	beqz	a5,459c <RF_Tx+0x246>
    4558:	405c                	lw	a5,4(s0)
    455a:	65c1                	lui	a1,0x10
    455c:	a0058593          	addi	a1,a1,-1536 # fa00 <_data_lma+0x94a8>
    4560:	c1878793          	addi	a5,a5,-1000
    4564:	02b7d6b3          	divu	a3,a5,a1
    4568:	fe100837          	lui	a6,0xfe100
    456c:	187d                	addi	a6,a6,-1
    456e:	02b7f7b3          	remu	a5,a5,a1
    4572:	8afd                	andi	a3,a3,31
    4574:	01469613          	slli	a2,a3,0x14
    4578:	4374                	lw	a3,68(a4)
    457a:	0106f6b3          	and	a3,a3,a6
    457e:	8ed1                	or	a3,a3,a2
    4580:	c374                	sw	a3,68(a4)
    4582:	0fa00693          	li	a3,250
    4586:	fffc0637          	lui	a2,0xfffc0
    458a:	07aa                	slli	a5,a5,0xa
    458c:	02d7d7b3          	divu	a5,a5,a3
    4590:	4374                	lw	a3,68(a4)
    4592:	8ef1                	and	a3,a3,a2
    4594:	07ba                	slli	a5,a5,0xe
    4596:	83b9                	srli	a5,a5,0xe
    4598:	8fd5                	or	a5,a5,a3
    459a:	c37c                	sw	a5,68(a4)
    459c:	50b2                	lw	ra,44(sp)
    459e:	5422                	lw	s0,40(sp)
    45a0:	5492                	lw	s1,36(sp)
    45a2:	5902                	lw	s2,32(sp)
    45a4:	49f2                	lw	s3,28(sp)
    45a6:	4a62                	lw	s4,24(sp)
    45a8:	4ad2                	lw	s5,20(sp)
    45aa:	4b42                	lw	s6,16(sp)
    45ac:	4bb2                	lw	s7,12(sp)
    45ae:	4c22                	lw	s8,8(sp)
    45b0:	4c92                	lw	s9,4(sp)
    45b2:	6145                	addi	sp,sp,48
    45b4:	8082                	ret
    45b6:	1fffd097          	auipc	ra,0x1fffd
    45ba:	e5c080e7          	jalr	-420(ra) # 20001412 <RF_FrequencyHoppingGet>
    45be:	feacfce3          	bgeu	s9,a0,45b6 <RF_Tx+0x260>
    45c2:	1ffff797          	auipc	a5,0x1ffff
    45c6:	d307c783          	lbu	a5,-720(a5) # 200032f2 <rfConfig+0x1a>
    45ca:	0796                	slli	a5,a5,0x5
    45cc:	17c1                	addi	a5,a5,-16
    45ce:	fea7e4e3          	bltu	a5,a0,45b6 <RF_Tx+0x260>
    45d2:	b521                	j	43da <RF_Tx+0x84>
    45d4:	00044783          	lbu	a5,0(s0)
    45d8:	0407f793          	andi	a5,a5,64
    45dc:	e0078be3          	beqz	a5,43f2 <RF_Tx+0x9c>
    45e0:	4589                	li	a1,2
    45e2:	4048                	lw	a0,4(s0)
    45e4:	bd21                	j	43fc <RF_Tx+0xa6>
    45e6:	0a000613          	li	a2,160
    45ea:	b5bd                	j	4458 <RF_Tx+0x102>
    45ec:	01652023          	sw	s6,0(a0)
    45f0:	bd75                	j	44ac <RF_Tx+0x156>
    45f2:	f2f570e3          	bgeu	a0,a5,4512 <RF_Tx+0x1bc>
    45f6:	a8c00737          	lui	a4,0xa8c00
    45fa:	40f707b3          	sub	a5,a4,a5
    45fe:	953e                	add	a0,a0,a5
    4600:	bf11                	j	4514 <RF_Tx+0x1be>
    4602:	0489                	addi	s1,s1,2
    4604:	0ff4f493          	andi	s1,s1,255
    4608:	009780a3          	sb	s1,1(a5)
    460c:	97a6                	add	a5,a5,s1
    460e:	00078023          	sb	zero,0(a5)
    4612:	00a780a3          	sb	a0,1(a5)
    4616:	bf31                	j	4532 <RF_Tx+0x1dc>
    4618:	4505                	li	a0,1
    461a:	b749                	j	459c <RF_Tx+0x246>

0000461c <RF_Rx>:
RF_Rx():
    461c:	1ffff797          	auipc	a5,0x1ffff
    4620:	d1478793          	addi	a5,a5,-748 # 20003330 <gBleLlPara>
    4624:	0987a783          	lw	a5,152(a5)
    4628:	cf91                	beqz	a5,4644 <RF_Rx+0x28>
    462a:	4505                	li	a0,1
    462c:	8082                	ret
    462e:	4505                	li	a0,1
    4630:	40f2                	lw	ra,28(sp)
    4632:	4462                	lw	s0,24(sp)
    4634:	44d2                	lw	s1,20(sp)
    4636:	4942                	lw	s2,16(sp)
    4638:	49b2                	lw	s3,12(sp)
    463a:	4a22                	lw	s4,8(sp)
    463c:	4a92                	lw	s5,4(sp)
    463e:	4b02                	lw	s6,0(sp)
    4640:	6105                	addi	sp,sp,32
    4642:	8082                	ret
    4644:	1101                	addi	sp,sp,-32
    4646:	ca26                	sw	s1,20(sp)
    4648:	1ffff497          	auipc	s1,0x1ffff
    464c:	c9048493          	addi	s1,s1,-880 # 200032d8 <rfConfig>
    4650:	449c                	lw	a5,8(s1)
    4652:	ce06                	sw	ra,28(sp)
    4654:	cc22                	sw	s0,24(sp)
    4656:	c84a                	sw	s2,16(sp)
    4658:	c64e                	sw	s3,12(sp)
    465a:	c452                	sw	s4,8(sp)
    465c:	c256                	sw	s5,4(sp)
    465e:	c05a                	sw	s6,0(sp)
    4660:	d7f9                	beqz	a5,462e <RF_Rx+0x12>
    4662:	1ffff917          	auipc	s2,0x1ffff
    4666:	c7290913          	addi	s2,s2,-910 # 200032d4 <gptrLLEReg>
    466a:	00092783          	lw	a5,0(s2)
    466e:	4398                	lw	a4,0(a5)
    4670:	8b0d                	andi	a4,a4,3
    4672:	c305                	beqz	a4,4692 <RF_Rx+0x76>
    4674:	4bb8                	lw	a4,80(a5)
    4676:	9b61                	andi	a4,a4,-8
    4678:	cbb8                	sw	a4,80(a5)
    467a:	4398                	lw	a4,0(a5)
    467c:	00876713          	ori	a4,a4,8
    4680:	c398                	sw	a4,0(a5)
    4682:	439c                	lw	a5,0(a5)
    4684:	838d                	srli	a5,a5,0x3
    4686:	8b85                	andi	a5,a5,1
    4688:	c789                	beqz	a5,4692 <RF_Rx+0x76>
    468a:	0001                	nop
    468c:	0001                	nop
    468e:	0001                	nop
    4690:	0001                	nop
    4692:	1ffff417          	auipc	s0,0x1ffff
    4696:	c6640413          	addi	s0,s0,-922 # 200032f8 <rfInfo>
    469a:	00c44783          	lbu	a5,12(s0)
    469e:	8ab6                	mv	s5,a3
    46a0:	8b32                	mv	s6,a2
    46a2:	8b91                	andi	a5,a5,4
    46a4:	89ae                	mv	s3,a1
    46a6:	8a2a                	mv	s4,a0
    46a8:	eb89                	bnez	a5,46ba <RF_Rx+0x9e>
    46aa:	1ffff597          	auipc	a1,0x1ffff
    46ae:	c2e5c583          	lbu	a1,-978(a1) # 200032d8 <rfConfig>
    46b2:	0405f793          	andi	a5,a1,64
    46b6:	14079c63          	bnez	a5,480e <RF_Rx+0x1f2>
    46ba:	4581                	li	a1,0
    46bc:	1ffff517          	auipc	a0,0x1ffff
    46c0:	c1d54503          	lbu	a0,-995(a0) # 200032d9 <rfConfig+0x1>
    46c4:	887ff0ef          	jal	ra,3f4a <RF_DevSetChannel>
    46c8:	1ffff517          	auipc	a0,0x1ffff
    46cc:	c1054503          	lbu	a0,-1008(a0) # 200032d8 <rfConfig>
    46d0:	8511                	srai	a0,a0,0x4
    46d2:	4601                	li	a2,0
    46d4:	1ffff597          	auipc	a1,0x1ffff
    46d8:	c205c583          	lbu	a1,-992(a1) # 200032f4 <rfConfig+0x1c>
    46dc:	890d                	andi	a0,a0,3
    46de:	c7aff0ef          	jal	ra,3b58 <BLE_SetPHYRxMode>
    46e2:	1ffff717          	auipc	a4,0x1ffff
    46e6:	bce70713          	addi	a4,a4,-1074 # 200032b0 <gptrBBReg>
    46ea:	4494                	lw	a3,8(s1)
    46ec:	431c                	lw	a5,0(a4)
    46ee:	c794                	sw	a3,8(a5)
    46f0:	44d4                	lw	a3,12(s1)
    46f2:	c3d4                	sw	a3,4(a5)
    46f4:	0004c783          	lbu	a5,0(s1)
    46f8:	00092683          	lw	a3,0(s2)
    46fc:	84ba                	mv	s1,a4
    46fe:	8b85                	andi	a5,a5,1
    4700:	c2dc                	sw	a5,4(a3)
    4702:	1ffff797          	auipc	a5,0x1ffff
    4706:	bf678ca3          	sb	s6,-1031(a5) # 200032fb <rfInfo+0x3>
    470a:	1ffff797          	auipc	a5,0x1ffff
    470e:	bf578823          	sb	s5,-1040(a5) # 200032fa <rfInfo+0x2>
    4712:	42dc                	lw	a5,4(a3)
    4714:	8b85                	andi	a5,a5,1
    4716:	cfb1                	beqz	a5,4772 <RF_Rx+0x156>
    4718:	405c                	lw	a5,4(s0)
    471a:	e385                	bnez	a5,473a <RF_Rx+0x11e>
    471c:	1ffff517          	auipc	a0,0x1ffff
    4720:	bd954503          	lbu	a0,-1063(a0) # 200032f5 <rfConfig+0x1d>
    4724:	04900593          	li	a1,73
    4728:	0509                	addi	a0,a0,2
    472a:	1fffd097          	auipc	ra,0x1fffd
    472e:	e68080e7          	jalr	-408(ra) # 20001592 <tmos_memory_allocate>
    4732:	1ffff797          	auipc	a5,0x1ffff
    4736:	bca7a523          	sw	a0,-1078(a5) # 200032fc <rfInfo+0x4>
    473a:	405c                	lw	a5,4(s0)
    473c:	ee0789e3          	beqz	a5,462e <RF_Rx+0x12>
    4740:	1ffff717          	auipc	a4,0x1ffff
    4744:	bba74703          	lbu	a4,-1094(a4) # 200032fa <rfInfo+0x2>
    4748:	00e78023          	sb	a4,0(a5)
    474c:	405c                	lw	a5,4(s0)
    474e:	0c0a0663          	beqz	s4,481a <RF_Rx+0x1fe>
    4752:	0c098463          	beqz	s3,481a <RF_Rx+0x1fe>
    4756:	013780a3          	sb	s3,1(a5)
    475a:	4048                	lw	a0,4(s0)
    475c:	864e                	mv	a2,s3
    475e:	85d2                	mv	a1,s4
    4760:	0509                	addi	a0,a0,2
    4762:	1fffc097          	auipc	ra,0x1fffc
    4766:	04a080e7          	jalr	74(ra) # 200007ac <tmos_memcpy>
    476a:	00092783          	lw	a5,0(s2)
    476e:	4058                	lw	a4,4(s0)
    4770:	dbb8                	sw	a4,112(a5)
    4772:	ce6ff0ef          	jal	ra,3c58 <ll_multi_states_check>
    4776:	00e44783          	lbu	a5,14(s0)
    477a:	0047e793          	ori	a5,a5,4
    477e:	1ffff717          	auipc	a4,0x1ffff
    4782:	b8f70423          	sb	a5,-1144(a4) # 20003306 <rfInfo+0xe>
    4786:	04000793          	li	a5,64
    478a:	1ffff717          	auipc	a4,0x1ffff
    478e:	b2f70723          	sb	a5,-1234(a4) # 200032b8 <gBleIPPara>
    4792:	1ffff797          	auipc	a5,0x1ffff
    4796:	b2078523          	sb	zero,-1238(a5) # 200032bc <gBleIPPara+0x4>
    479a:	479d                	li	a5,7
    479c:	1ffff717          	auipc	a4,0x1ffff
    47a0:	b2f701a3          	sb	a5,-1245(a4) # 200032bf <gBleIPPara+0x7>
    47a4:	1ffff797          	auipc	a5,0x1ffff
    47a8:	ac078793          	addi	a5,a5,-1344 # 20003264 <ble>
    47ac:	579c                	lw	a5,40(a5)
    47ae:	cb91                	beqz	a5,47c2 <RF_Rx+0x1a6>
    47b0:	64000613          	li	a2,1600
    47b4:	45c1                	li	a1,16
    47b6:	1ffff517          	auipc	a0,0x1ffff
    47ba:	b5254503          	lbu	a0,-1198(a0) # 20003308 <rfInfo+0x10>
    47be:	883fe0ef          	jal	ra,3040 <tmos_start_task>
    47c2:	1ffff797          	auipc	a5,0x1ffff
    47c6:	ae078da3          	sb	zero,-1285(a5) # 200032bd <gBleIPPara+0x5>
    47ca:	00092683          	lw	a3,0(s2)
    47ce:	1ffff797          	auipc	a5,0x1ffff
    47d2:	ae0785a3          	sb	zero,-1301(a5) # 200032b9 <gBleIPPara+0x1>
    47d6:	4098                	lw	a4,0(s1)
    47d8:	4785                	li	a5,1
    47da:	c29c                	sw	a5,0(a3)
    47dc:	431c                	lw	a5,0(a4)
    47de:	00330637          	lui	a2,0x330
    47e2:	4501                	li	a0,0
    47e4:	e7f7f793          	andi	a5,a5,-385
    47e8:	c31c                	sw	a5,0(a4)
    47ea:	431c                	lw	a5,0(a4)
    47ec:	e7f7f793          	andi	a5,a5,-385
    47f0:	1007e793          	ori	a5,a5,256
    47f4:	c31c                	sw	a5,0(a4)
    47f6:	1ffff797          	auipc	a5,0x1ffff
    47fa:	b2278793          	addi	a5,a5,-1246 # 20003318 <gptrRFENDReg>
    47fe:	4398                	lw	a4,0(a5)
    4800:	471c                	lw	a5,8(a4)
    4802:	8fd1                	or	a5,a5,a2
    4804:	c71c                	sw	a5,8(a4)
    4806:	0d900793          	li	a5,217
    480a:	cabc                	sw	a5,80(a3)
    480c:	b515                	j	4630 <RF_Rx+0x14>
    480e:	0305f593          	andi	a1,a1,48
    4812:	0015e593          	ori	a1,a1,1
    4816:	40c8                	lw	a0,4(s1)
    4818:	b575                	j	46c4 <RF_Rx+0xa8>
    481a:	000780a3          	sb	zero,1(a5)
    481e:	b7b1                	j	476a <RF_Rx+0x14e>

00004820 <rfRxProcess>:
rfRxProcess():
    4820:	7179                	addi	sp,sp,-48
    4822:	d226                	sw	s1,36(sp)
    4824:	1ffff497          	auipc	s1,0x1ffff
    4828:	ab448493          	addi	s1,s1,-1356 # 200032d8 <rfConfig>
    482c:	0004c783          	lbu	a5,0(s1)
    4830:	d422                	sw	s0,40(sp)
    4832:	d606                	sw	ra,44(sp)
    4834:	d04a                	sw	s2,32(sp)
    4836:	ce4e                	sw	s3,28(sp)
    4838:	cc52                	sw	s4,24(sp)
    483a:	8b85                	andi	a5,a5,1
    483c:	1ffff417          	auipc	s0,0x1ffff
    4840:	a7c40413          	addi	s0,s0,-1412 # 200032b8 <gBleIPPara>
    4844:	30078463          	beqz	a5,4b4c <rfRxProcess+0x32c>
    4848:	00044783          	lbu	a5,0(s0)
    484c:	8b85                	andi	a5,a5,1
    484e:	2c078663          	beqz	a5,4b1a <rfRxProcess+0x2fa>
    4852:	1ffff797          	auipc	a5,0x1ffff
    4856:	ac678793          	addi	a5,a5,-1338 # 20003318 <gptrRFENDReg>
    485a:	4398                	lw	a4,0(a5)
    485c:	000107a3          	sb	zero,15(sp)
    4860:	01842903          	lw	s2,24(s0)
    4864:	575c                	lw	a5,44(a4)
    4866:	8385                	srli	a5,a5,0x1
    4868:	8b85                	andi	a5,a5,1
    486a:	c3a1                	beqz	a5,48aa <rfRxProcess+0x8a>
    486c:	40dc                	lw	a5,4(s1)
    486e:	65c1                	lui	a1,0x10
    4870:	a0058593          	addi	a1,a1,-1536 # fa00 <_data_lma+0x94a8>
    4874:	02b7d6b3          	divu	a3,a5,a1
    4878:	fe100537          	lui	a0,0xfe100
    487c:	157d                	addi	a0,a0,-1
    487e:	02b7f7b3          	remu	a5,a5,a1
    4882:	8afd                	andi	a3,a3,31
    4884:	01469613          	slli	a2,a3,0x14
    4888:	4374                	lw	a3,68(a4)
    488a:	8ee9                	and	a3,a3,a0
    488c:	8ed1                	or	a3,a3,a2
    488e:	c374                	sw	a3,68(a4)
    4890:	0fa00693          	li	a3,250
    4894:	fffc0637          	lui	a2,0xfffc0
    4898:	07aa                	slli	a5,a5,0xa
    489a:	02d7d7b3          	divu	a5,a5,a3
    489e:	4374                	lw	a3,68(a4)
    48a0:	8ef1                	and	a3,a3,a2
    48a2:	07ba                	slli	a5,a5,0xe
    48a4:	83b9                	srli	a5,a5,0xe
    48a6:	8fd5                	or	a5,a5,a3
    48a8:	c37c                	sw	a5,68(a4)
    48aa:	4681                	li	a3,0
    48ac:	00f10613          	addi	a2,sp,15
    48b0:	4581                	li	a1,0
    48b2:	854a                	mv	a0,s2
    48b4:	1ffff797          	auipc	a5,0x1ffff
    48b8:	a0078223          	sb	zero,-1532(a5) # 200032b8 <gBleIPPara>
    48bc:	1fffc097          	auipc	ra,0x1fffc
    48c0:	512080e7          	jalr	1298(ra) # 20000dce <ble_ll_chkcrc>
    48c4:	01851a13          	slli	s4,a0,0x18
    48c8:	418a5a13          	srai	s4,s4,0x18
    48cc:	020a1263          	bnez	s4,48f0 <rfRxProcess+0xd0>
    48d0:	1ffff797          	auipc	a5,0x1ffff
    48d4:	a2b7c783          	lbu	a5,-1493(a5) # 200032fb <rfInfo+0x3>
    48d8:	0ff00693          	li	a3,255
    48dc:	00d78a63          	beq	a5,a3,48f0 <rfRxProcess+0xd0>
    48e0:	4c18                	lw	a4,24(s0)
    48e2:	00074703          	lbu	a4,0(a4)
    48e6:	00d70563          	beq	a4,a3,48f0 <rfRxProcess+0xd0>
    48ea:	00f70363          	beq	a4,a5,48f0 <rfRxProcess+0xd0>
    48ee:	4a09                	li	s4,2
    48f0:	00048783          	lb	a5,0(s1)
    48f4:	1ffff997          	auipc	s3,0x1ffff
    48f8:	a0498993          	addi	s3,s3,-1532 # 200032f8 <rfInfo>
    48fc:	1207ca63          	bltz	a5,4a30 <rfRxProcess+0x210>
    4900:	120a1a63          	bnez	s4,4a34 <rfRxProcess+0x214>
    4904:	00f14783          	lbu	a5,15(sp)
    4908:	00f90023          	sb	a5,0(s2)
    490c:	00c9c783          	lbu	a5,12(s3)
    4910:	8b91                	andi	a5,a5,4
    4912:	c795                	beqz	a5,493e <rfRxProcess+0x11e>
    4914:	00194783          	lbu	a5,1(s2)
    4918:	97ca                	add	a5,a5,s2
    491a:	0007c703          	lbu	a4,0(a5)
    491e:	08000793          	li	a5,128
    4922:	00f71e63          	bne	a4,a5,493e <rfRxProcess+0x11e>
    4926:	485c                	lw	a5,20(s0)
    4928:	0ff00713          	li	a4,255
    492c:	c398                	sw	a4,0(a5)
    492e:	0004c783          	lbu	a5,0(s1)
    4932:	0087e793          	ori	a5,a5,8
    4936:	1ffff717          	auipc	a4,0x1ffff
    493a:	9af70123          	sb	a5,-1630(a4) # 200032d8 <rfConfig>
    493e:	1ffff797          	auipc	a5,0x1ffff
    4942:	97278793          	addi	a5,a5,-1678 # 200032b0 <gptrBBReg>
    4946:	439c                	lw	a5,0(a5)
    4948:	008006b7          	lui	a3,0x800
    494c:	4398                	lw	a4,0(a5)
    494e:	8f55                	or	a4,a4,a3
    4950:	c398                	sw	a4,0(a5)
    4952:	57d8                	lw	a4,44(a5)
    4954:	9b71                	andi	a4,a4,-4
    4956:	d7d8                	sw	a4,44(a5)
    4958:	0049a783          	lw	a5,4(s3)
    495c:	1ffff517          	auipc	a0,0x1ffff
    4960:	97c54503          	lbu	a0,-1668(a0) # 200032d8 <rfConfig>
    4964:	8511                	srai	a0,a0,0x4
    4966:	0017c583          	lbu	a1,1(a5)
    496a:	890d                	andi	a0,a0,3
    496c:	8c0ff0ef          	jal	ra,3a2c <BLE_SetPHYTxMode>
    4970:	1fffc097          	auipc	ra,0x1fffc
    4974:	420080e7          	jalr	1056(ra) # 20000d90 <ll_rx_wait_finish>
    4978:	bb8ff0ef          	jal	ra,3d30 <ble_ll_hw_api_shut>
    497c:	1ffff697          	auipc	a3,0x1ffff
    4980:	9886c683          	lbu	a3,-1656(a3) # 20003304 <rfInfo+0xc>
    4984:	0046f793          	andi	a5,a3,4
    4988:	14078b63          	beqz	a5,4ade <rfRxProcess+0x2be>
    498c:	1ffff717          	auipc	a4,0x1ffff
    4990:	8d870713          	addi	a4,a4,-1832 # 20003264 <ble>
    4994:	01670603          	lb	a2,22(a4)
    4998:	481c                	lw	a5,16(s0)
    499a:	0c065d63          	bgez	a2,4a74 <rfRxProcess+0x254>
    499e:	17f1                	addi	a5,a5,-4
    49a0:	1ffff717          	auipc	a4,0x1ffff
    49a4:	92f72423          	sw	a5,-1752(a4) # 200032c8 <gBleIPPara+0x10>
    49a8:	481c                	lw	a5,16(s0)
    49aa:	0089a703          	lw	a4,8(s3)
    49ae:	0c065b63          	bgez	a2,4a84 <rfRxProcess+0x264>
    49b2:	40e78733          	sub	a4,a5,a4
    49b6:	00194783          	lbu	a5,1(s2)
    49ba:	01869593          	slli	a1,a3,0x18
    49be:	85e1                	srai	a1,a1,0x18
    49c0:	97ca                	add	a5,a5,s2
    49c2:	0017c783          	lbu	a5,1(a5)
    49c6:	078e                	slli	a5,a5,0x3
    49c8:	0c05dd63          	bgez	a1,4aa2 <rfRxProcess+0x282>
    49cc:	0ce7f263          	bgeu	a5,a4,4a90 <rfRxProcess+0x270>
    49d0:	8f1d                	sub	a4,a4,a5
    49d2:	02000693          	li	a3,32
    49d6:	00e6eb63          	bltu	a3,a4,49ec <rfRxProcess+0x1cc>
    49da:	4818                	lw	a4,16(s0)
    49dc:	0a065d63          	bgez	a2,4a96 <rfRxProcess+0x276>
    49e0:	40f707b3          	sub	a5,a4,a5
    49e4:	1ffff717          	auipc	a4,0x1ffff
    49e8:	90f72e23          	sw	a5,-1764(a4) # 20003300 <rfInfo+0x8>
    49ec:	4589                	li	a1,2
    49ee:	1ffff517          	auipc	a0,0x1ffff
    49f2:	91a54503          	lbu	a0,-1766(a0) # 20003308 <rfInfo+0x10>
    49f6:	deafe0ef          	jal	ra,2fe0 <tmos_set_event>
    49fa:	0004c783          	lbu	a5,0(s1)
    49fe:	8ba1                	andi	a5,a5,8
    4a00:	cbf1                	beqz	a5,4ad4 <rfRxProcess+0x2b4>
    4a02:	0049a503          	lw	a0,4(s3)
    4a06:	1ffff617          	auipc	a2,0x1ffff
    4a0a:	8f564603          	lbu	a2,-1803(a2) # 200032fb <rfInfo+0x3>
    4a0e:	1ffff697          	auipc	a3,0x1ffff
    4a12:	8ec6c683          	lbu	a3,-1812(a3) # 200032fa <rfInfo+0x2>
    4a16:	cd45                	beqz	a0,4ace <rfRxProcess+0x2ae>
    4a18:	00154583          	lbu	a1,1(a0)
    4a1c:	0509                	addi	a0,a0,2
    4a1e:	3efd                	jal	461c <RF_Rx>
    4a20:	0004c783          	lbu	a5,0(s1)
    4a24:	9bdd                	andi	a5,a5,-9
    4a26:	1ffff717          	auipc	a4,0x1ffff
    4a2a:	8af70923          	sb	a5,-1870(a4) # 200032d8 <rfConfig>
    4a2e:	a81d                	j	4a64 <rfRxProcess+0x244>
    4a30:	ec0a0ee3          	beqz	s4,490c <rfRxProcess+0xec>
    4a34:	afcff0ef          	jal	ra,3d30 <ble_ll_hw_api_shut>
    4a38:	4c10                	lw	a2,24(s0)
    4a3a:	489c                	lw	a5,16(s1)
    4a3c:	450d                	li	a0,3
    4a3e:	0ffa7593          	andi	a1,s4,255
    4a42:	9782                	jalr	a5
    4a44:	0049a503          	lw	a0,4(s3)
    4a48:	1ffff617          	auipc	a2,0x1ffff
    4a4c:	8b364603          	lbu	a2,-1869(a2) # 200032fb <rfInfo+0x3>
    4a50:	1ffff697          	auipc	a3,0x1ffff
    4a54:	8aa6c683          	lbu	a3,-1878(a3) # 200032fa <rfInfo+0x2>
    4a58:	26050263          	beqz	a0,4cbc <rfRxProcess+0x49c>
    4a5c:	00154583          	lbu	a1,1(a0)
    4a60:	0509                	addi	a0,a0,2
    4a62:	3e6d                	jal	461c <RF_Rx>
    4a64:	50b2                	lw	ra,44(sp)
    4a66:	5422                	lw	s0,40(sp)
    4a68:	5492                	lw	s1,36(sp)
    4a6a:	5902                	lw	s2,32(sp)
    4a6c:	49f2                	lw	s3,28(sp)
    4a6e:	4a62                	lw	s4,24(sp)
    4a70:	6145                	addi	sp,sp,48
    4a72:	8082                	ret
    4a74:	470d                	li	a4,3
    4a76:	f2f764e3          	bltu	a4,a5,499e <rfRxProcess+0x17e>
    4a7a:	a8c00737          	lui	a4,0xa8c00
    4a7e:	1771                	addi	a4,a4,-4
    4a80:	97ba                	add	a5,a5,a4
    4a82:	bf39                	j	49a0 <rfRxProcess+0x180>
    4a84:	f2e7f7e3          	bgeu	a5,a4,49b2 <rfRxProcess+0x192>
    4a88:	a8c005b7          	lui	a1,0xa8c00
    4a8c:	97ae                	add	a5,a5,a1
    4a8e:	b715                	j	49b2 <rfRxProcess+0x192>
    4a90:	40e78733          	sub	a4,a5,a4
    4a94:	bf3d                	j	49d2 <rfRxProcess+0x1b2>
    4a96:	f4f775e3          	bgeu	a4,a5,49e0 <rfRxProcess+0x1c0>
    4a9a:	a8c006b7          	lui	a3,0xa8c00
    4a9e:	9736                	add	a4,a4,a3
    4aa0:	b781                	j	49e0 <rfRxProcess+0x1c0>
    4aa2:	4818                	lw	a4,16(s0)
    4aa4:	00065f63          	bgez	a2,4ac2 <rfRxProcess+0x2a2>
    4aa8:	40f707b3          	sub	a5,a4,a5
    4aac:	f806e693          	ori	a3,a3,-128
    4ab0:	1ffff717          	auipc	a4,0x1ffff
    4ab4:	84f72823          	sw	a5,-1968(a4) # 20003300 <rfInfo+0x8>
    4ab8:	1ffff797          	auipc	a5,0x1ffff
    4abc:	84d78623          	sb	a3,-1972(a5) # 20003304 <rfInfo+0xc>
    4ac0:	b735                	j	49ec <rfRxProcess+0x1cc>
    4ac2:	fef773e3          	bgeu	a4,a5,4aa8 <rfRxProcess+0x288>
    4ac6:	a8c00637          	lui	a2,0xa8c00
    4aca:	9732                	add	a4,a4,a2
    4acc:	bff1                	j	4aa8 <rfRxProcess+0x288>
    4ace:	4581                	li	a1,0
    4ad0:	4501                	li	a0,0
    4ad2:	b7b1                	j	4a1e <rfRxProcess+0x1fe>
    4ad4:	00194783          	lbu	a5,1(s2)
    4ad8:	17f9                	addi	a5,a5,-2
    4ada:	00f900a3          	sb	a5,1(s2)
    4ade:	da4ff0ef          	jal	ra,4082 <rf_stop>
    4ae2:	489c                	lw	a5,16(s1)
    4ae4:	4c10                	lw	a2,24(s0)
    4ae6:	4581                	li	a1,0
    4ae8:	450d                	li	a0,3
    4aea:	9782                	jalr	a5
    4aec:	00144783          	lbu	a5,1(s0)
    4af0:	8b85                	andi	a5,a5,1
    4af2:	cb99                	beqz	a5,4b08 <rfRxProcess+0x2e8>
    4af4:	1fffe797          	auipc	a5,0x1fffe
    4af8:	7c0782a3          	sb	zero,1989(a5) # 200032b9 <gBleIPPara+0x1>
    4afc:	489c                	lw	a5,16(s1)
    4afe:	4601                	li	a2,0
    4b00:	4581                	li	a1,0
    4b02:	4511                	li	a0,4
    4b04:	9782                	jalr	a5
    4b06:	bfb9                	j	4a64 <rfRxProcess+0x244>
    4b08:	1fffe797          	auipc	a5,0x1fffe
    4b0c:	7a078a23          	sb	zero,1972(a5) # 200032bc <gBleIPPara+0x4>
    4b10:	489c                	lw	a5,16(s1)
    4b12:	4601                	li	a2,0
    4b14:	4581                	li	a1,0
    4b16:	4551                	li	a0,20
    4b18:	b7f5                	j	4b04 <rfRxProcess+0x2e4>
    4b1a:	93eff0ef          	jal	ra,3c58 <ll_multi_states_check>
    4b1e:	1fffe797          	auipc	a5,0x1fffe
    4b22:	79278793          	addi	a5,a5,1938 # 200032b0 <gptrBBReg>
    4b26:	4398                	lw	a4,0(a5)
    4b28:	008006b7          	lui	a3,0x800
    4b2c:	431c                	lw	a5,0(a4)
    4b2e:	8fd5                	or	a5,a5,a3
    4b30:	c31c                	sw	a5,0(a4)
    4b32:	d50ff0ef          	jal	ra,4082 <rf_stop>
    4b36:	1fffe797          	auipc	a5,0x1fffe
    4b3a:	72e78793          	addi	a5,a5,1838 # 20003264 <ble>
    4b3e:	5b9c                	lw	a5,48(a5)
    4b40:	4589                	li	a1,2
    4b42:	d38d                	beqz	a5,4a64 <rfRxProcess+0x244>
    4b44:	08100513          	li	a0,129
    4b48:	9782                	jalr	a5
    4b4a:	bf29                	j	4a64 <rfRxProcess+0x244>
    4b4c:	00144783          	lbu	a5,1(s0)
    4b50:	8b85                	andi	a5,a5,1
    4b52:	22078163          	beqz	a5,4d74 <rfRxProcess+0x554>
    4b56:	1fffe797          	auipc	a5,0x1fffe
    4b5a:	760781a3          	sb	zero,1891(a5) # 200032b9 <gBleIPPara+0x1>
    4b5e:	01842903          	lw	s2,24(s0)
    4b62:	d20ff0ef          	jal	ra,4082 <rf_stop>
    4b66:	1fffe697          	auipc	a3,0x1fffe
    4b6a:	79e6c683          	lbu	a3,1950(a3) # 20003304 <rfInfo+0xc>
    4b6e:	0046f793          	andi	a5,a3,4
    4b72:	1a078a63          	beqz	a5,4d26 <rfRxProcess+0x506>
    4b76:	00194783          	lbu	a5,1(s2)
    4b7a:	97ca                	add	a5,a5,s2
    4b7c:	0007c703          	lbu	a4,0(a5)
    4b80:	08000793          	li	a5,128
    4b84:	00f71a63          	bne	a4,a5,4b98 <rfRxProcess+0x378>
    4b88:	0004c783          	lbu	a5,0(s1)
    4b8c:	0087e793          	ori	a5,a5,8
    4b90:	1fffe717          	auipc	a4,0x1fffe
    4b94:	74f70423          	sb	a5,1864(a4) # 200032d8 <rfConfig>
    4b98:	1fffe717          	auipc	a4,0x1fffe
    4b9c:	6cc70713          	addi	a4,a4,1740 # 20003264 <ble>
    4ba0:	01670603          	lb	a2,22(a4)
    4ba4:	481c                	lw	a5,16(s0)
    4ba6:	10065e63          	bgez	a2,4cc2 <rfRxProcess+0x4a2>
    4baa:	17f1                	addi	a5,a5,-4
    4bac:	1fffe717          	auipc	a4,0x1fffe
    4bb0:	70f72e23          	sw	a5,1820(a4) # 200032c8 <gBleIPPara+0x10>
    4bb4:	481c                	lw	a5,16(s0)
    4bb6:	1fffe717          	auipc	a4,0x1fffe
    4bba:	74270713          	addi	a4,a4,1858 # 200032f8 <rfInfo>
    4bbe:	4718                	lw	a4,8(a4)
    4bc0:	10065963          	bgez	a2,4cd2 <rfRxProcess+0x4b2>
    4bc4:	40e78733          	sub	a4,a5,a4
    4bc8:	00194783          	lbu	a5,1(s2)
    4bcc:	01869593          	slli	a1,a3,0x18
    4bd0:	85e1                	srai	a1,a1,0x18
    4bd2:	97ca                	add	a5,a5,s2
    4bd4:	0017c783          	lbu	a5,1(a5)
    4bd8:	078e                	slli	a5,a5,0x3
    4bda:	1005db63          	bgez	a1,4cf0 <rfRxProcess+0x4d0>
    4bde:	10e7f063          	bgeu	a5,a4,4cde <rfRxProcess+0x4be>
    4be2:	8f1d                	sub	a4,a4,a5
    4be4:	02000693          	li	a3,32
    4be8:	00e6eb63          	bltu	a3,a4,4bfe <rfRxProcess+0x3de>
    4bec:	4818                	lw	a4,16(s0)
    4bee:	0e065b63          	bgez	a2,4ce4 <rfRxProcess+0x4c4>
    4bf2:	40f707b3          	sub	a5,a4,a5
    4bf6:	1fffe717          	auipc	a4,0x1fffe
    4bfa:	70f72523          	sw	a5,1802(a4) # 20003300 <rfInfo+0x8>
    4bfe:	4589                	li	a1,2
    4c00:	1fffe517          	auipc	a0,0x1fffe
    4c04:	70854503          	lbu	a0,1800(a0) # 20003308 <rfInfo+0x10>
    4c08:	bd8fe0ef          	jal	ra,2fe0 <tmos_set_event>
    4c0c:	0004c783          	lbu	a5,0(s1)
    4c10:	8ba1                	andi	a5,a5,8
    4c12:	10078563          	beqz	a5,4d1c <rfRxProcess+0x4fc>
    4c16:	1fffe797          	auipc	a5,0x1fffe
    4c1a:	6be78793          	addi	a5,a5,1726 # 200032d4 <gptrLLEReg>
    4c1e:	4394                	lw	a3,0(a5)
    4c20:	0c800793          	li	a5,200
    4c24:	0ff00713          	li	a4,255
    4c28:	d2fc                	sw	a5,100(a3)
    4c2a:	485c                	lw	a5,20(s0)
    4c2c:	00330637          	lui	a2,0x330
    4c30:	4501                	li	a0,0
    4c32:	c398                	sw	a4,0(a5)
    4c34:	1fffe797          	auipc	a5,0x1fffe
    4c38:	68078323          	sb	zero,1670(a5) # 200032ba <gBleIPPara+0x2>
    4c3c:	1fffe797          	auipc	a5,0x1fffe
    4c40:	66078fa3          	sb	zero,1663(a5) # 200032bb <gBleIPPara+0x3>
    4c44:	1fffe797          	auipc	a5,0x1fffe
    4c48:	66078c23          	sb	zero,1656(a5) # 200032bc <gBleIPPara+0x4>
    4c4c:	1fffe797          	auipc	a5,0x1fffe
    4c50:	660788a3          	sb	zero,1649(a5) # 200032bd <gBleIPPara+0x5>
    4c54:	1fffe797          	auipc	a5,0x1fffe
    4c58:	65c78793          	addi	a5,a5,1628 # 200032b0 <gptrBBReg>
    4c5c:	4398                	lw	a4,0(a5)
    4c5e:	431c                	lw	a5,0(a4)
    4c60:	e7f7f793          	andi	a5,a5,-385
    4c64:	c31c                	sw	a5,0(a4)
    4c66:	431c                	lw	a5,0(a4)
    4c68:	e7f7f793          	andi	a5,a5,-385
    4c6c:	1007e793          	ori	a5,a5,256
    4c70:	c31c                	sw	a5,0(a4)
    4c72:	1fffe797          	auipc	a5,0x1fffe
    4c76:	6a678793          	addi	a5,a5,1702 # 20003318 <gptrRFENDReg>
    4c7a:	4398                	lw	a4,0(a5)
    4c7c:	1fffe597          	auipc	a1,0x1fffe
    4c80:	65c5c583          	lbu	a1,1628(a1) # 200032d8 <rfConfig>
    4c84:	8591                	srai	a1,a1,0x4
    4c86:	471c                	lw	a5,8(a4)
    4c88:	898d                	andi	a1,a1,3
    4c8a:	8fd1                	or	a5,a5,a2
    4c8c:	c71c                	sw	a5,8(a4)
    4c8e:	0da00793          	li	a5,218
    4c92:	cabc                	sw	a5,80(a3)
    4c94:	4605                	li	a2,1
    4c96:	1fffc097          	auipc	ra,0x1fffc
    4c9a:	202080e7          	jalr	514(ra) # 20000e98 <ll_tx_wait_finish>
    4c9e:	0004c783          	lbu	a5,0(s1)
    4ca2:	1fffe697          	auipc	a3,0x1fffe
    4ca6:	6586c683          	lbu	a3,1624(a3) # 200032fa <rfInfo+0x2>
    4caa:	1fffe617          	auipc	a2,0x1fffe
    4cae:	65164603          	lbu	a2,1617(a2) # 200032fb <rfInfo+0x3>
    4cb2:	9bdd                	andi	a5,a5,-9
    4cb4:	1fffe717          	auipc	a4,0x1fffe
    4cb8:	62f70223          	sb	a5,1572(a4) # 200032d8 <rfConfig>
    4cbc:	4581                	li	a1,0
    4cbe:	4501                	li	a0,0
    4cc0:	b34d                	j	4a62 <rfRxProcess+0x242>
    4cc2:	470d                	li	a4,3
    4cc4:	eef763e3          	bltu	a4,a5,4baa <rfRxProcess+0x38a>
    4cc8:	a8c00737          	lui	a4,0xa8c00
    4ccc:	1771                	addi	a4,a4,-4
    4cce:	97ba                	add	a5,a5,a4
    4cd0:	bdf1                	j	4bac <rfRxProcess+0x38c>
    4cd2:	eee7f9e3          	bgeu	a5,a4,4bc4 <rfRxProcess+0x3a4>
    4cd6:	a8c005b7          	lui	a1,0xa8c00
    4cda:	97ae                	add	a5,a5,a1
    4cdc:	b5e5                	j	4bc4 <rfRxProcess+0x3a4>
    4cde:	40e78733          	sub	a4,a5,a4
    4ce2:	b709                	j	4be4 <rfRxProcess+0x3c4>
    4ce4:	f0f777e3          	bgeu	a4,a5,4bf2 <rfRxProcess+0x3d2>
    4ce8:	a8c006b7          	lui	a3,0xa8c00
    4cec:	9736                	add	a4,a4,a3
    4cee:	b711                	j	4bf2 <rfRxProcess+0x3d2>
    4cf0:	4818                	lw	a4,16(s0)
    4cf2:	00065f63          	bgez	a2,4d10 <rfRxProcess+0x4f0>
    4cf6:	40f707b3          	sub	a5,a4,a5
    4cfa:	f806e693          	ori	a3,a3,-128
    4cfe:	1fffe717          	auipc	a4,0x1fffe
    4d02:	60f72123          	sw	a5,1538(a4) # 20003300 <rfInfo+0x8>
    4d06:	1fffe797          	auipc	a5,0x1fffe
    4d0a:	5ed78f23          	sb	a3,1534(a5) # 20003304 <rfInfo+0xc>
    4d0e:	bdc5                	j	4bfe <rfRxProcess+0x3de>
    4d10:	fef773e3          	bgeu	a4,a5,4cf6 <rfRxProcess+0x4d6>
    4d14:	a8c00637          	lui	a2,0xa8c00
    4d18:	9732                	add	a4,a4,a2
    4d1a:	bff1                	j	4cf6 <rfRxProcess+0x4d6>
    4d1c:	00194783          	lbu	a5,1(s2)
    4d20:	17f9                	addi	a5,a5,-2
    4d22:	00f900a3          	sb	a5,1(s2)
    4d26:	4c08                	lw	a0,24(s0)
    4d28:	0ff00693          	li	a3,255
    4d2c:	4901                	li	s2,0
    4d2e:	00054703          	lbu	a4,0(a0)
    4d32:	00d70b63          	beq	a4,a3,4d48 <rfRxProcess+0x528>
    4d36:	1fffe797          	auipc	a5,0x1fffe
    4d3a:	5c57c783          	lbu	a5,1477(a5) # 200032fb <rfInfo+0x3>
    4d3e:	00d78563          	beq	a5,a3,4d48 <rfRxProcess+0x528>
    4d42:	00f70363          	beq	a4,a5,4d48 <rfRxProcess+0x528>
    4d46:	4909                	li	s2,2
    4d48:	00048783          	lb	a5,0(s1)
    4d4c:	4681                	li	a3,0
    4d4e:	0207d063          	bgez	a5,4d6e <rfRxProcess+0x54e>
    4d52:	4601                	li	a2,0
    4d54:	4581                	li	a1,0
    4d56:	1fffc097          	auipc	ra,0x1fffc
    4d5a:	078080e7          	jalr	120(ra) # 20000dce <ble_ll_chkcrc>
    4d5e:	00a96533          	or	a0,s2,a0
    4d62:	0ff57593          	andi	a1,a0,255
    4d66:	489c                	lw	a5,16(s1)
    4d68:	4c10                	lw	a2,24(s0)
    4d6a:	450d                	li	a0,3
    4d6c:	bb61                	j	4b04 <rfRxProcess+0x2e4>
    4d6e:	862a                	mv	a2,a0
    4d70:	4581                	li	a1,0
    4d72:	b7d5                	j	4d56 <rfRxProcess+0x536>
    4d74:	ee5fe0ef          	jal	ra,3c58 <ll_multi_states_check>
    4d78:	1fffe797          	auipc	a5,0x1fffe
    4d7c:	53878793          	addi	a5,a5,1336 # 200032b0 <gptrBBReg>
    4d80:	4398                	lw	a4,0(a5)
    4d82:	008006b7          	lui	a3,0x800
    4d86:	431c                	lw	a5,0(a4)
    4d88:	8fd5                	or	a5,a5,a3
    4d8a:	c31c                	sw	a5,0(a4)
    4d8c:	af6ff0ef          	jal	ra,4082 <rf_stop>
    4d90:	1fffe797          	auipc	a5,0x1fffe
    4d94:	4d478793          	addi	a5,a5,1236 # 20003264 <ble>
    4d98:	5b9c                	lw	a5,48(a5)
    4d9a:	cc0785e3          	beqz	a5,4a64 <rfRxProcess+0x244>
    4d9e:	4585                	li	a1,1
    4da0:	b355                	j	4b44 <rfRxProcess+0x324>

00004da2 <RF_Shut>:
RF_Shut():
    4da2:	1fffe797          	auipc	a5,0x1fffe
    4da6:	56078223          	sb	zero,1380(a5) # 20003306 <rfInfo+0xe>
    4daa:	1fffe797          	auipc	a5,0x1fffe
    4dae:	54e78793          	addi	a5,a5,1358 # 200032f8 <rfInfo>
    4db2:	43c8                	lw	a0,4(a5)
    4db4:	1141                	addi	sp,sp,-16
    4db6:	c606                	sw	ra,12(sp)
    4db8:	c509                	beqz	a0,4dc2 <RF_Shut+0x20>
    4dba:	1fffd097          	auipc	ra,0x1fffd
    4dbe:	8aa080e7          	jalr	-1878(ra) # 20001664 <tmos_memory_free>
    4dc2:	1fffe797          	auipc	a5,0x1fffe
    4dc6:	5207ad23          	sw	zero,1338(a5) # 200032fc <rfInfo+0x4>
    4dca:	1fffe797          	auipc	a5,0x1fffe
    4dce:	4f77c783          	lbu	a5,1271(a5) # 200032c1 <gBleIPPara+0x9>
    4dd2:	cf81                	beqz	a5,4dea <RF_Shut+0x48>
    4dd4:	1fffe717          	auipc	a4,0x1fffe
    4dd8:	4ec74703          	lbu	a4,1260(a4) # 200032c0 <gBleIPPara+0x8>
    4ddc:	479d                	li	a5,7
    4dde:	00f71663          	bne	a4,a5,4dea <RF_Shut+0x48>
    4de2:	1fffe797          	auipc	a5,0x1fffe
    4de6:	4c078fa3          	sb	zero,1247(a5) # 200032c1 <gBleIPPara+0x9>
    4dea:	1fffe697          	auipc	a3,0x1fffe
    4dee:	4d56c683          	lbu	a3,1237(a3) # 200032bf <gBleIPPara+0x7>
    4df2:	ffb68793          	addi	a5,a3,-5
    4df6:	0ff7f793          	andi	a5,a5,255
    4dfa:	4705                	li	a4,1
    4dfc:	00f76a63          	bltu	a4,a5,4e10 <RF_Shut+0x6e>
    4e00:	1fffe797          	auipc	a5,0x1fffe
    4e04:	4cd78023          	sb	a3,1216(a5) # 200032c0 <gBleIPPara+0x8>
    4e08:	1fffe797          	auipc	a5,0x1fffe
    4e0c:	4ae78ca3          	sb	a4,1209(a5) # 200032c1 <gBleIPPara+0x9>
    4e10:	f21fe0ef          	jal	ra,3d30 <ble_ll_hw_api_shut>
    4e14:	45c1                	li	a1,16
    4e16:	1fffe517          	auipc	a0,0x1fffe
    4e1a:	4f254503          	lbu	a0,1266(a0) # 20003308 <rfInfo+0x10>
    4e1e:	b02fe0ef          	jal	ra,3120 <tmos_stop_task>
    4e22:	4501                	li	a0,0
    4e24:	4581                	li	a1,0
    4e26:	b66fe0ef          	jal	ra,318c <TMOS_ProcessRegister>
    4e2a:	40b2                	lw	ra,12(sp)
    4e2c:	4501                	li	a0,0
    4e2e:	0141                	addi	sp,sp,16
    4e30:	8082                	ret

00004e32 <RF_FrequencyHoppingShut>:
RF_FrequencyHoppingShut():
    4e32:	1141                	addi	sp,sp,-16
    4e34:	c606                	sw	ra,12(sp)
    4e36:	c422                	sw	s0,8(sp)
    4e38:	37ad                	jal	4da2 <RF_Shut>
    4e3a:	1fffe797          	auipc	a5,0x1fffe
    4e3e:	4be78793          	addi	a5,a5,1214 # 200032f8 <rfInfo>
    4e42:	00f7c703          	lbu	a4,15(a5)
    4e46:	4bdc                	lw	a5,20(a5)
    4e48:	45a1                	li	a1,8
    4e4a:	1fffe517          	auipc	a0,0x1fffe
    4e4e:	4be54503          	lbu	a0,1214(a0) # 20003308 <rfInfo+0x10>
    4e52:	1fffe697          	auipc	a3,0x1fffe
    4e56:	48e683a3          	sb	a4,1159(a3) # 200032d9 <rfConfig+0x1>
    4e5a:	1fffe717          	auipc	a4,0x1fffe
    4e5e:	48f72323          	sw	a5,1158(a4) # 200032e0 <rfConfig+0x8>
    4e62:	abefe0ef          	jal	ra,3120 <tmos_stop_task>
    4e66:	4591                	li	a1,4
    4e68:	1fffe517          	auipc	a0,0x1fffe
    4e6c:	4a054503          	lbu	a0,1184(a0) # 20003308 <rfInfo+0x10>
    4e70:	ab0fe0ef          	jal	ra,3120 <tmos_stop_task>
    4e74:	1fffe797          	auipc	a5,0x1fffe
    4e78:	4907c783          	lbu	a5,1168(a5) # 20003304 <rfInfo+0xc>
    4e7c:	0027f713          	andi	a4,a5,2
    4e80:	1fffe417          	auipc	s0,0x1fffe
    4e84:	45840413          	addi	s0,s0,1112 # 200032d8 <rfConfig>
    4e88:	cf19                	beqz	a4,4ea6 <RF_FrequencyHoppingShut+0x74>
    4e8a:	481c                	lw	a5,16(s0)
    4e8c:	4601                	li	a2,0
    4e8e:	4581                	li	a1,0
    4e90:	02200513          	li	a0,34
    4e94:	9782                	jalr	a5
    4e96:	40b2                	lw	ra,12(sp)
    4e98:	4422                	lw	s0,8(sp)
    4e9a:	1fffe797          	auipc	a5,0x1fffe
    4e9e:	46078523          	sb	zero,1130(a5) # 20003304 <rfInfo+0xc>
    4ea2:	0141                	addi	sp,sp,16
    4ea4:	8082                	ret
    4ea6:	8b91                	andi	a5,a5,4
    4ea8:	d7fd                	beqz	a5,4e96 <RF_FrequencyHoppingShut+0x64>
    4eaa:	481c                	lw	a5,16(s0)
    4eac:	4601                	li	a2,0
    4eae:	4581                	li	a1,0
    4eb0:	02400513          	li	a0,36
    4eb4:	b7c5                	j	4e94 <RF_FrequencyHoppingShut+0x62>

00004eb6 <rf_hop_heart_beat>:
rf_hop_heart_beat():
    4eb6:	7179                	addi	sp,sp,-48
    4eb8:	d226                	sw	s1,36(sp)
    4eba:	1fffe497          	auipc	s1,0x1fffe
    4ebe:	43e48493          	addi	s1,s1,1086 # 200032f8 <rfInfo>
    4ec2:	00c4c783          	lbu	a5,12(s1)
    4ec6:	d606                	sw	ra,44(sp)
    4ec8:	d422                	sw	s0,40(sp)
    4eca:	d04a                	sw	s2,32(sp)
    4ecc:	ce4e                	sw	s3,28(sp)
    4ece:	cc52                	sw	s4,24(sp)
    4ed0:	ca56                	sw	s5,20(sp)
    4ed2:	c85a                	sw	s6,16(sp)
    4ed4:	c65e                	sw	s7,12(sp)
    4ed6:	8b89                	andi	a5,a5,2
    4ed8:	cbe1                	beqz	a5,4fa8 <rf_hop_heart_beat+0xf2>
    4eda:	1fffea97          	auipc	s5,0x1fffe
    4ede:	3feaca83          	lbu	s5,1022(s5) # 200032d8 <rfConfig>
    4ee2:	009ae793          	ori	a5,s5,9
    4ee6:	6935                	lui	s2,0xd
    4ee8:	6985                	lui	s3,0x1
    4eea:	6a3d                	lui	s4,0xf
    4eec:	1fffe717          	auipc	a4,0x1fffe
    4ef0:	3ef70623          	sb	a5,1004(a4) # 200032d8 <rfConfig>
    4ef4:	4401                	li	s0,0
    4ef6:	1fffeb17          	auipc	s6,0x1fffe
    4efa:	3c2b0b13          	addi	s6,s6,962 # 200032b8 <gBleIPPara>
    4efe:	1fffeb97          	auipc	s7,0x1fffe
    4f02:	3d6b8b93          	addi	s7,s7,982 # 200032d4 <gptrLLEReg>
    4f06:	093d                	addi	s2,s2,15
    4f08:	f9298993          	addi	s3,s3,-110 # f92 <_einit+0xf8e>
    4f0c:	0a3d                	addi	s4,s4,15
    4f0e:	1fffe697          	auipc	a3,0x1fffe
    4f12:	3eb6c683          	lbu	a3,1003(a3) # 200032f9 <rfInfo+0x1>
    4f16:	1fffe617          	auipc	a2,0x1fffe
    4f1a:	3e264603          	lbu	a2,994(a2) # 200032f8 <rfInfo>
    4f1e:	4581                	li	a1,0
    4f20:	4501                	li	a0,0
    4f22:	c34ff0ef          	jal	ra,4356 <RF_Tx>
    4f26:	002b4783          	lbu	a5,2(s6)
    4f2a:	8b85                	andi	a5,a5,1
    4f2c:	d3ed                	beqz	a5,4f0e <rf_hop_heart_beat+0x58>
    4f2e:	1fffe517          	auipc	a0,0x1fffe
    4f32:	3aa54503          	lbu	a0,938(a0) # 200032d8 <rfConfig>
    4f36:	8511                	srai	a0,a0,0x4
    4f38:	4601                	li	a2,0
    4f3a:	0ff00593          	li	a1,255
    4f3e:	890d                	andi	a0,a0,3
    4f40:	1fffe797          	auipc	a5,0x1fffe
    4f44:	36078d23          	sb	zero,890(a5) # 200032ba <gBleIPPara+0x2>
    4f48:	c11fe0ef          	jal	ra,3b58 <BLE_SetPHYRxMode>
    4f4c:	47f9                	li	a5,30
    4f4e:	0001                	nop
    4f50:	17fd                	addi	a5,a5,-1
    4f52:	fff5                	bnez	a5,4f4e <rf_hop_heart_beat+0x98>
    4f54:	1fffe597          	auipc	a1,0x1fffe
    4f58:	3845c583          	lbu	a1,900(a1) # 200032d8 <rfConfig>
    4f5c:	8591                	srai	a1,a1,0x4
    4f5e:	0ff00613          	li	a2,255
    4f62:	898d                	andi	a1,a1,3
    4f64:	4505                	li	a0,1
    4f66:	1fffc097          	auipc	ra,0x1fffc
    4f6a:	f32080e7          	jalr	-206(ra) # 20000e98 <ll_tx_wait_finish>
    4f6e:	003b4783          	lbu	a5,3(s6)
    4f72:	8b85                	andi	a5,a5,1
    4f74:	c7a9                	beqz	a5,4fbe <rf_hop_heart_beat+0x108>
    4f76:	1fffe797          	auipc	a5,0x1fffe
    4f7a:	340782a3          	sb	zero,837(a5) # 200032bb <gBleIPPara+0x3>
    4f7e:	904ff0ef          	jal	ra,4082 <rf_stop>
    4f82:	00c4c783          	lbu	a5,12(s1)
    4f86:	4585                	li	a1,1
    4f88:	1fffe517          	auipc	a0,0x1fffe
    4f8c:	38054503          	lbu	a0,896(a0) # 20003308 <rfInfo+0x10>
    4f90:	f807e793          	ori	a5,a5,-128
    4f94:	1fffe717          	auipc	a4,0x1fffe
    4f98:	36f70823          	sb	a5,880(a4) # 20003304 <rfInfo+0xc>
    4f9c:	844fe0ef          	jal	ra,2fe0 <tmos_set_event>
    4fa0:	1fffe797          	auipc	a5,0x1fffe
    4fa4:	33578c23          	sb	s5,824(a5) # 200032d8 <rfConfig>
    4fa8:	50b2                	lw	ra,44(sp)
    4faa:	5422                	lw	s0,40(sp)
    4fac:	5492                	lw	s1,36(sp)
    4fae:	5902                	lw	s2,32(sp)
    4fb0:	49f2                	lw	s3,28(sp)
    4fb2:	4a62                	lw	s4,24(sp)
    4fb4:	4ad2                	lw	s5,20(sp)
    4fb6:	4b42                	lw	s6,16(sp)
    4fb8:	4bb2                	lw	s7,12(sp)
    4fba:	6145                	addi	sp,sp,48
    4fbc:	8082                	ret
    4fbe:	8c4ff0ef          	jal	ra,4082 <rf_stop>
    4fc2:	0405                	addi	s0,s0,1
    4fc4:	0ff47413          	andi	s0,s0,255
    4fc8:	47a1                	li	a5,8
    4fca:	00f41463          	bne	s0,a5,4fd2 <rf_hop_heart_beat+0x11c>
    4fce:	3595                	jal	4e32 <RF_FrequencyHoppingShut>
    4fd0:	bfc1                	j	4fa0 <rf_hop_heart_beat+0xea>
    4fd2:	000ba783          	lw	a5,0(s7)
    4fd6:	0127a623          	sw	s2,12(a5)
    4fda:	0000100f          	fence.i
    4fde:	000ba783          	lw	a5,0(s7)
    4fe2:	6709                	lui	a4,0x2
    4fe4:	c798                	sw	a4,8(a5)
    4fe6:	f8000713          	li	a4,-128
    4fea:	1fffe697          	auipc	a3,0x1fffe
    4fee:	2ce68923          	sb	a4,722(a3) # 200032bc <gBleIPPara+0x4>
    4ff2:	0737a223          	sw	s3,100(a5)
    4ff6:	0147a623          	sw	s4,12(a5)
    4ffa:	53f8                	lw	a4,100(a5)
    4ffc:	ff7d                	bnez	a4,4ffa <rf_hop_heart_beat+0x144>
    4ffe:	bf01                	j	4f0e <rf_hop_heart_beat+0x58>

00005000 <RFFH_ProcessEvent>:
RFFH_ProcessEvent():
    5000:	1141                	addi	sp,sp,-16
    5002:	c422                	sw	s0,8(sp)
    5004:	c606                	sw	ra,12(sp)
    5006:	0015f793          	andi	a5,a1,1
    500a:	842e                	mv	s0,a1
    500c:	c3b9                	beqz	a5,5052 <RFFH_ProcessEvent+0x52>
    500e:	1fffe797          	auipc	a5,0x1fffe
    5012:	2f67c783          	lbu	a5,758(a5) # 20003304 <rfInfo+0xc>
    5016:	0027f713          	andi	a4,a5,2
    501a:	c715                	beqz	a4,5046 <RFFH_ProcessEvent+0x46>
    501c:	07e2                	slli	a5,a5,0x18
    501e:	87e1                	srai	a5,a5,0x18
    5020:	1fffe517          	auipc	a0,0x1fffe
    5024:	2e854503          	lbu	a0,744(a0) # 20003308 <rfInfo+0x10>
    5028:	05000613          	li	a2,80
    502c:	0007da63          	bgez	a5,5040 <RFFH_ProcessEvent+0x40>
    5030:	1fffe617          	auipc	a2,0x1fffe
    5034:	2c164603          	lbu	a2,705(a2) # 200032f1 <rfConfig+0x19>
    5038:	0a000793          	li	a5,160
    503c:	02f60633          	mul	a2,a2,a5
    5040:	4591                	li	a1,4
    5042:	ffffd0ef          	jal	ra,3040 <tmos_start_task>
    5046:	00144513          	xori	a0,s0,1
    504a:	40b2                	lw	ra,12(sp)
    504c:	4422                	lw	s0,8(sp)
    504e:	0141                	addi	sp,sp,16
    5050:	8082                	ret
    5052:	0025f793          	andi	a5,a1,2
    5056:	c3b1                	beqz	a5,509a <RFFH_ProcessEvent+0x9a>
    5058:	1fffe797          	auipc	a5,0x1fffe
    505c:	2ac7c783          	lbu	a5,684(a5) # 20003304 <rfInfo+0xc>
    5060:	0047f713          	andi	a4,a5,4
    5064:	cb05                	beqz	a4,5094 <RFFH_ProcessEvent+0x94>
    5066:	07e2                	slli	a5,a5,0x18
    5068:	87e1                	srai	a5,a5,0x18
    506a:	1fffe517          	auipc	a0,0x1fffe
    506e:	29e54503          	lbu	a0,670(a0) # 20003308 <rfInfo+0x10>
    5072:	0a000613          	li	a2,160
    5076:	0007dc63          	bgez	a5,508e <RFFH_ProcessEvent+0x8e>
    507a:	1fffe617          	auipc	a2,0x1fffe
    507e:	27764603          	lbu	a2,631(a2) # 200032f1 <rfConfig+0x19>
    5082:	0a000793          	li	a5,160
    5086:	02f60633          	mul	a2,a2,a5
    508a:	02860613          	addi	a2,a2,40
    508e:	45a1                	li	a1,8
    5090:	fb1fd0ef          	jal	ra,3040 <tmos_start_task>
    5094:	00244513          	xori	a0,s0,2
    5098:	bf4d                	j	504a <RFFH_ProcessEvent+0x4a>
    509a:	0045f793          	andi	a5,a1,4
    509e:	c789                	beqz	a5,50a8 <RFFH_ProcessEvent+0xa8>
    50a0:	3d19                	jal	4eb6 <rf_hop_heart_beat>
    50a2:	00444513          	xori	a0,s0,4
    50a6:	b755                	j	504a <RFFH_ProcessEvent+0x4a>
    50a8:	0085f793          	andi	a5,a1,8
    50ac:	cb99                	beqz	a5,50c2 <RFFH_ProcessEvent+0xc2>
    50ae:	1fffe797          	auipc	a5,0x1fffe
    50b2:	2567c783          	lbu	a5,598(a5) # 20003304 <rfInfo+0xc>
    50b6:	8b91                	andi	a5,a5,4
    50b8:	c391                	beqz	a5,50bc <RFFH_ProcessEvent+0xbc>
    50ba:	3ba5                	jal	4e32 <RF_FrequencyHoppingShut>
    50bc:	00844513          	xori	a0,s0,8
    50c0:	b769                	j	504a <RFFH_ProcessEvent+0x4a>
    50c2:	0105f793          	andi	a5,a1,16
    50c6:	4501                	li	a0,0
    50c8:	d3c9                	beqz	a5,504a <RFFH_ProcessEvent+0x4a>
    50ca:	bd6fe0ef          	jal	ra,34a0 <TMOS_TempSample>
    50ce:	1fffe717          	auipc	a4,0x1fffe
    50d2:	1f174703          	lbu	a4,497(a4) # 200032bf <gBleIPPara+0x7>
    50d6:	479d                	li	a5,7
    50d8:	00f71b63          	bne	a4,a5,50ee <RFFH_ProcessEvent+0xee>
    50dc:	64000613          	li	a2,1600
    50e0:	45c1                	li	a1,16
    50e2:	1fffe517          	auipc	a0,0x1fffe
    50e6:	22654503          	lbu	a0,550(a0) # 20003308 <rfInfo+0x10>
    50ea:	f57fd0ef          	jal	ra,3040 <tmos_start_task>
    50ee:	01044513          	xori	a0,s0,16
    50f2:	bfa1                	j	504a <RFFH_ProcessEvent+0x4a>

000050f4 <RF_RoleInit>:
RF_RoleInit():
    50f4:	1141                	addi	sp,sp,-16
    50f6:	c606                	sw	ra,12(sp)
    50f8:	c422                	sw	s0,8(sp)
    50fa:	d7dfe0ef          	jal	ra,3e76 <BLE_IPCoreInit>
    50fe:	4671                	li	a2,28
    5100:	4581                	li	a1,0
    5102:	1fffe517          	auipc	a0,0x1fffe
    5106:	1f650513          	addi	a0,a0,502 # 200032f8 <rfInfo>
    510a:	1fffb097          	auipc	ra,0x1fffb
    510e:	6da080e7          	jalr	1754(ra) # 200007e4 <tmos_memset>
    5112:	1fffe417          	auipc	s0,0x1fffe
    5116:	1e640413          	addi	s0,s0,486 # 200032f8 <rfInfo>
    511a:	57fd                	li	a5,-1
    511c:	00000517          	auipc	a0,0x0
    5120:	ee450513          	addi	a0,a0,-284 # 5000 <RFFH_ProcessEvent>
    5124:	c01c                	sw	a5,0(s0)
    5126:	972fe0ef          	jal	ra,3298 <TMOS_ProcessEventRegister>
    512a:	00a40823          	sb	a0,16(s0)
    512e:	4595                	li	a1,5
    5130:	fffff517          	auipc	a0,0xfffff
    5134:	6f050513          	addi	a0,a0,1776 # 4820 <rfRxProcess>
    5138:	854fe0ef          	jal	ra,318c <TMOS_ProcessRegister>
    513c:	40b2                	lw	ra,12(sp)
    513e:	4422                	lw	s0,8(sp)
    5140:	4501                	li	a0,0
    5142:	0141                	addi	sp,sp,16
    5144:	8082                	ret

00005146 <RFEND_Reset>:
RFEND_Reset():
    5146:	1fffe797          	auipc	a5,0x1fffe
    514a:	1d278793          	addi	a5,a5,466 # 20003318 <gptrRFENDReg>
    514e:	4394                	lw	a3,0(a5)
    5150:	6705                	lui	a4,0x1
    5152:	10170713          	addi	a4,a4,257 # 1101 <_einit+0x10fd>
    5156:	c6d8                	sw	a4,12(a3)
    5158:	4751                	li	a4,20
    515a:	0001                	nop
    515c:	177d                	addi	a4,a4,-1
    515e:	ff75                	bnez	a4,515a <RFEND_Reset+0x14>
    5160:	4398                	lw	a4,0(a5)
    5162:	00072623          	sw	zero,12(a4)
    5166:	4751                	li	a4,20
    5168:	0001                	nop
    516a:	177d                	addi	a4,a4,-1
    516c:	ff75                	bnez	a4,5168 <RFEND_Reset+0x22>
    516e:	4398                	lw	a4,0(a5)
    5170:	6785                	lui	a5,0x1
    5172:	10178793          	addi	a5,a5,257 # 1101 <_einit+0x10fd>
    5176:	c75c                	sw	a5,12(a4)
    5178:	8082                	ret

0000517a <RFEND_DevInit>:
RFEND_DevInit():
    517a:	1141                	addi	sp,sp,-16
    517c:	c606                	sw	ra,12(sp)
    517e:	37e1                	jal	5146 <RFEND_Reset>
    5180:	1fffe797          	auipc	a5,0x1fffe
    5184:	19878793          	addi	a5,a5,408 # 20003318 <gptrRFENDReg>
    5188:	439c                	lw	a5,0(a5)
    518a:	48000713          	li	a4,1152
    518e:	90000337          	lui	t1,0x90000
    5192:	d798                	sw	a4,40(a5)
    5194:	47b8                	lw	a4,72(a5)
    5196:	137d                	addi	t1,t1,-1
    5198:	20000e37          	lui	t3,0x20000
    519c:	00677733          	and	a4,a4,t1
    51a0:	01c76733          	or	a4,a4,t3
    51a4:	c7b8                	sw	a4,72(a5)
    51a6:	47b8                	lw	a4,72(a5)
    51a8:	f90006b7          	lui	a3,0xf9000
    51ac:	16fd                	addi	a3,a3,-1
    51ae:	8f75                	and	a4,a4,a3
    51b0:	04000637          	lui	a2,0x4000
    51b4:	8f51                	or	a4,a4,a2
    51b6:	c7b8                	sw	a4,72(a5)
    51b8:	47b8                	lw	a4,72(a5)
    51ba:	fff90637          	lui	a2,0xfff90
    51be:	167d                	addi	a2,a2,-1
    51c0:	9b41                	andi	a4,a4,-16
    51c2:	00976713          	ori	a4,a4,9
    51c6:	c7b8                	sw	a4,72(a5)
    51c8:	47b8                	lw	a4,72(a5)
    51ca:	800008b7          	lui	a7,0x80000
    51ce:	02000eb7          	lui	t4,0x2000
    51d2:	8f71                	and	a4,a4,a2
    51d4:	c7b8                	sw	a4,72(a5)
    51d6:	47b8                	lw	a4,72(a5)
    51d8:	ff000637          	lui	a2,0xff000
    51dc:	167d                	addi	a2,a2,-1
    51de:	01176733          	or	a4,a4,a7
    51e2:	c7b8                	sw	a4,72(a5)
    51e4:	47f8                	lw	a4,76(a5)
    51e6:	7545                	lui	a0,0xffff1
    51e8:	1e7d                	addi	t3,t3,-1
    51ea:	9b61                	andi	a4,a4,-8
    51ec:	00376713          	ori	a4,a4,3
    51f0:	c7f8                	sw	a4,76(a5)
    51f2:	47f8                	lw	a4,76(a5)
    51f4:	f8f77713          	andi	a4,a4,-113
    51f8:	03076713          	ori	a4,a4,48
    51fc:	c7f8                	sw	a4,76(a5)
    51fe:	47ec                	lw	a1,76(a5)
    5200:	8ff5f593          	andi	a1,a1,-1793
    5204:	3005e593          	ori	a1,a1,768
    5208:	c7ec                	sw	a1,76(a5)
    520a:	47f8                	lw	a4,76(a5)
    520c:	8f71                	and	a4,a4,a2
    520e:	c7f8                	sw	a4,76(a5)
    5210:	47f8                	lw	a4,76(a5)
    5212:	6611                	lui	a2,0x4
    5214:	01d76733          	or	a4,a4,t4
    5218:	c7f8                	sw	a4,76(a5)
    521a:	0507a803          	lw	a6,80(a5)
    521e:	fff50713          	addi	a4,a0,-1 # ffff0fff <_eusrstack+0xdffe8fff>
    5222:	757d                	lui	a0,0xfffff
    5224:	00e87833          	and	a6,a6,a4
    5228:	00c86833          	or	a6,a6,a2
    522c:	0507a823          	sw	a6,80(a5)
    5230:	0547a803          	lw	a6,84(a5)
    5234:	157d                	addi	a0,a0,-1
    5236:	ff087813          	andi	a6,a6,-16
    523a:	00486813          	ori	a6,a6,4
    523e:	0507aa23          	sw	a6,84(a5)
    5242:	4bf0                	lw	a2,84(a5)
    5244:	08066613          	ori	a2,a2,128
    5248:	cbf0                	sw	a2,84(a5)
    524a:	4bf0                	lw	a2,84(a5)
    524c:	8e69                	and	a2,a2,a0
    524e:	cbf0                	sw	a2,84(a5)
    5250:	5fc8                	lw	a0,60(a5)
    5252:	8d79                	and	a0,a0,a4
    5254:	6721                	lui	a4,0x8
    5256:	8d59                	or	a0,a0,a4
    5258:	dfc8                	sw	a0,60(a5)
    525a:	5fcc                	lw	a1,60(a5)
    525c:	40000737          	lui	a4,0x40000
    5260:	8df5                	and	a1,a1,a3
    5262:	01d5e5b3          	or	a1,a1,t4
    5266:	dfcc                	sw	a1,60(a5)
    5268:	5fd0                	lw	a2,60(a5)
    526a:	007005b7          	lui	a1,0x700
    526e:	01c67633          	and	a2,a2,t3
    5272:	8e59                	or	a2,a2,a4
    5274:	dfd0                	sw	a2,60(a5)
    5276:	57d0                	lw	a2,44(a5)
    5278:	6709                	lui	a4,0x2
    527a:	8e4d                	or	a2,a2,a1
    527c:	d7d0                	sw	a2,44(a5)
    527e:	57d0                	lw	a2,44(a5)
    5280:	8ef1                	and	a3,a3,a2
    5282:	d7d4                	sw	a3,44(a5)
    5284:	57d4                	lw	a3,44(a5)
    5286:	7675                	lui	a2,0xffffd
    5288:	167d                	addi	a2,a2,-1
    528a:	8ef1                	and	a3,a3,a2
    528c:	8ed9                	or	a3,a3,a4
    528e:	d7d4                	sw	a3,44(a5)
    5290:	57d4                	lw	a3,44(a5)
    5292:	fffd0637          	lui	a2,0xfffd0
    5296:	167d                	addi	a2,a2,-1
    5298:	00020737          	lui	a4,0x20
    529c:	8ef1                	and	a3,a3,a2
    529e:	8ed9                	or	a3,a3,a4
    52a0:	d7d4                	sw	a3,44(a5)
    52a2:	5b94                	lw	a3,48(a5)
    52a4:	9ac1                	andi	a3,a3,-16
    52a6:	db94                	sw	a3,48(a5)
    52a8:	5b94                	lw	a3,48(a5)
    52aa:	f0f6f693          	andi	a3,a3,-241
    52ae:	db94                	sw	a3,48(a5)
    52b0:	5b94                	lw	a3,48(a5)
    52b2:	8ff6f693          	andi	a3,a3,-1793
    52b6:	db94                	sw	a3,48(a5)
    52b8:	5b98                	lw	a4,48(a5)
    52ba:	500006b7          	lui	a3,0x50000
    52be:	8f4d                	or	a4,a4,a1
    52c0:	db98                	sw	a4,48(a5)
    52c2:	5b98                	lw	a4,48(a5)
    52c4:	00677733          	and	a4,a4,t1
    52c8:	8f55                	or	a4,a4,a3
    52ca:	db98                	sw	a4,48(a5)
    52cc:	5f98                	lw	a4,56(a5)
    52ce:	ff0806b7          	lui	a3,0xff080
    52d2:	16fd                	addi	a3,a3,-1
    52d4:	8f75                	and	a4,a4,a3
    52d6:	008806b7          	lui	a3,0x880
    52da:	8f55                	or	a4,a4,a3
    52dc:	df98                	sw	a4,56(a5)
    52de:	5f98                	lw	a4,56(a5)
    52e0:	011768b3          	or	a7,a4,a7
    52e4:	0317ac23          	sw	a7,56(a5)
    52e8:	40b2                	lw	ra,12(sp)
    52ea:	0141                	addi	sp,sp,16
    52ec:	8082                	ret

000052ee <RFEND_RXFilter>:
RFEND_RXFilter():
    52ee:	1fffe717          	auipc	a4,0x1fffe
    52f2:	02a70713          	addi	a4,a4,42 # 20003318 <gptrRFENDReg>
    52f6:	431c                	lw	a5,0(a4)
    52f8:	7641                	lui	a2,0xffff0
    52fa:	167d                	addi	a2,a2,-1
    52fc:	4bb4                	lw	a3,80(a5)
    52fe:	8ef1                	and	a3,a3,a2
    5300:	cbb4                	sw	a3,80(a5)
    5302:	4794                	lw	a3,8(a5)
    5304:	00200637          	lui	a2,0x200
    5308:	8ed1                	or	a3,a3,a2
    530a:	c794                	sw	a3,8(a5)
    530c:	47d4                	lw	a3,12(a5)
    530e:	0106e693          	ori	a3,a3,16
    5312:	c7d4                	sw	a3,12(a5)
    5314:	47d4                	lw	a3,12(a5)
    5316:	9abd                	andi	a3,a3,-17
    5318:	c7d4                	sw	a3,12(a5)
    531a:	0001                	nop
    531c:	0001                	nop
    531e:	0001                	nop
    5320:	0001                	nop
    5322:	4314                	lw	a3,0(a4)
    5324:	6605                	lui	a2,0x1
    5326:	46dc                	lw	a5,12(a3)
    5328:	0107e793          	ori	a5,a5,16
    532c:	c6dc                	sw	a5,12(a3)
    532e:	42dc                	lw	a5,4(a3)
    5330:	8fd1                	or	a5,a5,a2
    5332:	c2dc                	sw	a5,4(a3)
    5334:	09c6a783          	lw	a5,156(a3) # 88009c <_data_lma+0x879b44>
    5338:	83a1                	srli	a5,a5,0x8
    533a:	8b85                	andi	a5,a5,1
    533c:	dfe5                	beqz	a5,5334 <RFEND_RXFilter+0x46>
    533e:	0001                	nop
    5340:	0001                	nop
    5342:	0001                	nop
    5344:	0001                	nop
    5346:	431c                	lw	a5,0(a4)
    5348:	6641                	lui	a2,0x10
    534a:	09c7a703          	lw	a4,156(a5)
    534e:	4bb4                	lw	a3,80(a5)
    5350:	8ed1                	or	a3,a3,a2
    5352:	cbb4                	sw	a3,80(a5)
    5354:	01f77693          	andi	a3,a4,31
    5358:	4bb8                	lw	a4,80(a5)
    535a:	9b01                	andi	a4,a4,-32
    535c:	8f55                	or	a4,a4,a3
    535e:	cbb8                	sw	a4,80(a5)
    5360:	4798                	lw	a4,8(a5)
    5362:	ffe006b7          	lui	a3,0xffe00
    5366:	16fd                	addi	a3,a3,-1
    5368:	8f75                	and	a4,a4,a3
    536a:	c798                	sw	a4,8(a5)
    536c:	8082                	ret

0000536e <RFEND_RXAdc>:
RFEND_RXAdc():
    536e:	1fffe797          	auipc	a5,0x1fffe
    5372:	faa78793          	addi	a5,a5,-86 # 20003318 <gptrRFENDReg>
    5376:	439c                	lw	a5,0(a5)
    5378:	7741                	lui	a4,0xffff0
    537a:	177d                	addi	a4,a4,-1
    537c:	4fb4                	lw	a3,88(a5)
    537e:	6641                	lui	a2,0x10
    5380:	8ef9                	and	a3,a3,a4
    5382:	cfb4                	sw	a3,88(a5)
    5384:	4794                	lw	a3,8(a5)
    5386:	8ed1                	or	a3,a3,a2
    5388:	c794                	sw	a3,8(a5)
    538a:	47d4                	lw	a3,12(a5)
    538c:	eff6f693          	andi	a3,a3,-257
    5390:	c7d4                	sw	a3,12(a5)
    5392:	43d4                	lw	a3,4(a5)
    5394:	8f75                	and	a4,a4,a3
    5396:	c3d8                	sw	a4,4(a5)
    5398:	47d4                	lw	a3,12(a5)
    539a:	1006e693          	ori	a3,a3,256
    539e:	c7d4                	sw	a3,12(a5)
    53a0:	43d8                	lw	a4,4(a5)
    53a2:	8f51                	or	a4,a4,a2
    53a4:	c3d8                	sw	a4,4(a5)
    53a6:	8082                	ret

000053a8 <RFEND_TXCtune>:
RFEND_TXCtune():
    53a8:	7139                	addi	sp,sp,-64
    53aa:	dc22                	sw	s0,56(sp)
    53ac:	1fffe417          	auipc	s0,0x1fffe
    53b0:	f6c40413          	addi	s0,s0,-148 # 20003318 <gptrRFENDReg>
    53b4:	401c                	lw	a5,0(s0)
    53b6:	de06                	sw	ra,60(sp)
    53b8:	da26                	sw	s1,52(sp)
    53ba:	d84a                	sw	s2,48(sp)
    53bc:	d64e                	sw	s3,44(sp)
    53be:	d452                	sw	s4,40(sp)
    53c0:	d256                	sw	s5,36(sp)
    53c2:	d05a                	sw	s6,32(sp)
    53c4:	ce5e                	sw	s7,28(sp)
    53c6:	cc62                	sw	s8,24(sp)
    53c8:	ca66                	sw	s9,20(sp)
    53ca:	c86a                	sw	s10,16(sp)
    53cc:	c66e                	sw	s11,12(sp)
    53ce:	43d8                	lw	a4,4(a5)
    53d0:	76fd                	lui	a3,0xfffff
    53d2:	16fd                	addi	a3,a3,-1
    53d4:	eff77713          	andi	a4,a4,-257
    53d8:	c3d8                	sw	a4,4(a5)
    53da:	5798                	lw	a4,40(a5)
    53dc:	8f75                	and	a4,a4,a3
    53de:	d798                	sw	a4,40(a5)
    53e0:	57d8                	lw	a4,44(a5)
    53e2:	000206b7          	lui	a3,0x20
    53e6:	9b3d                	andi	a4,a4,-17
    53e8:	d7d8                	sw	a4,44(a5)
    53ea:	4798                	lw	a4,8(a5)
    53ec:	8f55                	or	a4,a4,a3
    53ee:	c798                	sw	a4,8(a5)
    53f0:	43d8                	lw	a4,4(a5)
    53f2:	01076713          	ori	a4,a4,16
    53f6:	c3d8                	sw	a4,4(a5)
    53f8:	80b1c703          	lbu	a4,-2037(gp) # 2000175b <nCO2401>
    53fc:	80c1c683          	lbu	a3,-2036(gp) # 2000175c <nGA2401>
    5400:	8f55                	or	a4,a4,a3
    5402:	ef61                	bnez	a4,54da <RFEND_TXCtune+0x132>
    5404:	43d8                	lw	a4,4(a5)
    5406:	7481                	lui	s1,0xfffe0
    5408:	0ff48493          	addi	s1,s1,255 # fffe00ff <_eusrstack+0xdffd80ff>
    540c:	9b79                	andi	a4,a4,-2
    540e:	c3d8                	sw	a4,4(a5)
    5410:	5f98                	lw	a4,56(a5)
    5412:	66b1                	lui	a3,0xc
    5414:	f0068693          	addi	a3,a3,-256 # bf00 <_data_lma+0x59a8>
    5418:	8f65                	and	a4,a4,s1
    541a:	8f55                	or	a4,a4,a3
    541c:	df98                	sw	a4,56(a5)
    541e:	43d8                	lw	a4,4(a5)
    5420:	00176713          	ori	a4,a4,1
    5424:	c3d8                	sw	a4,4(a5)
    5426:	1fffc097          	auipc	ra,0x1fffc
    542a:	13c080e7          	jalr	316(ra) # 20001562 <RFEND_WaitTune>
    542e:	401c                	lw	a5,0(s0)
    5430:	0907a703          	lw	a4,144(a5)
    5434:	03f77713          	andi	a4,a4,63
    5438:	80e185a3          	sb	a4,-2037(gp) # 2000175b <nCO2401>
    543c:	0947a703          	lw	a4,148(a5)
    5440:	8329                	srli	a4,a4,0xa
    5442:	07f77713          	andi	a4,a4,127
    5446:	80e18623          	sb	a4,-2036(gp) # 2000175c <nGA2401>
    544a:	43d8                	lw	a4,4(a5)
    544c:	66b9                	lui	a3,0xe
    544e:	70068693          	addi	a3,a3,1792 # e700 <_data_lma+0x81a8>
    5452:	9b79                	andi	a4,a4,-2
    5454:	c3d8                	sw	a4,4(a5)
    5456:	5f98                	lw	a4,56(a5)
    5458:	8f65                	and	a4,a4,s1
    545a:	8f55                	or	a4,a4,a3
    545c:	df98                	sw	a4,56(a5)
    545e:	43d8                	lw	a4,4(a5)
    5460:	00176713          	ori	a4,a4,1
    5464:	c3d8                	sw	a4,4(a5)
    5466:	1fffc097          	auipc	ra,0x1fffc
    546a:	0fc080e7          	jalr	252(ra) # 20001562 <RFEND_WaitTune>
    546e:	401c                	lw	a5,0(s0)
    5470:	0907a703          	lw	a4,144(a5)
    5474:	03f77713          	andi	a4,a4,63
    5478:	1fffe697          	auipc	a3,0x1fffe
    547c:	eae682a3          	sb	a4,-347(a3) # 2000331d <nCO2480>
    5480:	0947a703          	lw	a4,148(a5)
    5484:	8329                	srli	a4,a4,0xa
    5486:	07f77713          	andi	a4,a4,127
    548a:	1fffe697          	auipc	a3,0x1fffe
    548e:	e8e685a3          	sb	a4,-373(a3) # 20003315 <nGA2480>
    5492:	43d8                	lw	a4,4(a5)
    5494:	66b5                	lui	a3,0xd
    5496:	30068693          	addi	a3,a3,768 # d300 <_data_lma+0x6da8>
    549a:	9b79                	andi	a4,a4,-2
    549c:	c3d8                	sw	a4,4(a5)
    549e:	5f98                	lw	a4,56(a5)
    54a0:	8f65                	and	a4,a4,s1
    54a2:	8f55                	or	a4,a4,a3
    54a4:	df98                	sw	a4,56(a5)
    54a6:	43d8                	lw	a4,4(a5)
    54a8:	00176713          	ori	a4,a4,1
    54ac:	c3d8                	sw	a4,4(a5)
    54ae:	1fffc097          	auipc	ra,0x1fffc
    54b2:	0b4080e7          	jalr	180(ra) # 20001562 <RFEND_WaitTune>
    54b6:	4018                	lw	a4,0(s0)
    54b8:	09072783          	lw	a5,144(a4) # ffff0090 <_eusrstack+0xdffe8090>
    54bc:	03f7f793          	andi	a5,a5,63
    54c0:	1fffe697          	auipc	a3,0x1fffe
    54c4:	e4f68e23          	sb	a5,-420(a3) # 2000331c <nCO2440>
    54c8:	09472783          	lw	a5,148(a4)
    54cc:	83a9                	srli	a5,a5,0xa
    54ce:	07f7f793          	andi	a5,a5,127
    54d2:	1fffe717          	auipc	a4,0x1fffe
    54d6:	e4f70123          	sb	a5,-446(a4) # 20003314 <nGA2440>
    54da:	401c                	lw	a5,0(s0)
    54dc:	1fffec17          	auipc	s8,0x1fffe
    54e0:	e40c4c03          	lbu	s8,-448(s8) # 2000331c <nCO2440>
    54e4:	80b1c683          	lbu	a3,-2037(gp) # 2000175b <nCO2401>
    54e8:	0a07a703          	lw	a4,160(a5)
    54ec:	418686b3          	sub	a3,a3,s8
    54f0:	00f6f613          	andi	a2,a3,15
    54f4:	9b41                	andi	a4,a4,-16
    54f6:	8f51                	or	a4,a4,a2
    54f8:	0ae7a023          	sw	a4,160(a5)
    54fc:	02600713          	li	a4,38
    5500:	02e68733          	mul	a4,a3,a4
    5504:	02700613          	li	a2,39
    5508:	0a07a583          	lw	a1,160(a5)
    550c:	7e7d                	lui	t3,0xfffff
    550e:	0ffe0e13          	addi	t3,t3,255 # fffff0ff <_eusrstack+0xdfff70ff>
    5512:	f0f5f593          	andi	a1,a1,-241
    5516:	02400513          	li	a0,36
    551a:	7345                	lui	t1,0xffff1
    551c:	137d                	addi	t1,t1,-1
    551e:	02300413          	li	s0,35
    5522:	02c74733          	div	a4,a4,a2
    5526:	fff108b7          	lui	a7,0xfff10
    552a:	18fd                	addi	a7,a7,-1
    552c:	02200813          	li	a6,34
    5530:	02100e93          	li	t4,33
    5534:	4f7d                	li	t5,31
    5536:	4ff9                	li	t6,30
    5538:	42f5                	li	t0,29
    553a:	43f1                	li	t2,28
    553c:	4d6d                	li	s10,27
    553e:	4bd1                	li	s7,20
    5540:	4b45                	li	s6,17
    5542:	44bd                	li	s1,15
    5544:	4939                	li	s2,14
    5546:	4a31                	li	s4,12
    5548:	4aad                	li	s5,11
    554a:	49b5                	li	s3,13
    554c:	8b3d                	andi	a4,a4,15
    554e:	0712                	slli	a4,a4,0x4
    5550:	8f4d                	or	a4,a4,a1
    5552:	02500593          	li	a1,37
    5556:	0ae7a023          	sw	a4,160(a5)
    555a:	02b68733          	mul	a4,a3,a1
    555e:	0a07a583          	lw	a1,160(a5)
    5562:	01c5f5b3          	and	a1,a1,t3
    5566:	02c74733          	div	a4,a4,a2
    556a:	8b3d                	andi	a4,a4,15
    556c:	0722                	slli	a4,a4,0x8
    556e:	8f4d                	or	a4,a4,a1
    5570:	0ae7a023          	sw	a4,160(a5)
    5574:	02a68733          	mul	a4,a3,a0
    5578:	0a07a583          	lw	a1,160(a5)
    557c:	f1000537          	lui	a0,0xf1000
    5580:	157d                	addi	a0,a0,-1
    5582:	0065f5b3          	and	a1,a1,t1
    5586:	02c74733          	div	a4,a4,a2
    558a:	8b3d                	andi	a4,a4,15
    558c:	0732                	slli	a4,a4,0xc
    558e:	8f4d                	or	a4,a4,a1
    5590:	0ae7a023          	sw	a4,160(a5)
    5594:	02868733          	mul	a4,a3,s0
    5598:	0a07a583          	lw	a1,160(a5)
    559c:	4461                	li	s0,24
    559e:	0115f5b3          	and	a1,a1,a7
    55a2:	02c74733          	div	a4,a4,a2
    55a6:	8b3d                	andi	a4,a4,15
    55a8:	0742                	slli	a4,a4,0x10
    55aa:	8f4d                	or	a4,a4,a1
    55ac:	0ae7a023          	sw	a4,160(a5)
    55b0:	03068733          	mul	a4,a3,a6
    55b4:	0a07a583          	lw	a1,160(a5)
    55b8:	ff100837          	lui	a6,0xff100
    55bc:	187d                	addi	a6,a6,-1
    55be:	0105f5b3          	and	a1,a1,a6
    55c2:	02c74733          	div	a4,a4,a2
    55c6:	8b3d                	andi	a4,a4,15
    55c8:	0752                	slli	a4,a4,0x14
    55ca:	8f4d                	or	a4,a4,a1
    55cc:	0ae7a023          	sw	a4,160(a5)
    55d0:	03d68733          	mul	a4,a3,t4
    55d4:	0a07a583          	lw	a1,160(a5)
    55d8:	10000eb7          	lui	t4,0x10000
    55dc:	1efd                	addi	t4,t4,-1
    55de:	8de9                	and	a1,a1,a0
    55e0:	02c74733          	div	a4,a4,a2
    55e4:	8b3d                	andi	a4,a4,15
    55e6:	0762                	slli	a4,a4,0x18
    55e8:	8f4d                	or	a4,a4,a1
    55ea:	0ae7a023          	sw	a4,160(a5)
    55ee:	00569713          	slli	a4,a3,0x5
    55f2:	02c74733          	div	a4,a4,a2
    55f6:	01c71593          	slli	a1,a4,0x1c
    55fa:	0a07a703          	lw	a4,160(a5)
    55fe:	01d77733          	and	a4,a4,t4
    5602:	8f4d                	or	a4,a4,a1
    5604:	0ae7a023          	sw	a4,160(a5)
    5608:	03e68733          	mul	a4,a3,t5
    560c:	4f5d                	li	t5,23
    560e:	02c74733          	div	a4,a4,a2
    5612:	00f77593          	andi	a1,a4,15
    5616:	0a47a703          	lw	a4,164(a5)
    561a:	9b41                	andi	a4,a4,-16
    561c:	8f4d                	or	a4,a4,a1
    561e:	0ae7a223          	sw	a4,164(a5)
    5622:	03f68733          	mul	a4,a3,t6
    5626:	0a47a583          	lw	a1,164(a5)
    562a:	4fd9                	li	t6,22
    562c:	f0f5f593          	andi	a1,a1,-241
    5630:	02c74733          	div	a4,a4,a2
    5634:	8b3d                	andi	a4,a4,15
    5636:	0712                	slli	a4,a4,0x4
    5638:	8f4d                	or	a4,a4,a1
    563a:	0ae7a223          	sw	a4,164(a5)
    563e:	02568733          	mul	a4,a3,t0
    5642:	0a47a583          	lw	a1,164(a5)
    5646:	42d5                	li	t0,21
    5648:	01c5f5b3          	and	a1,a1,t3
    564c:	02c74733          	div	a4,a4,a2
    5650:	8b3d                	andi	a4,a4,15
    5652:	0722                	slli	a4,a4,0x8
    5654:	8f4d                	or	a4,a4,a1
    5656:	0ae7a223          	sw	a4,164(a5)
    565a:	02768733          	mul	a4,a3,t2
    565e:	0a47a583          	lw	a1,164(a5)
    5662:	43cd                	li	t2,19
    5664:	0065f5b3          	and	a1,a1,t1
    5668:	02c74733          	div	a4,a4,a2
    566c:	8b3d                	andi	a4,a4,15
    566e:	0732                	slli	a4,a4,0xc
    5670:	8f4d                	or	a4,a4,a1
    5672:	0ae7a223          	sw	a4,164(a5)
    5676:	03a68733          	mul	a4,a3,s10
    567a:	0a47a583          	lw	a1,164(a5)
    567e:	4d49                	li	s10,18
    5680:	0115f5b3          	and	a1,a1,a7
    5684:	02c74733          	div	a4,a4,a2
    5688:	8b3d                	andi	a4,a4,15
    568a:	0742                	slli	a4,a4,0x10
    568c:	8f4d                	or	a4,a4,a1
    568e:	0ae7a223          	sw	a4,164(a5)
    5692:	4769                	li	a4,26
    5694:	02e68733          	mul	a4,a3,a4
    5698:	0a47a583          	lw	a1,164(a5)
    569c:	0105f5b3          	and	a1,a1,a6
    56a0:	02c74733          	div	a4,a4,a2
    56a4:	8b3d                	andi	a4,a4,15
    56a6:	0752                	slli	a4,a4,0x14
    56a8:	8f4d                	or	a4,a4,a1
    56aa:	45e5                	li	a1,25
    56ac:	0ae7a223          	sw	a4,164(a5)
    56b0:	02b68733          	mul	a4,a3,a1
    56b4:	0a47a583          	lw	a1,164(a5)
    56b8:	8de9                	and	a1,a1,a0
    56ba:	02c74733          	div	a4,a4,a2
    56be:	8b3d                	andi	a4,a4,15
    56c0:	0762                	slli	a4,a4,0x18
    56c2:	8f4d                	or	a4,a4,a1
    56c4:	0ae7a223          	sw	a4,164(a5)
    56c8:	02868733          	mul	a4,a3,s0
    56cc:	440d                	li	s0,3
    56ce:	02c74733          	div	a4,a4,a2
    56d2:	01c71593          	slli	a1,a4,0x1c
    56d6:	0a47a703          	lw	a4,164(a5)
    56da:	01d77733          	and	a4,a4,t4
    56de:	8f4d                	or	a4,a4,a1
    56e0:	0ae7a223          	sw	a4,164(a5)
    56e4:	03e68733          	mul	a4,a3,t5
    56e8:	4f25                	li	t5,9
    56ea:	02c74733          	div	a4,a4,a2
    56ee:	00f77593          	andi	a1,a4,15
    56f2:	0a87a703          	lw	a4,168(a5)
    56f6:	9b41                	andi	a4,a4,-16
    56f8:	8f4d                	or	a4,a4,a1
    56fa:	0ae7a423          	sw	a4,168(a5)
    56fe:	03f68733          	mul	a4,a3,t6
    5702:	0a87a583          	lw	a1,168(a5)
    5706:	4f9d                	li	t6,7
    5708:	f0f5f593          	andi	a1,a1,-241
    570c:	02c74733          	div	a4,a4,a2
    5710:	8b3d                	andi	a4,a4,15
    5712:	0712                	slli	a4,a4,0x4
    5714:	8f4d                	or	a4,a4,a1
    5716:	0ae7a423          	sw	a4,168(a5)
    571a:	02568733          	mul	a4,a3,t0
    571e:	0a87a583          	lw	a1,168(a5)
    5722:	4299                	li	t0,6
    5724:	01c5f5b3          	and	a1,a1,t3
    5728:	02c74733          	div	a4,a4,a2
    572c:	8b3d                	andi	a4,a4,15
    572e:	0722                	slli	a4,a4,0x8
    5730:	8f4d                	or	a4,a4,a1
    5732:	0ae7a423          	sw	a4,168(a5)
    5736:	03768733          	mul	a4,a3,s7
    573a:	0a87a583          	lw	a1,168(a5)
    573e:	0065f5b3          	and	a1,a1,t1
    5742:	02c74733          	div	a4,a4,a2
    5746:	8b3d                	andi	a4,a4,15
    5748:	0732                	slli	a4,a4,0xc
    574a:	8f4d                	or	a4,a4,a1
    574c:	0ae7a423          	sw	a4,168(a5)
    5750:	02768733          	mul	a4,a3,t2
    5754:	0a87a583          	lw	a1,168(a5)
    5758:	4395                	li	t2,5
    575a:	0115f5b3          	and	a1,a1,a7
    575e:	02c74733          	div	a4,a4,a2
    5762:	8b3d                	andi	a4,a4,15
    5764:	0742                	slli	a4,a4,0x10
    5766:	8f4d                	or	a4,a4,a1
    5768:	0ae7a423          	sw	a4,168(a5)
    576c:	03a68733          	mul	a4,a3,s10
    5770:	0a87a583          	lw	a1,168(a5)
    5774:	4d29                	li	s10,10
    5776:	0105f5b3          	and	a1,a1,a6
    577a:	02c74733          	div	a4,a4,a2
    577e:	8b3d                	andi	a4,a4,15
    5780:	0752                	slli	a4,a4,0x14
    5782:	8f4d                	or	a4,a4,a1
    5784:	0ae7a423          	sw	a4,168(a5)
    5788:	03668733          	mul	a4,a3,s6
    578c:	0a87a583          	lw	a1,168(a5)
    5790:	8de9                	and	a1,a1,a0
    5792:	02c74733          	div	a4,a4,a2
    5796:	8b3d                	andi	a4,a4,15
    5798:	0762                	slli	a4,a4,0x18
    579a:	8f4d                	or	a4,a4,a1
    579c:	00469593          	slli	a1,a3,0x4
    57a0:	02c5c5b3          	div	a1,a1,a2
    57a4:	0ae7a423          	sw	a4,168(a5)
    57a8:	0a87a703          	lw	a4,168(a5)
    57ac:	01d77733          	and	a4,a4,t4
    57b0:	05f2                	slli	a1,a1,0x1c
    57b2:	8f4d                	or	a4,a4,a1
    57b4:	029685b3          	mul	a1,a3,s1
    57b8:	0ae7a423          	sw	a4,168(a5)
    57bc:	0ac7a703          	lw	a4,172(a5)
    57c0:	9b41                	andi	a4,a4,-16
    57c2:	02c5c5b3          	div	a1,a1,a2
    57c6:	89bd                	andi	a1,a1,15
    57c8:	8f4d                	or	a4,a4,a1
    57ca:	0ae7a623          	sw	a4,172(a5)
    57ce:	03268733          	mul	a4,a3,s2
    57d2:	0ac7a583          	lw	a1,172(a5)
    57d6:	f0f5f593          	andi	a1,a1,-241
    57da:	02c74733          	div	a4,a4,a2
    57de:	8b3d                	andi	a4,a4,15
    57e0:	0712                	slli	a4,a4,0x4
    57e2:	8f4d                	or	a4,a4,a1
    57e4:	0286c5b3          	div	a1,a3,s0
    57e8:	0ae7a623          	sw	a4,172(a5)
    57ec:	0ac7a703          	lw	a4,172(a5)
    57f0:	01c77733          	and	a4,a4,t3
    57f4:	89bd                	andi	a1,a1,15
    57f6:	05a2                	slli	a1,a1,0x8
    57f8:	8f4d                	or	a4,a4,a1
    57fa:	0ae7a623          	sw	a4,172(a5)
    57fe:	03468733          	mul	a4,a3,s4
    5802:	0ac7a583          	lw	a1,172(a5)
    5806:	0065f5b3          	and	a1,a1,t1
    580a:	02c74733          	div	a4,a4,a2
    580e:	8b3d                	andi	a4,a4,15
    5810:	0732                	slli	a4,a4,0xc
    5812:	8f4d                	or	a4,a4,a1
    5814:	0ae7a623          	sw	a4,172(a5)
    5818:	03568733          	mul	a4,a3,s5
    581c:	0ac7a583          	lw	a1,172(a5)
    5820:	0115f5b3          	and	a1,a1,a7
    5824:	02c74733          	div	a4,a4,a2
    5828:	8b3d                	andi	a4,a4,15
    582a:	0742                	slli	a4,a4,0x10
    582c:	8f4d                	or	a4,a4,a1
    582e:	0ae7a623          	sw	a4,172(a5)
    5832:	03a68733          	mul	a4,a3,s10
    5836:	0ac7a583          	lw	a1,172(a5)
    583a:	0105f5b3          	and	a1,a1,a6
    583e:	02c74733          	div	a4,a4,a2
    5842:	8b3d                	andi	a4,a4,15
    5844:	0752                	slli	a4,a4,0x14
    5846:	8f4d                	or	a4,a4,a1
    5848:	0ae7a623          	sw	a4,172(a5)
    584c:	03e68733          	mul	a4,a3,t5
    5850:	0ac7a583          	lw	a1,172(a5)
    5854:	8de9                	and	a1,a1,a0
    5856:	02c74733          	div	a4,a4,a2
    585a:	8b3d                	andi	a4,a4,15
    585c:	0762                	slli	a4,a4,0x18
    585e:	8f4d                	or	a4,a4,a1
    5860:	00369593          	slli	a1,a3,0x3
    5864:	02c5c5b3          	div	a1,a1,a2
    5868:	0ae7a623          	sw	a4,172(a5)
    586c:	0ac7a703          	lw	a4,172(a5)
    5870:	01d77733          	and	a4,a4,t4
    5874:	05f2                	slli	a1,a1,0x1c
    5876:	8f4d                	or	a4,a4,a1
    5878:	03f685b3          	mul	a1,a3,t6
    587c:	0ae7a623          	sw	a4,172(a5)
    5880:	0b07a703          	lw	a4,176(a5)
    5884:	9b41                	andi	a4,a4,-16
    5886:	02c5c5b3          	div	a1,a1,a2
    588a:	89bd                	andi	a1,a1,15
    588c:	8f4d                	or	a4,a4,a1
    588e:	0ae7a823          	sw	a4,176(a5)
    5892:	02568733          	mul	a4,a3,t0
    5896:	0b07a583          	lw	a1,176(a5)
    589a:	f0f5f593          	andi	a1,a1,-241
    589e:	02c74733          	div	a4,a4,a2
    58a2:	8b3d                	andi	a4,a4,15
    58a4:	0712                	slli	a4,a4,0x4
    58a6:	8f4d                	or	a4,a4,a1
    58a8:	0ae7a823          	sw	a4,176(a5)
    58ac:	02768733          	mul	a4,a3,t2
    58b0:	0b07a583          	lw	a1,176(a5)
    58b4:	01c5f5b3          	and	a1,a1,t3
    58b8:	02c74733          	div	a4,a4,a2
    58bc:	8b3d                	andi	a4,a4,15
    58be:	0722                	slli	a4,a4,0x8
    58c0:	8f4d                	or	a4,a4,a1
    58c2:	0ae7a823          	sw	a4,176(a5)
    58c6:	00269713          	slli	a4,a3,0x2
    58ca:	02c74733          	div	a4,a4,a2
    58ce:	0b07a583          	lw	a1,176(a5)
    58d2:	0065f5b3          	and	a1,a1,t1
    58d6:	8b3d                	andi	a4,a4,15
    58d8:	0732                	slli	a4,a4,0xc
    58da:	8f4d                	or	a4,a4,a1
    58dc:	0336c5b3          	div	a1,a3,s3
    58e0:	0ae7a823          	sw	a4,176(a5)
    58e4:	0b07a703          	lw	a4,176(a5)
    58e8:	01177733          	and	a4,a4,a7
    58ec:	89bd                	andi	a1,a1,15
    58ee:	05c2                	slli	a1,a1,0x10
    58f0:	8f4d                	or	a4,a4,a1
    58f2:	0ae7a823          	sw	a4,176(a5)
    58f6:	00169713          	slli	a4,a3,0x1
    58fa:	02c74733          	div	a4,a4,a2
    58fe:	0b07a583          	lw	a1,176(a5)
    5902:	0105f5b3          	and	a1,a1,a6
    5906:	8b3d                	andi	a4,a4,15
    5908:	0752                	slli	a4,a4,0x14
    590a:	8f4d                	or	a4,a4,a1
    590c:	02c6c5b3          	div	a1,a3,a2
    5910:	0ae7a823          	sw	a4,176(a5)
    5914:	0b07a703          	lw	a4,176(a5)
    5918:	8f69                	and	a4,a4,a0
    591a:	89bd                	andi	a1,a1,15
    591c:	05e2                	slli	a1,a1,0x18
    591e:	8f4d                	or	a4,a4,a1
    5920:	0ae7a823          	sw	a4,176(a5)
    5924:	0b07a703          	lw	a4,176(a5)
    5928:	02800593          	li	a1,40
    592c:	01d77733          	and	a4,a4,t4
    5930:	0ae7a823          	sw	a4,176(a5)
    5934:	1fffe717          	auipc	a4,0x1fffe
    5938:	9e974703          	lbu	a4,-1559(a4) # 2000331d <nCO2480>
    593c:	40ec0733          	sub	a4,s8,a4
    5940:	02b74db3          	div	s11,a4,a1
    5944:	0b47ac83          	lw	s9,180(a5)
    5948:	ff0cfc93          	andi	s9,s9,-16
    594c:	03774bb3          	div	s7,a4,s7
    5950:	00fdfd93          	andi	s11,s11,15
    5954:	01bcecb3          	or	s9,s9,s11
    5958:	0b97aa23          	sw	s9,180(a5)
    595c:	0b47ac83          	lw	s9,180(a5)
    5960:	4dcd                	li	s11,19
    5962:	f0fcfc93          	andi	s9,s9,-241
    5966:	00fbfb93          	andi	s7,s7,15
    596a:	0b92                	slli	s7,s7,0x4
    596c:	017cebb3          	or	s7,s9,s7
    5970:	0b77aa23          	sw	s7,180(a5)
    5974:	02870bb3          	mul	s7,a4,s0
    5978:	0b47ac83          	lw	s9,180(a5)
    597c:	01ccfcb3          	and	s9,s9,t3
    5980:	02bbcbb3          	div	s7,s7,a1
    5984:	00fbfb93          	andi	s7,s7,15
    5988:	0ba2                	slli	s7,s7,0x8
    598a:	017cebb3          	or	s7,s9,s7
    598e:	03a74cb3          	div	s9,a4,s10
    5992:	0b77aa23          	sw	s7,180(a5)
    5996:	0b47ab83          	lw	s7,180(a5)
    599a:	006bfbb3          	and	s7,s7,t1
    599e:	00fcfc93          	andi	s9,s9,15
    59a2:	0cb2                	slli	s9,s9,0xc
    59a4:	019bebb3          	or	s7,s7,s9
    59a8:	0b77aa23          	sw	s7,180(a5)
    59ac:	4ba1                	li	s7,8
    59ae:	03774bb3          	div	s7,a4,s7
    59b2:	0b47ac83          	lw	s9,180(a5)
    59b6:	011cfcb3          	and	s9,s9,a7
    59ba:	00fbfb93          	andi	s7,s7,15
    59be:	0bc2                	slli	s7,s7,0x10
    59c0:	017cebb3          	or	s7,s9,s7
    59c4:	0b77aa23          	sw	s7,180(a5)
    59c8:	02570bb3          	mul	s7,a4,t0
    59cc:	0b47ac83          	lw	s9,180(a5)
    59d0:	010cfcb3          	and	s9,s9,a6
    59d4:	02bbcbb3          	div	s7,s7,a1
    59d8:	00fbfb93          	andi	s7,s7,15
    59dc:	0bd2                	slli	s7,s7,0x14
    59de:	017cebb3          	or	s7,s9,s7
    59e2:	0b77aa23          	sw	s7,180(a5)
    59e6:	03f70bb3          	mul	s7,a4,t6
    59ea:	0b47ac83          	lw	s9,180(a5)
    59ee:	00acfcb3          	and	s9,s9,a0
    59f2:	02bbcbb3          	div	s7,s7,a1
    59f6:	00fbfb93          	andi	s7,s7,15
    59fa:	0be2                	slli	s7,s7,0x18
    59fc:	017cebb3          	or	s7,s9,s7
    5a00:	02774cb3          	div	s9,a4,t2
    5a04:	0b77aa23          	sw	s7,180(a5)
    5a08:	0b47ab83          	lw	s7,180(a5)
    5a0c:	01dbfbb3          	and	s7,s7,t4
    5a10:	0cf2                	slli	s9,s9,0x1c
    5a12:	019bebb3          	or	s7,s7,s9
    5a16:	03e70cb3          	mul	s9,a4,t5
    5a1a:	0b77aa23          	sw	s7,180(a5)
    5a1e:	0b87ab83          	lw	s7,184(a5)
    5a22:	ff0bfb93          	andi	s7,s7,-16
    5a26:	02bcccb3          	div	s9,s9,a1
    5a2a:	03570ab3          	mul	s5,a4,s5
    5a2e:	00fcfc93          	andi	s9,s9,15
    5a32:	019bebb3          	or	s7,s7,s9
    5a36:	0b77ac23          	sw	s7,184(a5)
    5a3a:	4b91                	li	s7,4
    5a3c:	0b87ac83          	lw	s9,184(a5)
    5a40:	f0fcfc93          	andi	s9,s9,-241
    5a44:	03774bb3          	div	s7,a4,s7
    5a48:	03470a33          	mul	s4,a4,s4
    5a4c:	00fbfb93          	andi	s7,s7,15
    5a50:	0b92                	slli	s7,s7,0x4
    5a52:	017cebb3          	or	s7,s9,s7
    5a56:	0b77ac23          	sw	s7,184(a5)
    5a5a:	0b87ab83          	lw	s7,184(a5)
    5a5e:	4cd5                	li	s9,21
    5a60:	01cbfbb3          	and	s7,s7,t3
    5a64:	02bacab3          	div	s5,s5,a1
    5a68:	033709b3          	mul	s3,a4,s3
    5a6c:	00fafa93          	andi	s5,s5,15
    5a70:	0aa2                	slli	s5,s5,0x8
    5a72:	015beab3          	or	s5,s7,s5
    5a76:	0b57ac23          	sw	s5,184(a5)
    5a7a:	0b87aa83          	lw	s5,184(a5)
    5a7e:	4bd9                	li	s7,22
    5a80:	006afab3          	and	s5,s5,t1
    5a84:	02ba4a33          	div	s4,s4,a1
    5a88:	03270933          	mul	s2,a4,s2
    5a8c:	00fa7a13          	andi	s4,s4,15
    5a90:	0a32                	slli	s4,s4,0xc
    5a92:	014aea33          	or	s4,s5,s4
    5a96:	0b47ac23          	sw	s4,184(a5)
    5a9a:	0b87aa03          	lw	s4,184(a5)
    5a9e:	4ae1                	li	s5,24
    5aa0:	011a7a33          	and	s4,s4,a7
    5aa4:	02b9c9b3          	div	s3,s3,a1
    5aa8:	029704b3          	mul	s1,a4,s1
    5aac:	00f9f993          	andi	s3,s3,15
    5ab0:	09c2                	slli	s3,s3,0x10
    5ab2:	013a69b3          	or	s3,s4,s3
    5ab6:	0b37ac23          	sw	s3,184(a5)
    5aba:	0b87a983          	lw	s3,184(a5)
    5abe:	4a65                	li	s4,25
    5ac0:	0109f9b3          	and	s3,s3,a6
    5ac4:	02b94933          	div	s2,s2,a1
    5ac8:	02b4c4b3          	div	s1,s1,a1
    5acc:	00f97913          	andi	s2,s2,15
    5ad0:	0952                	slli	s2,s2,0x14
    5ad2:	0129e933          	or	s2,s3,s2
    5ad6:	0b27ac23          	sw	s2,184(a5)
    5ada:	0b87a903          	lw	s2,184(a5)
    5ade:	49e9                	li	s3,26
    5ae0:	00a97933          	and	s2,s2,a0
    5ae4:	03670b33          	mul	s6,a4,s6
    5ae8:	88bd                	andi	s1,s1,15
    5aea:	04e2                	slli	s1,s1,0x18
    5aec:	009964b3          	or	s1,s2,s1
    5af0:	00471913          	slli	s2,a4,0x4
    5af4:	0a97ac23          	sw	s1,184(a5)
    5af8:	0b87a483          	lw	s1,184(a5)
    5afc:	01d4f4b3          	and	s1,s1,t4
    5b00:	02b94933          	div	s2,s2,a1
    5b04:	02bb4b33          	div	s6,s6,a1
    5b08:	0972                	slli	s2,s2,0x1c
    5b0a:	0124e4b3          	or	s1,s1,s2
    5b0e:	0a97ac23          	sw	s1,184(a5)
    5b12:	0bc7a483          	lw	s1,188(a5)
    5b16:	98c1                	andi	s1,s1,-16
    5b18:	00fb7b13          	andi	s6,s6,15
    5b1c:	0164eb33          	or	s6,s1,s6
    5b20:	44c9                	li	s1,18
    5b22:	029704b3          	mul	s1,a4,s1
    5b26:	0b67ae23          	sw	s6,188(a5)
    5b2a:	0bc7a903          	lw	s2,188(a5)
    5b2e:	4b5d                	li	s6,23
    5b30:	f0f97913          	andi	s2,s2,-241
    5b34:	02b4c4b3          	div	s1,s1,a1
    5b38:	88bd                	andi	s1,s1,15
    5b3a:	0492                	slli	s1,s1,0x4
    5b3c:	009964b3          	or	s1,s2,s1
    5b40:	0a97ae23          	sw	s1,188(a5)
    5b44:	03b704b3          	mul	s1,a4,s11
    5b48:	0bc7a903          	lw	s2,188(a5)
    5b4c:	4df5                	li	s11,29
    5b4e:	01c97933          	and	s2,s2,t3
    5b52:	02b4c4b3          	div	s1,s1,a1
    5b56:	88bd                	andi	s1,s1,15
    5b58:	04a2                	slli	s1,s1,0x8
    5b5a:	009964b3          	or	s1,s2,s1
    5b5e:	0a97ae23          	sw	s1,188(a5)
    5b62:	4489                	li	s1,2
    5b64:	029744b3          	div	s1,a4,s1
    5b68:	0bc7a903          	lw	s2,188(a5)
    5b6c:	00697933          	and	s2,s2,t1
    5b70:	88bd                	andi	s1,s1,15
    5b72:	04b2                	slli	s1,s1,0xc
    5b74:	009964b3          	or	s1,s2,s1
    5b78:	0a97ae23          	sw	s1,188(a5)
    5b7c:	039704b3          	mul	s1,a4,s9
    5b80:	0bc7a903          	lw	s2,188(a5)
    5b84:	4cf9                	li	s9,30
    5b86:	01197933          	and	s2,s2,a7
    5b8a:	02b4c4b3          	div	s1,s1,a1
    5b8e:	88bd                	andi	s1,s1,15
    5b90:	04c2                	slli	s1,s1,0x10
    5b92:	009964b3          	or	s1,s2,s1
    5b96:	0a97ae23          	sw	s1,188(a5)
    5b9a:	037704b3          	mul	s1,a4,s7
    5b9e:	0bc7a903          	lw	s2,188(a5)
    5ba2:	4bfd                	li	s7,31
    5ba4:	01097933          	and	s2,s2,a6
    5ba8:	02b4c4b3          	div	s1,s1,a1
    5bac:	88bd                	andi	s1,s1,15
    5bae:	04d2                	slli	s1,s1,0x14
    5bb0:	009964b3          	or	s1,s2,s1
    5bb4:	0a97ae23          	sw	s1,188(a5)
    5bb8:	036704b3          	mul	s1,a4,s6
    5bbc:	0bc7a903          	lw	s2,188(a5)
    5bc0:	02100b13          	li	s6,33
    5bc4:	00a97933          	and	s2,s2,a0
    5bc8:	02b4c4b3          	div	s1,s1,a1
    5bcc:	88bd                	andi	s1,s1,15
    5bce:	04e2                	slli	s1,s1,0x18
    5bd0:	009964b3          	or	s1,s2,s1
    5bd4:	0a97ae23          	sw	s1,188(a5)
    5bd8:	035704b3          	mul	s1,a4,s5
    5bdc:	0bc7a903          	lw	s2,188(a5)
    5be0:	02200a93          	li	s5,34
    5be4:	01d97933          	and	s2,s2,t4
    5be8:	02b4c4b3          	div	s1,s1,a1
    5bec:	04f2                	slli	s1,s1,0x1c
    5bee:	009964b3          	or	s1,s2,s1
    5bf2:	0a97ae23          	sw	s1,188(a5)
    5bf6:	034704b3          	mul	s1,a4,s4
    5bfa:	0c07a903          	lw	s2,192(a5)
    5bfe:	02300a13          	li	s4,35
    5c02:	ff097913          	andi	s2,s2,-16
    5c06:	02b4c4b3          	div	s1,s1,a1
    5c0a:	88bd                	andi	s1,s1,15
    5c0c:	009964b3          	or	s1,s2,s1
    5c10:	0c97a023          	sw	s1,192(a5)
    5c14:	033704b3          	mul	s1,a4,s3
    5c18:	0c07a903          	lw	s2,192(a5)
    5c1c:	02400993          	li	s3,36
    5c20:	f0f97913          	andi	s2,s2,-241
    5c24:	02b4c4b3          	div	s1,s1,a1
    5c28:	88bd                	andi	s1,s1,15
    5c2a:	0492                	slli	s1,s1,0x4
    5c2c:	009964b3          	or	s1,s2,s1
    5c30:	496d                	li	s2,27
    5c32:	0c97a023          	sw	s1,192(a5)
    5c36:	032704b3          	mul	s1,a4,s2
    5c3a:	0c07a903          	lw	s2,192(a5)
    5c3e:	01c97933          	and	s2,s2,t3
    5c42:	02b4c4b3          	div	s1,s1,a1
    5c46:	88bd                	andi	s1,s1,15
    5c48:	04a2                	slli	s1,s1,0x8
    5c4a:	009964b3          	or	s1,s2,s1
    5c4e:	0c97a023          	sw	s1,192(a5)
    5c52:	44f1                	li	s1,28
    5c54:	029704b3          	mul	s1,a4,s1
    5c58:	0c07a903          	lw	s2,192(a5)
    5c5c:	00697933          	and	s2,s2,t1
    5c60:	02b4c4b3          	div	s1,s1,a1
    5c64:	88bd                	andi	s1,s1,15
    5c66:	04b2                	slli	s1,s1,0xc
    5c68:	009964b3          	or	s1,s2,s1
    5c6c:	0c97a023          	sw	s1,192(a5)
    5c70:	03b704b3          	mul	s1,a4,s11
    5c74:	0c07a903          	lw	s2,192(a5)
    5c78:	01197933          	and	s2,s2,a7
    5c7c:	02b4c4b3          	div	s1,s1,a1
    5c80:	88bd                	andi	s1,s1,15
    5c82:	04c2                	slli	s1,s1,0x10
    5c84:	009964b3          	or	s1,s2,s1
    5c88:	0c97a023          	sw	s1,192(a5)
    5c8c:	039704b3          	mul	s1,a4,s9
    5c90:	0c07a903          	lw	s2,192(a5)
    5c94:	01097933          	and	s2,s2,a6
    5c98:	02b4c4b3          	div	s1,s1,a1
    5c9c:	88bd                	andi	s1,s1,15
    5c9e:	04d2                	slli	s1,s1,0x14
    5ca0:	009964b3          	or	s1,s2,s1
    5ca4:	0c97a023          	sw	s1,192(a5)
    5ca8:	037704b3          	mul	s1,a4,s7
    5cac:	0c07a903          	lw	s2,192(a5)
    5cb0:	00a97933          	and	s2,s2,a0
    5cb4:	02b4c4b3          	div	s1,s1,a1
    5cb8:	88bd                	andi	s1,s1,15
    5cba:	04e2                	slli	s1,s1,0x18
    5cbc:	009964b3          	or	s1,s2,s1
    5cc0:	0c97a023          	sw	s1,192(a5)
    5cc4:	00571493          	slli	s1,a4,0x5
    5cc8:	02b4c4b3          	div	s1,s1,a1
    5ccc:	01c49913          	slli	s2,s1,0x1c
    5cd0:	0c07a483          	lw	s1,192(a5)
    5cd4:	02c70633          	mul	a2,a4,a2
    5cd8:	01d4f4b3          	and	s1,s1,t4
    5cdc:	0124e4b3          	or	s1,s1,s2
    5ce0:	0c97a023          	sw	s1,192(a5)
    5ce4:	0c47a903          	lw	s2,196(a5)
    5ce8:	ff097913          	andi	s2,s2,-16
    5cec:	036704b3          	mul	s1,a4,s6
    5cf0:	02b4c4b3          	div	s1,s1,a1
    5cf4:	88bd                	andi	s1,s1,15
    5cf6:	009964b3          	or	s1,s2,s1
    5cfa:	0c97a223          	sw	s1,196(a5)
    5cfe:	035704b3          	mul	s1,a4,s5
    5d02:	0c47a903          	lw	s2,196(a5)
    5d06:	f0f97913          	andi	s2,s2,-241
    5d0a:	02b4c4b3          	div	s1,s1,a1
    5d0e:	88bd                	andi	s1,s1,15
    5d10:	0492                	slli	s1,s1,0x4
    5d12:	009964b3          	or	s1,s2,s1
    5d16:	0c97a223          	sw	s1,196(a5)
    5d1a:	034704b3          	mul	s1,a4,s4
    5d1e:	0c47a903          	lw	s2,196(a5)
    5d22:	01c97933          	and	s2,s2,t3
    5d26:	02b4c4b3          	div	s1,s1,a1
    5d2a:	88bd                	andi	s1,s1,15
    5d2c:	04a2                	slli	s1,s1,0x8
    5d2e:	009964b3          	or	s1,s2,s1
    5d32:	0c97a223          	sw	s1,196(a5)
    5d36:	033704b3          	mul	s1,a4,s3
    5d3a:	0c47a903          	lw	s2,196(a5)
    5d3e:	00697933          	and	s2,s2,t1
    5d42:	02b4c4b3          	div	s1,s1,a1
    5d46:	88bd                	andi	s1,s1,15
    5d48:	04b2                	slli	s1,s1,0xc
    5d4a:	009964b3          	or	s1,s2,s1
    5d4e:	02500913          	li	s2,37
    5d52:	0c97a223          	sw	s1,196(a5)
    5d56:	032704b3          	mul	s1,a4,s2
    5d5a:	0c47a903          	lw	s2,196(a5)
    5d5e:	01197933          	and	s2,s2,a7
    5d62:	02b4c4b3          	div	s1,s1,a1
    5d66:	88bd                	andi	s1,s1,15
    5d68:	04c2                	slli	s1,s1,0x10
    5d6a:	009964b3          	or	s1,s2,s1
    5d6e:	0c97a223          	sw	s1,196(a5)
    5d72:	02600493          	li	s1,38
    5d76:	029704b3          	mul	s1,a4,s1
    5d7a:	0c47a903          	lw	s2,196(a5)
    5d7e:	01097933          	and	s2,s2,a6
    5d82:	02b4c4b3          	div	s1,s1,a1
    5d86:	02b64633          	div	a2,a2,a1
    5d8a:	88bd                	andi	s1,s1,15
    5d8c:	04d2                	slli	s1,s1,0x14
    5d8e:	009964b3          	or	s1,s2,s1
    5d92:	0c97a223          	sw	s1,196(a5)
    5d96:	0c47a483          	lw	s1,196(a5)
    5d9a:	8ce9                	and	s1,s1,a0
    5d9c:	8a3d                	andi	a2,a2,15
    5d9e:	0662                	slli	a2,a2,0x18
    5da0:	8e45                	or	a2,a2,s1
    5da2:	0cc7a223          	sw	a2,196(a5)
    5da6:	0c47a603          	lw	a2,196(a5)
    5daa:	01c71493          	slli	s1,a4,0x1c
    5dae:	01d67633          	and	a2,a2,t4
    5db2:	8e45                	or	a2,a2,s1
    5db4:	0cc7a223          	sw	a2,196(a5)
    5db8:	02900613          	li	a2,41
    5dbc:	02c70633          	mul	a2,a4,a2
    5dc0:	0c87a483          	lw	s1,200(a5)
    5dc4:	98c1                	andi	s1,s1,-16
    5dc6:	02b64633          	div	a2,a2,a1
    5dca:	8a3d                	andi	a2,a2,15
    5dcc:	8e45                	or	a2,a2,s1
    5dce:	0cc7a423          	sw	a2,200(a5)
    5dd2:	02a00613          	li	a2,42
    5dd6:	02c70633          	mul	a2,a4,a2
    5dda:	02b645b3          	div	a1,a2,a1
    5dde:	0c87a603          	lw	a2,200(a5)
    5de2:	f0f67613          	andi	a2,a2,-241
    5de6:	89bd                	andi	a1,a1,15
    5de8:	0592                	slli	a1,a1,0x4
    5dea:	8dd1                	or	a1,a1,a2
    5dec:	0cb7a423          	sw	a1,200(a5)
    5df0:	1fffd597          	auipc	a1,0x1fffd
    5df4:	5245c583          	lbu	a1,1316(a1) # 20003314 <nGA2440>
    5df8:	1fffd617          	auipc	a2,0x1fffd
    5dfc:	51d64603          	lbu	a2,1309(a2) # 20003315 <nGA2480>
    5e00:	40c58633          	sub	a2,a1,a2
    5e04:	03a604b3          	mul	s1,a2,s10
    5e08:	0c87a903          	lw	s2,200(a5)
    5e0c:	01c97933          	and	s2,s2,t3
    5e10:	02e4c4b3          	div	s1,s1,a4
    5e14:	0084e493          	ori	s1,s1,8
    5e18:	88bd                	andi	s1,s1,15
    5e1a:	04a2                	slli	s1,s1,0x8
    5e1c:	009964b3          	or	s1,s2,s1
    5e20:	0c97a423          	sw	s1,200(a5)
    5e24:	03e604b3          	mul	s1,a2,t5
    5e28:	0c87a903          	lw	s2,200(a5)
    5e2c:	00697933          	and	s2,s2,t1
    5e30:	02e4c4b3          	div	s1,s1,a4
    5e34:	0084e493          	ori	s1,s1,8
    5e38:	88bd                	andi	s1,s1,15
    5e3a:	04b2                	slli	s1,s1,0xc
    5e3c:	009964b3          	or	s1,s2,s1
    5e40:	0c97a423          	sw	s1,200(a5)
    5e44:	00361493          	slli	s1,a2,0x3
    5e48:	02e4c4b3          	div	s1,s1,a4
    5e4c:	0c87a903          	lw	s2,200(a5)
    5e50:	01197933          	and	s2,s2,a7
    5e54:	0084e493          	ori	s1,s1,8
    5e58:	88bd                	andi	s1,s1,15
    5e5a:	04c2                	slli	s1,s1,0x10
    5e5c:	009964b3          	or	s1,s2,s1
    5e60:	0c97a423          	sw	s1,200(a5)
    5e64:	03f604b3          	mul	s1,a2,t6
    5e68:	0c87a903          	lw	s2,200(a5)
    5e6c:	01097933          	and	s2,s2,a6
    5e70:	02e4c4b3          	div	s1,s1,a4
    5e74:	0084e493          	ori	s1,s1,8
    5e78:	88bd                	andi	s1,s1,15
    5e7a:	04d2                	slli	s1,s1,0x14
    5e7c:	009964b3          	or	s1,s2,s1
    5e80:	0c97a423          	sw	s1,200(a5)
    5e84:	025604b3          	mul	s1,a2,t0
    5e88:	0c87a903          	lw	s2,200(a5)
    5e8c:	00a97933          	and	s2,s2,a0
    5e90:	02e4c4b3          	div	s1,s1,a4
    5e94:	0084e493          	ori	s1,s1,8
    5e98:	88bd                	andi	s1,s1,15
    5e9a:	04e2                	slli	s1,s1,0x18
    5e9c:	009964b3          	or	s1,s2,s1
    5ea0:	0c97a423          	sw	s1,200(a5)
    5ea4:	027604b3          	mul	s1,a2,t2
    5ea8:	0c87a903          	lw	s2,200(a5)
    5eac:	01d97933          	and	s2,s2,t4
    5eb0:	02e4c4b3          	div	s1,s1,a4
    5eb4:	0084e493          	ori	s1,s1,8
    5eb8:	04f2                	slli	s1,s1,0x1c
    5eba:	009964b3          	or	s1,s2,s1
    5ebe:	0c97a423          	sw	s1,200(a5)
    5ec2:	00261493          	slli	s1,a2,0x2
    5ec6:	02e4c4b3          	div	s1,s1,a4
    5eca:	0cc7a903          	lw	s2,204(a5)
    5ece:	ff097913          	andi	s2,s2,-16
    5ed2:	0084e493          	ori	s1,s1,8
    5ed6:	88bd                	andi	s1,s1,15
    5ed8:	009964b3          	or	s1,s2,s1
    5edc:	0c97a623          	sw	s1,204(a5)
    5ee0:	028604b3          	mul	s1,a2,s0
    5ee4:	0cc7a903          	lw	s2,204(a5)
    5ee8:	f0f97913          	andi	s2,s2,-241
    5eec:	02e4c4b3          	div	s1,s1,a4
    5ef0:	0084e493          	ori	s1,s1,8
    5ef4:	88bd                	andi	s1,s1,15
    5ef6:	0492                	slli	s1,s1,0x4
    5ef8:	009964b3          	or	s1,s2,s1
    5efc:	0c97a623          	sw	s1,204(a5)
    5f00:	00161493          	slli	s1,a2,0x1
    5f04:	02e4c4b3          	div	s1,s1,a4
    5f08:	0cc7a903          	lw	s2,204(a5)
    5f0c:	01c97933          	and	s2,s2,t3
    5f10:	02e64733          	div	a4,a2,a4
    5f14:	0084e493          	ori	s1,s1,8
    5f18:	88bd                	andi	s1,s1,15
    5f1a:	04a2                	slli	s1,s1,0x8
    5f1c:	009964b3          	or	s1,s2,s1
    5f20:	0c97a623          	sw	s1,204(a5)
    5f24:	0cc7a603          	lw	a2,204(a5)
    5f28:	00667633          	and	a2,a2,t1
    5f2c:	00876713          	ori	a4,a4,8
    5f30:	8b3d                	andi	a4,a4,15
    5f32:	0732                	slli	a4,a4,0xc
    5f34:	8f51                	or	a4,a4,a2
    5f36:	0ce7a623          	sw	a4,204(a5)
    5f3a:	0cc7a703          	lw	a4,204(a5)
    5f3e:	01177733          	and	a4,a4,a7
    5f42:	0ce7a623          	sw	a4,204(a5)
    5f46:	80c1c703          	lbu	a4,-2036(gp) # 2000175c <nGA2401>
    5f4a:	8f0d                	sub	a4,a4,a1
    5f4c:	02d74633          	div	a2,a4,a3
    5f50:	07f5f593          	andi	a1,a1,127
    5f54:	05e2                	slli	a1,a1,0x18
    5f56:	8a3d                	andi	a2,a2,15
    5f58:	01461493          	slli	s1,a2,0x14
    5f5c:	0cc7a603          	lw	a2,204(a5)
    5f60:	02870433          	mul	s0,a4,s0
    5f64:	01067633          	and	a2,a2,a6
    5f68:	8e45                	or	a2,a2,s1
    5f6a:	0cc7a623          	sw	a2,204(a5)
    5f6e:	00171613          	slli	a2,a4,0x1
    5f72:	0cc7a483          	lw	s1,204(a5)
    5f76:	8ce9                	and	s1,s1,a0
    5f78:	02d64633          	div	a2,a2,a3
    5f7c:	8a3d                	andi	a2,a2,15
    5f7e:	0662                	slli	a2,a2,0x18
    5f80:	8e45                	or	a2,a2,s1
    5f82:	0cc7a623          	sw	a2,204(a5)
    5f86:	0cc7a603          	lw	a2,204(a5)
    5f8a:	02d44433          	div	s0,s0,a3
    5f8e:	01d67eb3          	and	t4,a2,t4
    5f92:	00271613          	slli	a2,a4,0x2
    5f96:	027703b3          	mul	t2,a4,t2
    5f9a:	0472                	slli	s0,s0,0x1c
    5f9c:	008ee433          	or	s0,t4,s0
    5fa0:	0c87a623          	sw	s0,204(a5)
    5fa4:	02d64633          	div	a2,a2,a3
    5fa8:	025702b3          	mul	t0,a4,t0
    5fac:	00f67e93          	andi	t4,a2,15
    5fb0:	0d07a603          	lw	a2,208(a5)
    5fb4:	9a41                	andi	a2,a2,-16
    5fb6:	01d66633          	or	a2,a2,t4
    5fba:	0cc7a823          	sw	a2,208(a5)
    5fbe:	0d07a603          	lw	a2,208(a5)
    5fc2:	02d3c3b3          	div	t2,t2,a3
    5fc6:	f0f67613          	andi	a2,a2,-241
    5fca:	02d2c2b3          	div	t0,t0,a3
    5fce:	00f3f393          	andi	t2,t2,15
    5fd2:	0392                	slli	t2,t2,0x4
    5fd4:	007663b3          	or	t2,a2,t2
    5fd8:	0c77a823          	sw	t2,208(a5)
    5fdc:	0d07a603          	lw	a2,208(a5)
    5fe0:	01c67e33          	and	t3,a2,t3
    5fe4:	03f70fb3          	mul	t6,a4,t6
    5fe8:	00f2f293          	andi	t0,t0,15
    5fec:	02a2                	slli	t0,t0,0x8
    5fee:	005e62b3          	or	t0,t3,t0
    5ff2:	0c57a823          	sw	t0,208(a5)
    5ff6:	0d07a603          	lw	a2,208(a5)
    5ffa:	00667333          	and	t1,a2,t1
    5ffe:	00371613          	slli	a2,a4,0x3
    6002:	02dfcfb3          	div	t6,t6,a3
    6006:	03e70f33          	mul	t5,a4,t5
    600a:	00ffff93          	andi	t6,t6,15
    600e:	0fb2                	slli	t6,t6,0xc
    6010:	01f36fb3          	or	t6,t1,t6
    6014:	0df7a823          	sw	t6,208(a5)
    6018:	0d07a303          	lw	t1,208(a5)
    601c:	011378b3          	and	a7,t1,a7
    6020:	02d64633          	div	a2,a2,a3
    6024:	03a70d33          	mul	s10,a4,s10
    6028:	8a3d                	andi	a2,a2,15
    602a:	0642                	slli	a2,a2,0x10
    602c:	00c8e633          	or	a2,a7,a2
    6030:	0cc7a823          	sw	a2,208(a5)
    6034:	0d07a603          	lw	a2,208(a5)
    6038:	01067833          	and	a6,a2,a6
    603c:	02df4f33          	div	t5,t5,a3
    6040:	02dd46b3          	div	a3,s10,a3
    6044:	00ff7f13          	andi	t5,t5,15
    6048:	0f52                	slli	t5,t5,0x14
    604a:	01e86f33          	or	t5,a6,t5
    604e:	0de7a823          	sw	t5,208(a5)
    6052:	0d07a703          	lw	a4,208(a5)
    6056:	8d79                	and	a0,a0,a4
    6058:	8abd                	andi	a3,a3,15
    605a:	06e2                	slli	a3,a3,0x18
    605c:	8ec9                	or	a3,a3,a0
    605e:	0cd7a823          	sw	a3,208(a5)
    6062:	43d8                	lw	a4,4(a5)
    6064:	6685                	lui	a3,0x1
    6066:	9b3d                	andi	a4,a4,-17
    6068:	c3d8                	sw	a4,4(a5)
    606a:	43d8                	lw	a4,4(a5)
    606c:	9b79                	andi	a4,a4,-2
    606e:	c3d8                	sw	a4,4(a5)
    6070:	5798                	lw	a4,40(a5)
    6072:	8f55                	or	a4,a4,a3
    6074:	d798                	sw	a4,40(a5)
    6076:	57d8                	lw	a4,44(a5)
    6078:	810006b7          	lui	a3,0x81000
    607c:	16fd                	addi	a3,a3,-1
    607e:	01076713          	ori	a4,a4,16
    6082:	d7d8                	sw	a4,44(a5)
    6084:	03fc7713          	andi	a4,s8,63
    6088:	0387ac03          	lw	s8,56(a5)
    608c:	fc0c7c13          	andi	s8,s8,-64
    6090:	00ec6c33          	or	s8,s8,a4
    6094:	0387ac23          	sw	s8,56(a5)
    6098:	5f98                	lw	a4,56(a5)
    609a:	8f75                	and	a4,a4,a3
    609c:	8dd9                	or	a1,a1,a4
    609e:	df8c                	sw	a1,56(a5)
    60a0:	5462                	lw	s0,56(sp)
    60a2:	50f2                	lw	ra,60(sp)
    60a4:	54d2                	lw	s1,52(sp)
    60a6:	5942                	lw	s2,48(sp)
    60a8:	59b2                	lw	s3,44(sp)
    60aa:	5a22                	lw	s4,40(sp)
    60ac:	5a92                	lw	s5,36(sp)
    60ae:	5b02                	lw	s6,32(sp)
    60b0:	4bf2                	lw	s7,28(sp)
    60b2:	4c62                	lw	s8,24(sp)
    60b4:	4cd2                	lw	s9,20(sp)
    60b6:	4d42                	lw	s10,16(sp)
    60b8:	4db2                	lw	s11,12(sp)
    60ba:	6121                	addi	sp,sp,64
    60bc:	8082                	ret

000060be <RFEND_TXFtune>:
RFEND_TXFtune():
    60be:	1fffd797          	auipc	a5,0x1fffd
    60c2:	25a78793          	addi	a5,a5,602 # 20003318 <gptrRFENDReg>
    60c6:	4398                	lw	a4,0(a5)
    60c8:	435c                	lw	a5,4(a4)
    60ca:	1007e793          	ori	a5,a5,256
    60ce:	c35c                	sw	a5,4(a4)
    60d0:	8082                	ret

000060d2 <tmos_memory_getlen>:
tmos_memory_getlen():
    60d2:	1fffd797          	auipc	a5,0x1fffd
    60d6:	25678793          	addi	a5,a5,598 # 20003328 <MemCtlStart>
    60da:	1fffd717          	auipc	a4,0x1fffd
    60de:	24670713          	addi	a4,a4,582 # 20003320 <MemCtlEnd>
    60e2:	439c                	lw	a5,0(a5)
    60e4:	4318                	lw	a4,0(a4)
    60e6:	4501                	li	a0,0
    60e8:	00f71363          	bne	a4,a5,60ee <tmos_memory_getlen+0x1c>
    60ec:	8082                	ret
    60ee:	0067d683          	lhu	a3,6(a5)
    60f2:	e681                	bnez	a3,60fa <tmos_memory_getlen+0x28>
    60f4:	0047d683          	lhu	a3,4(a5)
    60f8:	9536                	add	a0,a0,a3
    60fa:	439c                	lw	a5,0(a5)
    60fc:	b7f5                	j	60e8 <tmos_memory_getlen+0x16>

000060fe <tmos_memory_init>:
tmos_memory_init():
    60fe:	1fffd797          	auipc	a5,0x1fffd
    6102:	16678793          	addi	a5,a5,358 # 20003264 <ble>
    6106:	438c                	lw	a1,0(a5)
    6108:	1fffd717          	auipc	a4,0x1fffd
    610c:	16075703          	lhu	a4,352(a4) # 20003268 <ble+0x4>
    6110:	1141                	addi	sp,sp,-16
    6112:	22058613          	addi	a2,a1,544
    6116:	1fffd797          	auipc	a5,0x1fffd
    611a:	20c7a923          	sw	a2,530(a5) # 20003328 <MemCtlStart>
    611e:	ff858793          	addi	a5,a1,-8
    6122:	97ba                	add	a5,a5,a4
    6124:	6505                	lui	a0,0x1
    6126:	1fffd697          	auipc	a3,0x1fffd
    612a:	1ef6ad23          	sw	a5,506(a3) # 20003320 <MemCtlEnd>
    612e:	c606                	sw	ra,12(sp)
    6130:	051d                	addi	a0,a0,7
    6132:	00375693          	srli	a3,a4,0x3
    6136:	00e57463          	bgeu	a0,a4,613e <tmos_memory_init+0x40>
    613a:	20000693          	li	a3,512
    613e:	00d60733          	add	a4,a2,a3
    6142:	1fffd517          	auipc	a0,0x1fffd
    6146:	1ee52123          	sw	a4,482(a0) # 20003324 <MemCtlPartition>
    614a:	22e5a023          	sw	a4,544(a1)
    614e:	16e1                	addi	a3,a3,-8
    6150:	00d61223          	sh	a3,4(a2)
    6154:	00061323          	sh	zero,6(a2)
    6158:	c31c                	sw	a5,0(a4)
    615a:	8f99                	sub	a5,a5,a4
    615c:	17e1                	addi	a5,a5,-8
    615e:	00f71223          	sh	a5,4(a4)
    6162:	00071323          	sh	zero,6(a4)
    6166:	37b5                	jal	60d2 <tmos_memory_getlen>
    6168:	40b2                	lw	ra,12(sp)
    616a:	1fffd797          	auipc	a5,0x1fffd
    616e:	0aa79423          	sh	a0,168(a5) # 20003212 <gTmosPara+0x6>
    6172:	0141                	addi	sp,sp,16
    6174:	8082                	ret

00006176 <LL_InitiateSetRF>:
LL_InitiateSetRF():
    6176:	1141                	addi	sp,sp,-16
    6178:	1fffd797          	auipc	a5,0x1fffd
    617c:	1b878793          	addi	a5,a5,440 # 20003330 <gBleLlPara>
    6180:	c226                	sw	s1,4(sp)
    6182:	1fffd497          	auipc	s1,0x1fffd
    6186:	15248493          	addi	s1,s1,338 # 200032d4 <gptrLLEReg>
    618a:	c422                	sw	s0,8(sp)
    618c:	0847a403          	lw	s0,132(a5)
    6190:	409c                	lw	a5,0(s1)
    6192:	c606                	sw	ra,12(sp)
    6194:	c04a                	sw	s2,0(sp)
    6196:	4398                	lw	a4,0(a5)
    6198:	8b0d                	andi	a4,a4,3
    619a:	c305                	beqz	a4,61ba <LL_InitiateSetRF+0x44>
    619c:	4bb8                	lw	a4,80(a5)
    619e:	9b61                	andi	a4,a4,-8
    61a0:	cbb8                	sw	a4,80(a5)
    61a2:	4398                	lw	a4,0(a5)
    61a4:	00876713          	ori	a4,a4,8
    61a8:	c398                	sw	a4,0(a5)
    61aa:	439c                	lw	a5,0(a5)
    61ac:	838d                	srli	a5,a5,0x3
    61ae:	8b85                	andi	a5,a5,1
    61b0:	c789                	beqz	a5,61ba <LL_InitiateSetRF+0x44>
    61b2:	0001                	nop
    61b4:	0001                	nop
    61b6:	0001                	nop
    61b8:	0001                	nop
    61ba:	1fffd797          	auipc	a5,0x1fffd
    61be:	0f678793          	addi	a5,a5,246 # 200032b0 <gptrBBReg>
    61c2:	4394                	lw	a3,0(a5)
    61c4:	8e89c737          	lui	a4,0x8e89c
    61c8:	ed670713          	addi	a4,a4,-298 # 8e89bed6 <_eusrstack+0x6e893ed6>
    61cc:	c698                	sw	a4,8(a3)
    61ce:	00555737          	lui	a4,0x555
    61d2:	55570713          	addi	a4,a4,1365 # 555555 <_data_lma+0x54effd>
    61d6:	c2d8                	sw	a4,4(a3)
    61d8:	03a44703          	lbu	a4,58(s0)
    61dc:	0ff00693          	li	a3,255
    61e0:	893e                	mv	s2,a5
    61e2:	00d70763          	beq	a4,a3,61f0 <LL_InitiateSetRF+0x7a>
    61e6:	57fd                	li	a5,-1
    61e8:	02e40ca3          	sb	a4,57(s0)
    61ec:	02f40d23          	sb	a5,58(s0)
    61f0:	03944503          	lbu	a0,57(s0)
    61f4:	4789                	li	a5,2
    61f6:	00f50663          	beq	a0,a5,6202 <LL_InitiateSetRF+0x8c>
    61fa:	4785                	li	a5,1
    61fc:	02f40ca3          	sb	a5,57(s0)
    6200:	4501                	li	a0,0
    6202:	4098                	lw	a4,0(s1)
    6204:	435c                	lw	a5,4(a4)
    6206:	0017e793          	ori	a5,a5,1
    620a:	c35c                	sw	a5,4(a4)
    620c:	fb200793          	li	a5,-78
    6210:	00f40323          	sb	a5,6(s0)
    6214:	1fffd797          	auipc	a5,0x1fffd
    6218:	0ad7c783          	lbu	a5,173(a5) # 200032c1 <gBleIPPara+0x9>
    621c:	cf81                	beqz	a5,6234 <LL_InitiateSetRF+0xbe>
    621e:	1fffd717          	auipc	a4,0x1fffd
    6222:	0a274703          	lbu	a4,162(a4) # 200032c0 <gBleIPPara+0x8>
    6226:	478d                	li	a5,3
    6228:	00f71663          	bne	a4,a5,6234 <LL_InitiateSetRF+0xbe>
    622c:	1fffd797          	auipc	a5,0x1fffd
    6230:	08078aa3          	sb	zero,149(a5) # 200032c1 <gBleIPPara+0x9>
    6234:	1fffd717          	auipc	a4,0x1fffd
    6238:	08b74703          	lbu	a4,139(a4) # 200032bf <gBleIPPara+0x7>
    623c:	479d                	li	a5,7
    623e:	00f71863          	bne	a4,a5,624e <LL_InitiateSetRF+0xd8>
    6242:	10700793          	li	a5,263
    6246:	1fffd717          	auipc	a4,0x1fffd
    624a:	06f71d23          	sh	a5,122(a4) # 200032c0 <gBleIPPara+0x8>
    624e:	4799                	li	a5,6
    6250:	1fffd717          	auipc	a4,0x1fffd
    6254:	06f707a3          	sb	a5,111(a4) # 200032bf <gBleIPPara+0x7>
    6258:	4601                	li	a2,0
    625a:	1fffd797          	auipc	a5,0x1fffd
    625e:	04078f23          	sb	zero,94(a5) # 200032b8 <gBleIPPara>
    6262:	02500593          	li	a1,37
    6266:	1fffd797          	auipc	a5,0x1fffd
    626a:	04078b23          	sb	zero,86(a5) # 200032bc <gBleIPPara+0x4>
    626e:	8ebfd0ef          	jal	ra,3b58 <BLE_SetPHYRxMode>
    6272:	4090                	lw	a2,0(s1)
    6274:	1fffd797          	auipc	a5,0x1fffd
    6278:	040784a3          	sb	zero,73(a5) # 200032bd <gBleIPPara+0x5>
    627c:	1fffd797          	auipc	a5,0x1fffd
    6280:	02078ea3          	sb	zero,61(a5) # 200032b9 <gBleIPPara+0x1>
    6284:	4785                	li	a5,1
    6286:	c21c                	sw	a5,0(a2)
    6288:	00092783          	lw	a5,0(s2) # d000 <_data_lma+0x6aa8>
    628c:	003305b7          	lui	a1,0x330
    6290:	4398                	lw	a4,0(a5)
    6292:	e7f77713          	andi	a4,a4,-385
    6296:	c398                	sw	a4,0(a5)
    6298:	4398                	lw	a4,0(a5)
    629a:	e7f77713          	andi	a4,a4,-385
    629e:	10076713          	ori	a4,a4,256
    62a2:	c398                	sw	a4,0(a5)
    62a4:	1fffd717          	auipc	a4,0x1fffd
    62a8:	07470713          	addi	a4,a4,116 # 20003318 <gptrRFENDReg>
    62ac:	4318                	lw	a4,0(a4)
    62ae:	4714                	lw	a3,8(a4)
    62b0:	8ecd                	or	a3,a3,a1
    62b2:	c714                	sw	a3,8(a4)
    62b4:	0d900693          	li	a3,217
    62b8:	ca34                	sw	a3,80(a2)
    62ba:	5754                	lw	a3,44(a4)
    62bc:	9af5                	andi	a3,a3,-3
    62be:	d754                	sw	a3,44(a4)
    62c0:	00544703          	lbu	a4,5(s0)
    62c4:	07f77693          	andi	a3,a4,127
    62c8:	4398                	lw	a4,0(a5)
    62ca:	f8077713          	andi	a4,a4,-128
    62ce:	8f55                	or	a4,a4,a3
    62d0:	c398                	sw	a4,0(a5)
    62d2:	40b2                	lw	ra,12(sp)
    62d4:	4422                	lw	s0,8(sp)
    62d6:	4492                	lw	s1,4(sp)
    62d8:	4902                	lw	s2,0(sp)
    62da:	0141                	addi	sp,sp,16
    62dc:	8082                	ret

000062de <memcpy>:
memcpy():
    62de:	00a5c7b3          	xor	a5,a1,a0
    62e2:	8b8d                	andi	a5,a5,3
    62e4:	00c50733          	add	a4,a0,a2
    62e8:	e781                	bnez	a5,62f0 <memcpy+0x12>
    62ea:	478d                	li	a5,3
    62ec:	00c7ee63          	bltu	a5,a2,6308 <memcpy+0x2a>
    62f0:	87aa                	mv	a5,a0
    62f2:	0ae57063          	bgeu	a0,a4,6392 <memcpy+0xb4>
    62f6:	0005c683          	lbu	a3,0(a1) # 330000 <_data_lma+0x329aa8>
    62fa:	0785                	addi	a5,a5,1
    62fc:	0585                	addi	a1,a1,1
    62fe:	fed78fa3          	sb	a3,-1(a5)
    6302:	fee7eae3          	bltu	a5,a4,62f6 <memcpy+0x18>
    6306:	8082                	ret
    6308:	00357693          	andi	a3,a0,3
    630c:	87aa                	mv	a5,a0
    630e:	ca91                	beqz	a3,6322 <memcpy+0x44>
    6310:	0005c683          	lbu	a3,0(a1)
    6314:	0785                	addi	a5,a5,1
    6316:	0585                	addi	a1,a1,1
    6318:	fed78fa3          	sb	a3,-1(a5)
    631c:	0037f693          	andi	a3,a5,3
    6320:	b7fd                	j	630e <memcpy+0x30>
    6322:	ffc77693          	andi	a3,a4,-4
    6326:	fe068613          	addi	a2,a3,-32
    632a:	06c7f063          	bgeu	a5,a2,638a <memcpy+0xac>
    632e:	0005a383          	lw	t2,0(a1)
    6332:	0045a283          	lw	t0,4(a1)
    6336:	0085af83          	lw	t6,8(a1)
    633a:	00c5af03          	lw	t5,12(a1)
    633e:	0105ae83          	lw	t4,16(a1)
    6342:	0145ae03          	lw	t3,20(a1)
    6346:	0185a303          	lw	t1,24(a1)
    634a:	01c5a883          	lw	a7,28(a1)
    634e:	02458593          	addi	a1,a1,36
    6352:	0077a023          	sw	t2,0(a5)
    6356:	ffc5a803          	lw	a6,-4(a1)
    635a:	0057a223          	sw	t0,4(a5)
    635e:	01f7a423          	sw	t6,8(a5)
    6362:	01e7a623          	sw	t5,12(a5)
    6366:	01d7a823          	sw	t4,16(a5)
    636a:	01c7aa23          	sw	t3,20(a5)
    636e:	0067ac23          	sw	t1,24(a5)
    6372:	0117ae23          	sw	a7,28(a5)
    6376:	02478793          	addi	a5,a5,36
    637a:	ff07ae23          	sw	a6,-4(a5)
    637e:	b775                	j	632a <memcpy+0x4c>
    6380:	4190                	lw	a2,0(a1)
    6382:	0791                	addi	a5,a5,4
    6384:	0591                	addi	a1,a1,4
    6386:	fec7ae23          	sw	a2,-4(a5)
    638a:	fed7ebe3          	bltu	a5,a3,6380 <memcpy+0xa2>
    638e:	f6e7e4e3          	bltu	a5,a4,62f6 <memcpy+0x18>
    6392:	8082                	ret
    6394:	b8de                	fsd	fs7,112(sp)
    6396:	ffff                	0xffff
    6398:	b906                	fsd	ft1,176(sp)
    639a:	ffff                	0xffff
    639c:	b92e                	fsd	fa1,176(sp)
    639e:	ffff                	0xffff
    63a0:	b946                	fsd	fa7,176(sp)
    63a2:	ffff                	0xffff
    63a4:	b960                	fsd	fs0,240(a0)
    63a6:	ffff                	0xffff
    63a8:	bc10                	fsd	fa2,56(s0)
    63aa:	ffff                	0xffff
    63ac:	bc10                	fsd	fa2,56(s0)
    63ae:	ffff                	0xffff
    63b0:	bbf2                	fsd	ft8,496(sp)
    63b2:	ffff                	0xffff
    63b4:	bbfc                	fsd	fa5,240(a5)
    63b6:	ffff                	0xffff
    63b8:	bc04                	fsd	fs1,56(s0)
    63ba:	ffff                	0xffff
    63bc:	bbfc                	fsd	fa5,240(a5)
    63be:	ffff                	0xffff
    63c0:	bbfc                	fsd	fa5,240(a5)
    63c2:	ffff                	0xffff
    63c4:	bbfc                	fsd	fa5,240(a5)
    63c6:	ffff                	0xffff
    63c8:	bc10                	fsd	fa2,56(s0)
    63ca:	ffff                	0xffff
    63cc:	38354843          	fmadd.s	fa6,fa0,ft3,ft7,rmm
    63d0:	5f78                	lw	a4,124(a4)
    63d2:	4c42                	lw	s8,16(sp)
    63d4:	5f45                	li	t5,-15
    63d6:	494c                	lw	a1,20(a0)
    63d8:	5f42                	lw	t5,48(sp)
    63da:	3156                	fld	ft2,368(sp)
    63dc:	342e                	fld	fs0,232(sp)
    63de:	0000                	unimp
    63e0:	c6ca                	sw	s2,76(sp)
    63e2:	ffff                	0xffff
    63e4:	c650                	sw	a2,12(a2)
    63e6:	ffff                	0xffff
    63e8:	c56e                	sw	s11,136(sp)
    63ea:	ffff                	0xffff
    63ec:	c56e                	sw	s11,136(sp)
    63ee:	ffff                	0xffff
    63f0:	c56e                	sw	s11,136(sp)
    63f2:	ffff                	0xffff
    63f4:	c626                	sw	s1,12(sp)
    63f6:	ffff                	0xffff
    63f8:	c4c8                	sw	a0,12(s1)
    63fa:	ffff                	0xffff
    63fc:	c56e                	sw	s11,136(sp)
    63fe:	ffff                	0xffff
    6400:	c630                	sw	a2,72(a2)
    6402:	ffff                	0xffff
    6404:	c646                	sw	a7,12(sp)
    6406:	ffff                	0xffff
    6408:	c6c4                	sw	s1,12(a3)
    640a:	ffff                	0xffff

0000640c <KeyRepDesc>:
    640c:	0105 0609 01a1 0705 e019 e729 0015 0125     ..........)...%.
    641c:	0175 0895 0281 0195 0875 0181 0395 0175     u.......u.....u.
    642c:	0805 0119 0329 0291 0595 0175 0191 0695     ....).....u.....
    643c:	0875 ff26 0500 1907 2900 8191 c000 0000     u.&......)......

0000644c <MouseRepDesc>:
    644c:	0105 0209 01a1 0109 00a1 0905 0119 0329     ..............).
    645c:	0015 0125 0175 0395 0281 0575 0195 0181     ..%.u.....u.....
    646c:	0105 3009 3109 3809 8115 7f25 0875 0395     ...0.1.8..%.u...
    647c:	0681 c0c0                                   ....

00006480 <MyCfgDescr>:
    6480:	0209 006b 0104 a000 0932 0004 0100 0103     ..k.....2.......
    6490:	0001 2109 0111 0100 3e22 0700 8105 0803     ...!....">......
    64a0:	0a00 0409 0001 0301 0201 0900 1021 0001     ............!...
    64b0:	2201 0034 0507 0382 0004 090a 0204 0100     ."4.............
    64c0:	0103 0000 2109 0110 0100 2122 0700 8305     .....!...."!....
    64d0:	0103 0a00 0409 0003 0002 0000 0700 8405     ................
    64e0:	4002 0000 0507 0204 0040 0000               .@......@...

000064ec <MyDevDescr>:
    64ec:	0112 0110 0000 4000 434a 5540 0101 0201     .......@JC@U....
    64fc:	0100 0000                                   ....

00006500 <MyManuInfo>:
    6500:	030e 006c 0061 0062 0034 0031 0038 0000     ..l.a.b.4.1.8...

00006510 <MyProdInfo>:
    6510:	030a 0054 0050 0037 0038 0000               ..T.P.7.8...

0000651c <VolumeRepDesc>:
    651c:	0c05 0109 01a1 b009 b509 b609 e909 ea09     ................
    652c:	e209 b109 b709 0015 0125 0895 0175 0281     ........%...u...
    653c:	00c0 0000                                   ....

00006540 <VER_LIB>:
    6540:	4843 3835 5f78 4c42 5f45 494c 5f42 3156     CH58x_BLE_LIB_V1
    6550:	342e 0031                                   .41.

00006554 <MyLangDescr>:
    6554:	0304 0409                                   ....
