
RF_CH582M.elf:     file format elf32-littleriscv
RF_CH582M.elf
architecture: riscv:rv32, flags 0x00000112:
EXEC_P, HAS_SYMS, D_PAGED
start address 0x00000000

Program Header:
    LOAD off    0x00001000 vaddr 0x00000000 paddr 0x00000000 align 2**12
         filesz 0x00000004 memsz 0x00000004 flags r-x
    LOAD off    0x00002000 vaddr 0x20000000 paddr 0x00000004 align 2**12
         filesz 0x000016d4 memsz 0x000016d4 flags r-x
    LOAD off    0x000036d8 vaddr 0x000016d8 paddr 0x000016d8 align 2**12
         filesz 0x00006214 memsz 0x00006214 flags r-x
    LOAD off    0x0000a6d4 vaddr 0x200016d4 paddr 0x000078ec align 2**12
         filesz 0x00000074 memsz 0x00001d40 flags rw-

Sections:
Idx Name            Size      VMA       LMA       File off  Algn  Flags
  0 .init           00000004  00000000  00000000  00001000  2**1  CONTENTS, ALLOC, LOAD, READONLY, CODE
  1 .highcodelalign 00000000  00000004  00000004  0000a748  2**0  CONTENTS
  2 .highcode       000016d4  20000000  00000004  00002000  2**1  CONTENTS, ALLOC, LOAD, READONLY, CODE
  3 .text           00006214  000016d8  000016d8  000036d8  2**2  CONTENTS, ALLOC, LOAD, READONLY, CODE
  4 .fini           00000000  000078ec  000078ec  0000a748  2**0  CONTENTS, ALLOC, LOAD, CODE
  5 .dalign         00000000  200016d4  200016d4  0000a748  2**0  CONTENTS
  6 .dlalign        00000000  000078ec  000078ec  0000a748  2**0  CONTENTS
  7 .data           00000074  200016d4  000078ec  0000a6d4  2**2  CONTENTS, ALLOC, LOAD, DATA
  8 .bss            00001ccc  20001748  00007960  0000a748  2**3  ALLOC
  9 .stack          00000000  20008000  20008000  0000a748  2**0  CONTENTS
 10 .debug_info     0000c85b  00000000  00000000  0000a748  2**0  CONTENTS, READONLY, DEBUGGING
 11 .debug_abbrev   00002120  00000000  00000000  00016fa3  2**0  CONTENTS, READONLY, DEBUGGING
 12 .debug_loc      000019cb  00000000  00000000  000190c3  2**0  CONTENTS, READONLY, DEBUGGING
 13 .debug_aranges  000003c0  00000000  00000000  0001aa90  2**3  CONTENTS, READONLY, DEBUGGING
 14 .debug_ranges   00000380  00000000  00000000  0001ae50  2**3  CONTENTS, READONLY, DEBUGGING
 15 .debug_line     00006e2e  00000000  00000000  0001b1d0  2**0  CONTENTS, READONLY, DEBUGGING
 16 .debug_str      00001eb0  00000000  00000000  00021ffe  2**0  CONTENTS, READONLY, DEBUGGING
 17 .comment        00000033  00000000  00000000  00023eae  2**0  CONTENTS, READONLY
 18 .debug_frame    0000117c  00000000  00000000  00023ee4  2**2  CONTENTS, READONLY, DEBUGGING
 19 .stab           00000084  00000000  00000000  00025060  2**2  CONTENTS, READONLY, DEBUGGING
 20 .stabstr        00000117  00000000  00000000  000250e4  2**0  CONTENTS, READONLY, DEBUGGING
SYMBOL TABLE:
00000000 l    d  .init	00000000 .init
00000004 l    d  .highcodelalign	00000000 .highcodelalign
20000000 l    d  .highcode	00000000 .highcode
000016d8 l    d  .text	00000000 .text
000078ec l    d  .fini	00000000 .fini
200016d4 l    d  .dalign	00000000 .dalign
000078ec l    d  .dlalign	00000000 .dlalign
200016d4 l    d  .data	00000000 .data
20001748 l    d  .bss	00000000 .bss
20008000 l    d  .stack	00000000 .stack
00000000 l    d  .debug_info	00000000 .debug_info
00000000 l    d  .debug_abbrev	00000000 .debug_abbrev
00000000 l    d  .debug_loc	00000000 .debug_loc
00000000 l    d  .debug_aranges	00000000 .debug_aranges
00000000 l    d  .debug_ranges	00000000 .debug_ranges
00000000 l    d  .debug_line	00000000 .debug_line
00000000 l    d  .debug_str	00000000 .debug_str
00000000 l    d  .comment	00000000 .comment
00000000 l    d  .debug_frame	00000000 .debug_frame
00000000 l    d  .stab	00000000 .stab
00000000 l    d  .stabstr	00000000 .stabstr
00000000 l    df *ABS*	00000000 ./Startup/startup_CH583.o
20000000 l       .highcode	00000000 _vector_base
00000000 l    df *ABS*	00000000 CH58x_sys.c
00000000 l    df *ABS*	00000000 RTC.c
00000000 l    df *ABS*	00000000 USB.c
00000000 l    df *ABS*	00000000 RF_main.c
00000000 l    df *ABS*	00000000 ISP583.c
2000031e l       .highcode	00000000 .loop18
2000032c l       .highcode	00000000 .loop29
2000033a l       .highcode	00000000 .loop40
200005c6 l       .highcode	00000000 .loop402
00000000 l    df *ABS*	00000000 tmos.c
00002c72 l     F .text	00000024 tmosFindTask
00000000 l    df *ABS*	00000000 tmos_hw.c
20000b7c l     F .highcode	00000032 clockGetHSEValue
20000bae l     F .highcode	00000018 clockGetLSEValue
00003338 l     F .text	00000056 clockGetTickValve
00000000 l    df *ABS*	00000000 bb.c
00000000 l    df *ABS*	00000000 ip.c
00000000 l    df *ABS*	00000000 lle.c
00000000 l    df *ABS*	00000000 rf_fh.c
0000470e l     F .text	00000582 rfRxProcess
00000000 l    df *ABS*	00000000 rfend.c
00000000 l    df *ABS*	00000000 memory.c
00000000 l    df *ABS*	00000000 CH58x_adc.c
00000000 l    df *ABS*	00000000 CH58x_clk.c
00000000 l    df *ABS*	00000000 CH58x_gpio.c
00000000 l    df *ABS*	00000000 CH58x_uart1.c
00000000 l    df *ABS*	00000000 CH58x_usbdev.c
00000000 l    df *ABS*	00000000 MCU.c
00000000 l    df *ABS*	00000000 RF_PHY.c
00000000 l    df *ABS*	00000000 message.c
00000000 l    df *ABS*	00000000 tmos_snv.c
00000000 l    df *ABS*	00000000 ll_connect.c
00000000 l    df *ABS*	00000000 ll_scan.c
00000000 l    df *ABS*	00000000 ll_initiate.c
00000000 l    df *ABS*	00000000 memcpy.c
00000000 l    df *ABS*	00000000 printf.c
00000000 l    df *ABS*	00000000 putchar.c
00000000 l    df *ABS*	00000000 puts.c
00000000 l    df *ABS*	00000000 wbuf.c
00000000 l    df *ABS*	00000000 wsetup.c
00000000 l    df *ABS*	00000000 fflush.c
00000000 l    df *ABS*	00000000 findfp.c
0000673c l     F .text	0000006a std
00000000 l    df *ABS*	00000000 fwalk.c
00000000 l    df *ABS*	00000000 makebuf.c
00000000 l    df *ABS*	00000000 nano-mallocr.c
00000000 l    df *ABS*	00000000 nano-mallocr.c
00000000 l    df *ABS*	00000000 nano-vfprintf.c
00006be4 l     F .text	0000002a __sfputc_r
00000000 l    df *ABS*	00000000 nano-vfprintf_i.c
00000000 l    df *ABS*	00000000 putc.c
00000000 l    df *ABS*	00000000 sbrkr.c
00000000 l    df *ABS*	00000000 stdio.c
00000000 l    df *ABS*	00000000 writer.c
00000000 l    df *ABS*	00000000 closer.c
00000000 l    df *ABS*	00000000 fstatr.c
00000000 l    df *ABS*	00000000 isattyr.c
00000000 l    df *ABS*	00000000 lseekr.c
00000000 l    df *ABS*	00000000 memchr.c
00000000 l    df *ABS*	00000000 mlock.c
00000000 l    df *ABS*	00000000 readr.c
00000000 l    df *ABS*	00000000 close.c
00000000 l    df *ABS*	00000000 fstat.c
00000000 l    df *ABS*	00000000 isatty.c
00000000 l    df *ABS*	00000000 lseek.c
00000000 l    df *ABS*	00000000 read.c
00000000 l    df *ABS*	00000000 sbrk.c
20001758 l     O .bss	00000004 heap_end.1518
00000000 l    df *ABS*	00000000 impure.c
200016d4 l     O .data	00000060 impure_data
00000000 l    df *ABS*	00000000 reent.c
200032dc g     O .bss	00000001 nGA2440
00001eb0 g     F .text	00000016 DevEP3_IN_Deal
000062c2 g     F .text	0000002a putchar
00002888 g     F .text	000001be RF_2G4StatusCallBack
20000d16 g     F .highcode	0000003e ll_rx_wait_finish
000074a8 g     F .text	00000030 _isatty_r
000062ec g     F .text	000000da _puts_r
00001e84 g     F .text	00000016 DevEP1_IN_Deal
000074d8 g     F .text	00000034 _lseek_r
2000033a g     F .highcode	0000000e FLASH_ROM_OUT
20001738 g     O .data	00000001 usbTaskID
20000978 g     F .highcode	00000204 TMOS_SystemProcess
00005034 g     F .text	00000034 RFEND_Reset
0000239c g     F .text	000004ec USB_DevTransProcess
00006282 g     F .text	00000040 printf
20001f38 g       .data	00000000 __global_pointer$
0000182e g     F .text	00000028 ADC_InterTSSampInit
000073d4 g     F .text	00000036 __sseek
000067f6 g     F .text	0000006a __sinit
000063d0 g     F .text	000000c0 __swbuf_r
200002ac g     F .highcode	0000000e mDelayuS
20000272  w    F .highcode	0000003a HardFault_Handler
000067b0 g     F .text	00000046 __sfmoreglue
200000a2  w      .highcode	00000000 GPIOB_IRQHandler
00007528 g     F .text	00000002 __malloc_unlock
00001fac g     F .text	0000007e HAL_ProcessEvent
200000a0  w      .highcode	00000000 GPIOA_IRQHandler
20003278 g     O .bss	00000004 gptrBBReg
00003186 g     F .text	0000003c TMOS_ProcessEventRegister
2000009a  w      .highcode	00000000 SysTick_Handler
00002354 g     F .text	00000024 DevEP3_OUT_Deal
200019cc g     O .bss	00000001 RFtaskID
20000090  w      .highcode	00000000 NMI_Handler
2000076a g     F .highcode	00000012 tmos_memset
2000082e g     F .highcode	0000014a tmos_proces_system_time
200000b4  w      .highcode	00000000 UART1_IRQHandler
20000e1e g     F .highcode	00000124 ll_tx_wait_finish
00003866 g     F .text	000000b4 BB_DevInit
00007476 g     F .text	00000032 _fstat_r
2000077c g     F .highcode	00000014 tmos_strlen
20000d54 g     F .highcode	000000ca ble_ll_chkcrc
2000080c g     F .highcode	00000022 tmos_isbufset
20003410 g     O .bss	00000004 errno
20001748 g     O .bss	00000001 USB_CapsLock_LEDOn
20001748 g       .bss	00000000 _sbss
00004da4 g     F .text	0000014a rf_hop_heart_beat
00004c90 g     F .text	00000090 RF_Shut
20001770 g     O .bss	00000004 RTCTigFlag
2000032c g     F .highcode	0000000e FLASH_ROM_IN
00003f8e g     F .text	00000198 RF_TxProcess
20001774 g     O .bss	00000001 DevConfig
00007834 g     O .text	00000014 VER_LIB
000034b8 g     F .text	000000c0 tmos_snv_init
00004eee g     F .text	000000f4 RFFH_ProcessEvent
000021e0 g     F .text	000000d6 USB_ProcessEvent
200000b2  w      .highcode	00000000 UART0_IRQHandler
200031d4 g     O .bss	0000002c gTmosPara
00007740 g     O .text	00000012 MyDevDescr
000061cc g     F .text	000000b6 memcpy
000067a6 g     F .text	0000000a _cleanup_r
20001776 g     O .bss	00000002 SetupReqLen
000063c6 g     F .text	0000000a puts
200032e8 g     O .bss	00000004 MemCtlEnd
0000756e g     F .text	00000010 _fstat
00000004 g       .init	00000000 _einit
20003200 g     O .bss	00000004 tasksArr
200032ec g     O .bss	00000004 MemCtlPartition
20000bc8 g     F .highcode	0000014e BB_IRQLibHandler
20001104 g     F .highcode	00000212 LLE_IRQLibHandler
20003204 g     O .bss	0000001c pfnProcessCBs
200000a6  w      .highcode	00000000 BB_IRQHandler
200003c8 g     F .highcode	0000036a FLASH_EEPROM_CMD
00005fac g     F .text	00000014 RFEND_TXFtune
20000098  w      .highcode	00000000 Break_Point_Handler
20001778 g     O .bss	00000001 SetupReqCode
000051dc g     F .text	00000080 RFEND_RXFilter
00001efc g     F .text	00000040 Lib_Write_Flash
00007326 g     F .text	00000030 _sbrk_r
000078e4 g     O .text	00000004 MyLangDescr
2000009e  w      .highcode	00000000 TMR0_IRQHandler
20001518 g     F .highcode	000000d2 tmos_memory_allocate
20003220 g     O .bss	00000002 eventsClear
0000752a g     F .text	00000034 _read_r
2000030c g     F .highcode	00000012 FLASH_ROM_BEG
00007660 g     O .text	0000003e KeyRepDesc
2000173c g     O .data	00000002 CAPSLOCK_DATA
200007f0 g     F .highcode	0000001c tmos_revmemcpy
00002c96 g     F .text	00000086 TMOS_CB_PeriodicProcessEvent
200002ba g     F .highcode	00000028 mDelaymS
20000094  w      .highcode	00000000 Ecall_M_Mode_Handler
00003b7a g     F .text	000000a4 ll_multi_states_process
000076d4 g     O .text	0000006b MyCfgDescr
0000757e g     F .text	00000010 _isatty
000078e8 g     O .text	00000004 _global_impure_ptr
00003708 g     F .text	0000015e LL_ScanSetRF
20000348 g     F .highcode	00000048 FLASH_ROM_ADDR
00003578 g     F .text	00000190 LL_GetNextConnectEventTime
20001316 g     F .highcode	00000082 RF_HopGetChannel
000075ae g     F .text	00000024 _sbrk
2000176c g     O .bss	00000001 halTaskID
20000304 g     F .highcode	00000008 Main_Circulation
20003270 g     O .bss	00000004 fnGetClockCBs
000031c2 g     F .text	00000176 BLE_LibInit
00007754 g     O .text	0000000e MyManuInfo
00003de0 g     F .text	00000058 LLE_DevInit
0000391a g     F .text	0000012c BLE_SetPHYTxMode
200032f0 g     O .bss	00000004 MemCtlStart
200014e8 g     F .highcode	00000030 RFEND_WaitTune
00004126 g     F .text	0000011e RF_Config
00004244 g     F .text	000002c6 RF_Tx
00002ece g     F .text	0000002e tmos_set_event
200002e2 g     F .highcode	00000016 RTC_IRQHandler
20003414 g       .bss	00000000 _ebss
00006064 g     F .text	00000168 LL_InitiateSetRF
00001dd4 g     F .text	00000032 UART1_DefInit
0000338e g     F .text	00000062 TMOS_TempSample
2000177c g     O .bss	00000004 pDescr
20001780 g     O .bss	000000c0 EP0_Databuf
00003b46 g     F .text	00000034 ll_multi_states_check
00002158 g     F .text	00000034 HAL_Init
20000390 g     F .highcode	00000038 FLASH_ROM_WAIT
00003c1e g     F .text	0000008c ble_ll_hw_api_shut
000072a0 g     F .text	00000086 _putc_r
20000f42 g     F .highcode	000001c2 BLE_CheckHoppingMap
200032dd g     O .bss	00000001 nGA2480
20003274 g     O .bss	00000004 gptrAESReg
00004d20 g     F .text	00000084 RF_FrequencyHoppingShut
00005068 g     F .text	00000174 RFEND_DevInit
0000202a g     F .text	0000012e CH58X_BLEInit
00007848 g     O .text	00000020 __sf_fake_stderr
20003414 g       .bss	00000000 end
200000c0  w      .highcode	00000000 UART2_IRQHandler
200000bc  w      .highcode	00000000 PWMX_IRQHandler
200031d0 g     O .bss	00000004 msg_qHead
00003a46 g     F .text	00000100 BLE_SetPHYRxMode
00006c0e g     F .text	00000042 __sfputs_r
2000174a g     O .bss	00000001 nCO2401
2000327c g     O .bss	00000004 gPaControl
20001840 g     O .bss	00000080 EP1_Databuf
0000750c g     F .text	0000001a memchr
00006a64 g     F .text	000000a8 _free_r
00000000 g       .init	00000000 _start
20001740 g     O .data	00000002 TX_DATA
0000450a g     F .text	00000204 RF_Rx
00001ec6 g     F .text	00000016 DevEP4_IN_Deal
0000758e g     F .text	00000010 _lseek
00003d64 g     F .text	0000007c BLE_IPCoreInit
200000b8  w      .highcode	00000000 ADC_IRQHandler
2000175c g     O .bss	00000004 pEP2_RAM_Addr
20000000 g       .highcode	00000000 _highcode_vma_start
20000790 g     F .highcode	00000032 tmos_memdup
20003224 g     O .bss	00000004 EventsArr
200000b0  w      .highcode	00000000 TMR2_IRQHandler
00007770 g     O .text	00000021 VolumeRepDesc
00007446 g     F .text	00000030 _close_r
200016d4 g       .data	00000000 _data_vma
20001760 g     O .bss	00000004 pEP3_RAM_Addr
200032e0 g     O .bss	00000004 gptrRFENDReg
000076a0 g     O .text	00000034 MouseRepDesc
200018c0 g     O .bss	00000009 HID_dat
200018cc g     O .bss	00000080 EP2_Databuf
200000c6 g     F .highcode	00000170 SetSysClock
2000174c g     O .bss	00000001 l2capNumRecvDataPkts
200002f8 g     F .highcode	0000000c USB_IRQHandler
00002330 g     F .text	00000024 DevEP2_OUT_Deal
200032f8 g     O .bss	00000118 gBleLlPara
00006490 g     F .text	0000010c __swsetup_r
00006860 g     F .text	000000a0 __sfp
20000bc6 g     F .highcode	00000002 TMOS_TimerIRQHandler
00007356 g     F .text	00000030 __sread
0000230c g     F .text	00000024 DevEP1_OUT_Deal
00007526 g     F .text	00000002 __malloc_lock
20001398 g     F .highcode	000000b6 RF_FrequencyHoppingGet
200019d0 g     O .bss	00001800 MEM_BUF
200032a0 g     O .bss	00000020 rfConfig
000066d8 g     F .text	00000064 _fflush_r
00005fc0 g     F .text	0000002c tmos_memory_getlen
20001764 g     O .bss	00000004 pEP0_RAM_Addr
00007868 g     O .text	00000020 __sf_fake_stdin
200007c2 g     F .highcode	0000002e tmos_memcmp
00001e06 g     F .text	0000007e USB_DeviceInit
200000ba  w      .highcode	00000000 I2C_IRQHandler
00001786 g     F .text	000000a8 memset
2000329c g     O .bss	00000004 gptrLLEReg
00002b6c g     F .text	00000060 main
00002d1c g     F .text	00000080 TMOS_CB_ProcessEvent
2000144e g     F .highcode	0000009a RF_FrequencyHoppingChange
0000740a g     F .text	00000006 __sclose
00004fe2 g     F .text	00000052 RF_RoleInit
00006b0c g     F .text	000000d8 _malloc_r
200015ea g     F .highcode	000000e8 tmos_memory_free
000022b6 g     F .text	00000056 HAL_USBInit
200000ac  w      .highcode	00000000 USB2_IRQHandler
00003caa g     F .text	000000ba BLE_RegInit
00003090 g     F .text	000000f6 TMOS_Init
00002f2e g     F .text	000000e0 tmos_start_task
00007764 g     O .text	0000000a MyProdInfo
0000218c g     F .text	00000054 HAL_TimeInit
20001749 g     O .bss	00000001 USB_Ready
00002a46 g     F .text	00000092 RF_ProcessEvent
00000004 g       .highcodelalign	00000000 _highcode_lma
00002ad8 g     F .text	00000094 RF_Init
00006282 g     F .text	00000040 iprintf
0000300e g     F .text	0000004e tmos_stop_task
200000a8  w      .highcode	00000000 LLE_IRQHandler
00000000 g       .init	00000000 _sinit
00001e9a g     F .text	00000016 DevEP2_IN_Deal
00007410 g     F .text	00000036 _write_r
20003228 g     O .bss	00000004 taskHead
00006eec g     F .text	0000010c _printf_common
20001744 g     O .data	00000004 _impure_ptr
0000659c g     F .text	0000013c __sflush_r
00005fec g     F .text	00000078 tmos_memory_init
0000525c g     F .text	0000003a RFEND_RXAdc
00003f70 g     F .text	0000001e rf_stop
200000c4  w      .highcode	00000000 WDOG_BAT_IRQHandler
20000096  w      .highcode	00000000 Ecall_U_Mode_Handler
200000be  w      .highcode	00000000 TMR3_IRQHandler
00001edc g     F .text	00000004 Lib_Calibration_LSI
20008000 g       .stack	00000000 _eusrstack
2000009c  w      .highcode	00000000 SW_Handler
00001c8a g     F .text	000000a6 GPIOA_ModeCfg
20000752 g     F .highcode	00000018 tmos_memcpy_word
2000322c g     O .bss	0000003c ble
0000696c g     F .text	0000005a __swhatbuf_r
200032e4 g     O .bss	00000001 nCO2440
00001d30 g     F .text	00000042 GetSysClock
2000174b g     O .bss	00000001 nGA2401
00001d7c g     F .text	00000028 _write
20001748 g       .data	00000000 _edata
200000a4  w      .highcode	00000000 SPI0_IRQHandler
00002bcc g     F .text	0000002c tmos_msg_deallocate
200016d4 g       .highcode	00000000 _highcode_vma_end
20003268 g     O .bss	00000004 cbTimersHead
000078ec g       .dlalign	00000000 _data_lma
00002efc g     F .text	00000032 tmos_clear_event
00001f3c g     F .text	00000070 HAL_GetInterTempValue
00007386 g     F .text	0000004e __swrite
00006c50 g     F .text	0000029c _vfiprintf_r
00006900 g     F .text	0000006c _fwalk_reent
00001ee0 g     F .text	0000001c Lib_Read_Flash
20000732 g     F .highcode	00000020 tmos_memcpy
20003280 g     O .bss	0000001c gBleIPPara
00007888 g     O .text	00000020 __sf_fake_stdout
00001d72 g     F .text	0000000a SYS_GetSysTickCnt
0000759e g     F .text	00000010 _read
000016d8  w      .text	00000000 handle_reset
00002d9c g     F .text	00000132 tmos_proces_sleep
00005296 g     F .text	00000d16 RFEND_TXCtune
000069c6 g     F .text	0000009e __smakebuf_r
00006ff8 g     F .text	000002a8 _printf_i
2000194c g     O .bss	00000080 EP3_Databuf
200000c2  w      .highcode	00000000 UART3_IRQHandler
00001afc g     F .text	0000018e RTC_InitTime
20001754 g     O .bss	00000004 __malloc_sbrk_start
0000307a g     F .text	00000016 TMOS_ProcessRegister
2000031e g     F .highcode	0000000e FLASH_ROM_END
00002bf8 g     F .text	00000070 tmos_msg_receive
200032c0 g     O .bss	0000001c rfInfo
0000305c g     F .text	0000001e TMOS_TimerRegister
20001750 g     O .bss	00000004 __malloc_free_list
00002378 g     F .text	00000024 DevEP4_OUT_Deal
00006c50 g     F .text	0000029c _vfprintf_r
200032e5 g     O .bss	00000001 nCO2480
200000ae  w      .highcode	00000000 TMR1_IRQHandler
000033f0 g     F .text	000000c8 TMOS_TimerInit
00001856 g     F .text	000002a6 Calibration_LSI
20001768 g     O .bss	00000004 pEP1_RAM_Addr
2000326c g     O .bss	00000004 pfnTimerCBs
00002c68 g     F .text	0000000a tmos_msg_init
00003e38 g     F .text	00000138 RF_DevSetChannel
20000236 g     F .highcode	0000003c SYS_ResetExecute
0000755e g     F .text	00000010 _close
00001da4 g     F .text	00000030 UART1_BaudRateCfg



Disassembly of section .init:

00000000 <_sinit>:
_start():
E:\Project\tp78\mounriver_project\RF_CH582M\obj/../Startup/startup_CH583.S:15

	.section	.init,"ax",@progbits
	.global	_start
	.align	1
_start:
	j	handle_reset
   0:	6d80106f          	j	16d8 <handle_reset>

Disassembly of section .highcode:

20000000 <_highcode_vma_start>:
	...
_vector_base():
20000008:	0090                	addi	a2,sp,64
2000000a:	2000                	fld	fs0,0(s0)
2000000c:	0272                	slli	tp,tp,0x1c
2000000e:	2000                	fld	fs0,0(s0)
20000010:	bda9                	j	1ffffe6a <_data_lma+0x1fff857e>
20000012:	f5f9                	bnez	a1,1fffffe0 <_data_lma+0x1fff86f4>
20000014:	0094                	addi	a3,sp,64
20000016:	2000                	fld	fs0,0(s0)
	...
20000020:	0096                	slli	ra,ra,0x5
20000022:	2000                	fld	fs0,0(s0)
20000024:	0098                	addi	a4,sp,64
20000026:	2000                	fld	fs0,0(s0)
	...
20000030:	009a                	slli	ra,ra,0x6
20000032:	2000                	fld	fs0,0(s0)
20000034:	0000                	unimp
20000036:	0000                	unimp
20000038:	009c                	addi	a5,sp,64
2000003a:	2000                	fld	fs0,0(s0)
2000003c:	0000                	unimp
2000003e:	0000                	unimp
20000040:	009e                	slli	ra,ra,0x7
20000042:	2000                	fld	fs0,0(s0)
20000044:	00a0                	addi	s0,sp,72
20000046:	2000                	fld	fs0,0(s0)
20000048:	00a2                	slli	ra,ra,0x8
2000004a:	2000                	fld	fs0,0(s0)
2000004c:	00a4                	addi	s1,sp,72
2000004e:	2000                	fld	fs0,0(s0)
20000050:	00a6                	slli	ra,ra,0x9
20000052:	2000                	fld	fs0,0(s0)
20000054:	00a8                	addi	a0,sp,72
20000056:	2000                	fld	fs0,0(s0)
20000058:	02f8                	addi	a4,sp,332
2000005a:	2000                	fld	fs0,0(s0)
2000005c:	00ac                	addi	a1,sp,72
2000005e:	2000                	fld	fs0,0(s0)
20000060:	00ae                	slli	ra,ra,0xb
20000062:	2000                	fld	fs0,0(s0)
20000064:	00b0                	addi	a2,sp,72
20000066:	2000                	fld	fs0,0(s0)
20000068:	00b2                	slli	ra,ra,0xc
2000006a:	2000                	fld	fs0,0(s0)
2000006c:	00b4                	addi	a3,sp,72
2000006e:	2000                	fld	fs0,0(s0)
20000070:	02e2                	slli	t0,t0,0x18
20000072:	2000                	fld	fs0,0(s0)
20000074:	00b8                	addi	a4,sp,72
20000076:	2000                	fld	fs0,0(s0)
20000078:	00ba                	slli	ra,ra,0xe
2000007a:	2000                	fld	fs0,0(s0)
2000007c:	00bc                	addi	a5,sp,72
2000007e:	2000                	fld	fs0,0(s0)
20000080:	00be                	slli	ra,ra,0xf
20000082:	2000                	fld	fs0,0(s0)
20000084:	00c0                	addi	s0,sp,68
20000086:	2000                	fld	fs0,0(s0)
20000088:	00c2                	slli	ra,ra,0x10
2000008a:	2000                	fld	fs0,0(s0)
2000008c:	00c4                	addi	s1,sp,68
2000008e:	2000                	fld	fs0,0(s0)

20000090 <NMI_Handler>:
NMI_Handler():
E:\Project\tp78\mounriver_project\RF_CH582M\obj/../Startup/startup_CH583.S:91
    .weak   TMR3_IRQHandler
    .weak   UART2_IRQHandler
    .weak   UART3_IRQHandler
    .weak   WDOG_BAT_IRQHandler

NMI_Handler:         1:  j 1b
20000090:	a001                	j	20000090 <NMI_Handler>
E:\Project\tp78\mounriver_project\RF_CH582M\obj/../Startup/startup_CH583.S:92
HardFault_Handler:   1:  j 1b
20000092:	a001                	j	20000092 <NMI_Handler+0x2>

20000094 <Ecall_M_Mode_Handler>:
Ecall_M_Mode_Handler():
E:\Project\tp78\mounriver_project\RF_CH582M\obj/../Startup/startup_CH583.S:93
Ecall_M_Mode_Handler:   1:  j 1b
20000094:	a001                	j	20000094 <Ecall_M_Mode_Handler>

20000096 <Ecall_U_Mode_Handler>:
Ecall_U_Mode_Handler():
E:\Project\tp78\mounriver_project\RF_CH582M\obj/../Startup/startup_CH583.S:94
Ecall_U_Mode_Handler:   1:  j 1b
20000096:	a001                	j	20000096 <Ecall_U_Mode_Handler>

20000098 <Break_Point_Handler>:
Break_Point_Handler():
E:\Project\tp78\mounriver_project\RF_CH582M\obj/../Startup/startup_CH583.S:95
Break_Point_Handler:   1:  j 1b
20000098:	a001                	j	20000098 <Break_Point_Handler>

2000009a <SysTick_Handler>:
SysTick_Handler():
E:\Project\tp78\mounriver_project\RF_CH582M\obj/../Startup/startup_CH583.S:96
SysTick_Handler:     1:  j 1b
2000009a:	a001                	j	2000009a <SysTick_Handler>

2000009c <SW_Handler>:
SW_Handler():
E:\Project\tp78\mounriver_project\RF_CH582M\obj/../Startup/startup_CH583.S:97
SW_Handler:          1:  j 1b
2000009c:	a001                	j	2000009c <SW_Handler>

2000009e <TMR0_IRQHandler>:
TMR0_IRQHandler():
E:\Project\tp78\mounriver_project\RF_CH582M\obj/../Startup/startup_CH583.S:98
TMR0_IRQHandler:     1:  j 1b
2000009e:	a001                	j	2000009e <TMR0_IRQHandler>

200000a0 <GPIOA_IRQHandler>:
GPIOA_IRQHandler():
E:\Project\tp78\mounriver_project\RF_CH582M\obj/../Startup/startup_CH583.S:99
GPIOA_IRQHandler:    1:  j 1b
200000a0:	a001                	j	200000a0 <GPIOA_IRQHandler>

200000a2 <GPIOB_IRQHandler>:
GPIOB_IRQHandler():
E:\Project\tp78\mounriver_project\RF_CH582M\obj/../Startup/startup_CH583.S:100
GPIOB_IRQHandler:    1:  j 1b
200000a2:	a001                	j	200000a2 <GPIOB_IRQHandler>

200000a4 <SPI0_IRQHandler>:
SPI0_IRQHandler():
E:\Project\tp78\mounriver_project\RF_CH582M\obj/../Startup/startup_CH583.S:101
SPI0_IRQHandler:     1:  j 1b
200000a4:	a001                	j	200000a4 <SPI0_IRQHandler>

200000a6 <BB_IRQHandler>:
BB_IRQHandler():
E:\Project\tp78\mounriver_project\RF_CH582M\obj/../Startup/startup_CH583.S:102
BB_IRQHandler:       1:  j 1b
200000a6:	a001                	j	200000a6 <BB_IRQHandler>

200000a8 <LLE_IRQHandler>:
LLE_IRQHandler():
E:\Project\tp78\mounriver_project\RF_CH582M\obj/../Startup/startup_CH583.S:103
LLE_IRQHandler:      1:  j 1b
200000a8:	a001                	j	200000a8 <LLE_IRQHandler>
E:\Project\tp78\mounriver_project\RF_CH582M\obj/../Startup/startup_CH583.S:104
USB_IRQHandler:      1:  j 1b
200000aa:	a001                	j	200000aa <LLE_IRQHandler+0x2>

200000ac <USB2_IRQHandler>:
USB2_IRQHandler():
E:\Project\tp78\mounriver_project\RF_CH582M\obj/../Startup/startup_CH583.S:105
USB2_IRQHandler:      1:  j 1b
200000ac:	a001                	j	200000ac <USB2_IRQHandler>

200000ae <TMR1_IRQHandler>:
TMR1_IRQHandler():
E:\Project\tp78\mounriver_project\RF_CH582M\obj/../Startup/startup_CH583.S:106
TMR1_IRQHandler:     1:  j 1b
200000ae:	a001                	j	200000ae <TMR1_IRQHandler>

200000b0 <TMR2_IRQHandler>:
TMR2_IRQHandler():
E:\Project\tp78\mounriver_project\RF_CH582M\obj/../Startup/startup_CH583.S:107
TMR2_IRQHandler:     1:  j 1b
200000b0:	a001                	j	200000b0 <TMR2_IRQHandler>

200000b2 <UART0_IRQHandler>:
UART0_IRQHandler():
E:\Project\tp78\mounriver_project\RF_CH582M\obj/../Startup/startup_CH583.S:108
UART0_IRQHandler:    1:  j 1b
200000b2:	a001                	j	200000b2 <UART0_IRQHandler>

200000b4 <UART1_IRQHandler>:
UART1_IRQHandler():
E:\Project\tp78\mounriver_project\RF_CH582M\obj/../Startup/startup_CH583.S:109
UART1_IRQHandler:    1:  j 1b
200000b4:	a001                	j	200000b4 <UART1_IRQHandler>
E:\Project\tp78\mounriver_project\RF_CH582M\obj/../Startup/startup_CH583.S:110
RTC_IRQHandler:      1:  j 1b
200000b6:	a001                	j	200000b6 <UART1_IRQHandler+0x2>

200000b8 <ADC_IRQHandler>:
ADC_IRQHandler():
E:\Project\tp78\mounriver_project\RF_CH582M\obj/../Startup/startup_CH583.S:111
ADC_IRQHandler:      1:  j 1b
200000b8:	a001                	j	200000b8 <ADC_IRQHandler>

200000ba <I2C_IRQHandler>:
I2C_IRQHandler():
E:\Project\tp78\mounriver_project\RF_CH582M\obj/../Startup/startup_CH583.S:112
I2C_IRQHandler:		 1:  j 1b
200000ba:	a001                	j	200000ba <I2C_IRQHandler>

200000bc <PWMX_IRQHandler>:
PWMX_IRQHandler():
E:\Project\tp78\mounriver_project\RF_CH582M\obj/../Startup/startup_CH583.S:113
PWMX_IRQHandler:     1:  j 1b
200000bc:	a001                	j	200000bc <PWMX_IRQHandler>

200000be <TMR3_IRQHandler>:
TMR3_IRQHandler():
E:\Project\tp78\mounriver_project\RF_CH582M\obj/../Startup/startup_CH583.S:114
TMR3_IRQHandler:     1:  j 1b
200000be:	a001                	j	200000be <TMR3_IRQHandler>

200000c0 <UART2_IRQHandler>:
UART2_IRQHandler():
E:\Project\tp78\mounriver_project\RF_CH582M\obj/../Startup/startup_CH583.S:115
UART2_IRQHandler:    1:  j 1b
200000c0:	a001                	j	200000c0 <UART2_IRQHandler>

200000c2 <UART3_IRQHandler>:
UART3_IRQHandler():
E:\Project\tp78\mounriver_project\RF_CH582M\obj/../Startup/startup_CH583.S:116
UART3_IRQHandler:    1:  j 1b
200000c2:	a001                	j	200000c2 <UART3_IRQHandler>

200000c4 <WDOG_BAT_IRQHandler>:
WDOG_BAT_IRQHandler():
E:\Project\tp78\mounriver_project\RF_CH582M\obj/../Startup/startup_CH583.S:117
WDOG_BAT_IRQHandler: 1:  j 1b
200000c4:	a001                	j	200000c4 <WDOG_BAT_IRQHandler>

200000c6 <SetSysClock>:
SetSysClock():
E:\Project\tp78\mounriver_project\RF_CH582M\obj/../StdPeriphDriver/CH58x_sys.c:26
 */
__HIGH_CODE
void SetSysClock(SYS_CLKTypeDef sc)
{
    uint32_t i;
    R8_SAFE_ACCESS_SIG = SAFE_ACCESS_SIG1;
200000c6:	400017b7          	lui	a5,0x40001
200000ca:	05700693          	li	a3,87
200000ce:	04d78023          	sb	a3,64(a5) # 40001040 <_eusrstack+0x1fff9040>
E:\Project\tp78\mounriver_project\RF_CH582M\obj/../StdPeriphDriver/CH58x_sys.c:27
    R8_SAFE_ACCESS_SIG = SAFE_ACCESS_SIG2;
200000d2:	fa800713          	li	a4,-88
200000d6:	04e78023          	sb	a4,64(a5)
E:\Project\tp78\mounriver_project\RF_CH582M\obj/../StdPeriphDriver/CH58x_sys.c:28
    SAFEOPERATE;
200000da:	0001                	nop
200000dc:	0001                	nop
E:\Project\tp78\mounriver_project\RF_CH582M\obj/../StdPeriphDriver/CH58x_sys.c:29
    R8_PLL_CONFIG &= ~(1 << 5); //
200000de:	04b7c603          	lbu	a2,75(a5)
200000e2:	0df67613          	andi	a2,a2,223
200000e6:	04c785a3          	sb	a2,75(a5)
E:\Project\tp78\mounriver_project\RF_CH582M\obj/../StdPeriphDriver/CH58x_sys.c:30
    R8_SAFE_ACCESS_SIG = 0;
200000ea:	04078023          	sb	zero,64(a5)
E:\Project\tp78\mounriver_project\RF_CH582M\obj/../StdPeriphDriver/CH58x_sys.c:31
    if(sc & 0x20)
200000ee:	02057613          	andi	a2,a0,32
200000f2:	ce59                	beqz	a2,20000190 <SetSysClock+0xca>
E:\Project\tp78\mounriver_project\RF_CH582M\obj/../StdPeriphDriver/CH58x_sys.c:33
    { // HSE div
        if(!(R8_HFCK_PWR_CTRL & RB_CLK_XT32M_PON))
200000f4:	00a7c603          	lbu	a2,10(a5)
200000f8:	8a11                	andi	a2,a2,4
200000fa:	e21d                	bnez	a2,20000120 <SetSysClock+0x5a>
E:\Project\tp78\mounriver_project\RF_CH582M\obj/../StdPeriphDriver/CH58x_sys.c:35
        {
            R8_SAFE_ACCESS_SIG = SAFE_ACCESS_SIG1;
200000fc:	04d78023          	sb	a3,64(a5)
E:\Project\tp78\mounriver_project\RF_CH582M\obj/../StdPeriphDriver/CH58x_sys.c:36
            R8_SAFE_ACCESS_SIG = SAFE_ACCESS_SIG2;
20000100:	04e78023          	sb	a4,64(a5)
E:\Project\tp78\mounriver_project\RF_CH582M\obj/../StdPeriphDriver/CH58x_sys.c:37
            SAFEOPERATE;
20000104:	0001                	nop
20000106:	0001                	nop
E:\Project\tp78\mounriver_project\RF_CH582M\obj/../StdPeriphDriver/CH58x_sys.c:38
            R8_HFCK_PWR_CTRL |= RB_CLK_XT32M_PON; // HSE power on
20000108:	00a7c703          	lbu	a4,10(a5)
2000010c:	00476713          	ori	a4,a4,4
20000110:	00e78523          	sb	a4,10(a5)
20000114:	4b000793          	li	a5,1200
E:\Project\tp78\mounriver_project\RF_CH582M\obj/../StdPeriphDriver/CH58x_sys.c:41 (discriminator 3)
            for(i = 0; i < 1200; i++)
            {
                __nop();
20000118:	0001                	nop
E:\Project\tp78\mounriver_project\RF_CH582M\obj/../StdPeriphDriver/CH58x_sys.c:42 (discriminator 3)
                __nop();
2000011a:	0001                	nop
2000011c:	17fd                	addi	a5,a5,-1
E:\Project\tp78\mounriver_project\RF_CH582M\obj/../StdPeriphDriver/CH58x_sys.c:39 (discriminator 3)
            for(i = 0; i < 1200; i++)
2000011e:	ffed                	bnez	a5,20000118 <SetSysClock+0x52>
E:\Project\tp78\mounriver_project\RF_CH582M\obj/../StdPeriphDriver/CH58x_sys.c:46
            }
        }

        R8_SAFE_ACCESS_SIG = SAFE_ACCESS_SIG1;
20000120:	400017b7          	lui	a5,0x40001
20000124:	05700693          	li	a3,87
20000128:	04d78023          	sb	a3,64(a5) # 40001040 <_eusrstack+0x1fff9040>
E:\Project\tp78\mounriver_project\RF_CH582M\obj/../StdPeriphDriver/CH58x_sys.c:47
        R8_SAFE_ACCESS_SIG = SAFE_ACCESS_SIG2;
2000012c:	fa800713          	li	a4,-88
20000130:	04e78023          	sb	a4,64(a5)
E:\Project\tp78\mounriver_project\RF_CH582M\obj/../StdPeriphDriver/CH58x_sys.c:48
        SAFEOPERATE;
20000134:	0001                	nop
20000136:	0001                	nop
E:\Project\tp78\mounriver_project\RF_CH582M\obj/../StdPeriphDriver/CH58x_sys.c:49
        R16_CLK_SYS_CFG = (0 << 6) | (sc & 0x1f);
20000138:	897d                	andi	a0,a0,31
2000013a:	00a79423          	sh	a0,8(a5)
E:\Project\tp78\mounriver_project\RF_CH582M\obj/../StdPeriphDriver/CH58x_sys.c:50
        __nop();
2000013e:	0001                	nop
E:\Project\tp78\mounriver_project\RF_CH582M\obj/../StdPeriphDriver/CH58x_sys.c:51
        __nop();
20000140:	0001                	nop
E:\Project\tp78\mounriver_project\RF_CH582M\obj/../StdPeriphDriver/CH58x_sys.c:52
        __nop();
20000142:	0001                	nop
E:\Project\tp78\mounriver_project\RF_CH582M\obj/../StdPeriphDriver/CH58x_sys.c:53
        __nop();
20000144:	0001                	nop
E:\Project\tp78\mounriver_project\RF_CH582M\obj/../StdPeriphDriver/CH58x_sys.c:54
        R8_SAFE_ACCESS_SIG = 0;
20000146:	04078023          	sb	zero,64(a5)
E:\Project\tp78\mounriver_project\RF_CH582M\obj/../StdPeriphDriver/CH58x_sys.c:55
        R8_SAFE_ACCESS_SIG = SAFE_ACCESS_SIG1;
2000014a:	04d78023          	sb	a3,64(a5)
E:\Project\tp78\mounriver_project\RF_CH582M\obj/../StdPeriphDriver/CH58x_sys.c:56
        R8_SAFE_ACCESS_SIG = SAFE_ACCESS_SIG2;
2000014e:	04e78023          	sb	a4,64(a5)
E:\Project\tp78\mounriver_project\RF_CH582M\obj/../StdPeriphDriver/CH58x_sys.c:57
        SAFEOPERATE;
20000152:	0001                	nop
20000154:	0001                	nop
E:\Project\tp78\mounriver_project\RF_CH582M\obj/../StdPeriphDriver/CH58x_sys.c:58
        R8_FLASH_CFG = 0X51;
20000156:	40002737          	lui	a4,0x40002
2000015a:	05100693          	li	a3,81
E:\Project\tp78\mounriver_project\RF_CH582M\obj/../StdPeriphDriver/CH58x_sys.c:90
        if(sc == CLK_SOURCE_PLL_80MHz)
        {
            R8_SAFE_ACCESS_SIG = SAFE_ACCESS_SIG1;
            R8_SAFE_ACCESS_SIG = SAFE_ACCESS_SIG2;
            SAFEOPERATE;
            R8_FLASH_CFG = 0X02;
2000015e:	80d703a3          	sb	a3,-2041(a4) # 40001807 <_eusrstack+0x1fff9807>
E:\Project\tp78\mounriver_project\RF_CH582M\obj/../StdPeriphDriver/CH58x_sys.c:91
            R8_SAFE_ACCESS_SIG = 0;
20000162:	04078023          	sb	zero,64(a5)
E:\Project\tp78\mounriver_project\RF_CH582M\obj/../StdPeriphDriver/CH58x_sys.c:110
        R8_SAFE_ACCESS_SIG = SAFE_ACCESS_SIG2;
        SAFEOPERATE;
        R16_CLK_SYS_CFG |= RB_CLK_SYS_MOD;
    }
    //更改FLASH clk的驱动能力
    R8_SAFE_ACCESS_SIG = SAFE_ACCESS_SIG1;
20000166:	400017b7          	lui	a5,0x40001
2000016a:	05700713          	li	a4,87
2000016e:	04e78023          	sb	a4,64(a5) # 40001040 <_eusrstack+0x1fff9040>
E:\Project\tp78\mounriver_project\RF_CH582M\obj/../StdPeriphDriver/CH58x_sys.c:111
    R8_SAFE_ACCESS_SIG = SAFE_ACCESS_SIG2;
20000172:	fa800713          	li	a4,-88
20000176:	04e78023          	sb	a4,64(a5)
E:\Project\tp78\mounriver_project\RF_CH582M\obj/../StdPeriphDriver/CH58x_sys.c:112
    SAFEOPERATE;
2000017a:	0001                	nop
2000017c:	0001                	nop
E:\Project\tp78\mounriver_project\RF_CH582M\obj/../StdPeriphDriver/CH58x_sys.c:113
    R8_PLL_CONFIG |= 1 << 7;
2000017e:	04b7c703          	lbu	a4,75(a5)
20000182:	08076713          	ori	a4,a4,128
20000186:	04e785a3          	sb	a4,75(a5)
E:\Project\tp78\mounriver_project\RF_CH582M\obj/../StdPeriphDriver/CH58x_sys.c:114
    R8_SAFE_ACCESS_SIG = 0;
2000018a:	04078023          	sb	zero,64(a5)
E:\Project\tp78\mounriver_project\RF_CH582M\obj/../StdPeriphDriver/CH58x_sys.c:115
}
2000018e:	8082                	ret
E:\Project\tp78\mounriver_project\RF_CH582M\obj/../StdPeriphDriver/CH58x_sys.c:62
    else if(sc & 0x40)
20000190:	04057613          	andi	a2,a0,64
20000194:	c641                	beqz	a2,2000021c <SetSysClock+0x156>
E:\Project\tp78\mounriver_project\RF_CH582M\obj/../StdPeriphDriver/CH58x_sys.c:64
        if(!(R8_HFCK_PWR_CTRL & RB_CLK_PLL_PON))
20000196:	00a7c603          	lbu	a2,10(a5)
2000019a:	8a41                	andi	a2,a2,16
2000019c:	e21d                	bnez	a2,200001c2 <SetSysClock+0xfc>
E:\Project\tp78\mounriver_project\RF_CH582M\obj/../StdPeriphDriver/CH58x_sys.c:66
            R8_SAFE_ACCESS_SIG = SAFE_ACCESS_SIG1;
2000019e:	04d78023          	sb	a3,64(a5)
E:\Project\tp78\mounriver_project\RF_CH582M\obj/../StdPeriphDriver/CH58x_sys.c:67
            R8_SAFE_ACCESS_SIG = SAFE_ACCESS_SIG2;
200001a2:	04e78023          	sb	a4,64(a5)
E:\Project\tp78\mounriver_project\RF_CH582M\obj/../StdPeriphDriver/CH58x_sys.c:68
            SAFEOPERATE;
200001a6:	0001                	nop
200001a8:	0001                	nop
E:\Project\tp78\mounriver_project\RF_CH582M\obj/../StdPeriphDriver/CH58x_sys.c:69
            R8_HFCK_PWR_CTRL |= RB_CLK_PLL_PON; // PLL power on
200001aa:	00a7c703          	lbu	a4,10(a5)
200001ae:	01076713          	ori	a4,a4,16
200001b2:	00e78523          	sb	a4,10(a5)
200001b6:	7d000793          	li	a5,2000
E:\Project\tp78\mounriver_project\RF_CH582M\obj/../StdPeriphDriver/CH58x_sys.c:72 (discriminator 3)
                __nop();
200001ba:	0001                	nop
E:\Project\tp78\mounriver_project\RF_CH582M\obj/../StdPeriphDriver/CH58x_sys.c:73 (discriminator 3)
                __nop();
200001bc:	0001                	nop
200001be:	17fd                	addi	a5,a5,-1
E:\Project\tp78\mounriver_project\RF_CH582M\obj/../StdPeriphDriver/CH58x_sys.c:70 (discriminator 3)
            for(i = 0; i < 2000; i++)
200001c0:	ffed                	bnez	a5,200001ba <SetSysClock+0xf4>
E:\Project\tp78\mounriver_project\RF_CH582M\obj/../StdPeriphDriver/CH58x_sys.c:76
        R8_SAFE_ACCESS_SIG = SAFE_ACCESS_SIG1;
200001c2:	400017b7          	lui	a5,0x40001
200001c6:	05700693          	li	a3,87
200001ca:	04d78023          	sb	a3,64(a5) # 40001040 <_eusrstack+0x1fff9040>
E:\Project\tp78\mounriver_project\RF_CH582M\obj/../StdPeriphDriver/CH58x_sys.c:77
        R8_SAFE_ACCESS_SIG = SAFE_ACCESS_SIG2;
200001ce:	fa800713          	li	a4,-88
200001d2:	04e78023          	sb	a4,64(a5)
E:\Project\tp78\mounriver_project\RF_CH582M\obj/../StdPeriphDriver/CH58x_sys.c:78
        SAFEOPERATE;
200001d6:	0001                	nop
200001d8:	0001                	nop
E:\Project\tp78\mounriver_project\RF_CH582M\obj/../StdPeriphDriver/CH58x_sys.c:79
        R16_CLK_SYS_CFG = (1 << 6) | (sc & 0x1f);
200001da:	01f57613          	andi	a2,a0,31
200001de:	04066613          	ori	a2,a2,64
200001e2:	00c79423          	sh	a2,8(a5)
E:\Project\tp78\mounriver_project\RF_CH582M\obj/../StdPeriphDriver/CH58x_sys.c:80
        __nop();
200001e6:	0001                	nop
E:\Project\tp78\mounriver_project\RF_CH582M\obj/../StdPeriphDriver/CH58x_sys.c:81
        __nop();
200001e8:	0001                	nop
E:\Project\tp78\mounriver_project\RF_CH582M\obj/../StdPeriphDriver/CH58x_sys.c:82
        __nop();
200001ea:	0001                	nop
E:\Project\tp78\mounriver_project\RF_CH582M\obj/../StdPeriphDriver/CH58x_sys.c:83
        __nop();
200001ec:	0001                	nop
E:\Project\tp78\mounriver_project\RF_CH582M\obj/../StdPeriphDriver/CH58x_sys.c:84
        R8_SAFE_ACCESS_SIG = 0;
200001ee:	04078023          	sb	zero,64(a5)
E:\Project\tp78\mounriver_project\RF_CH582M\obj/../StdPeriphDriver/CH58x_sys.c:87
            R8_SAFE_ACCESS_SIG = SAFE_ACCESS_SIG1;
200001f2:	04d78023          	sb	a3,64(a5)
E:\Project\tp78\mounriver_project\RF_CH582M\obj/../StdPeriphDriver/CH58x_sys.c:85
        if(sc == CLK_SOURCE_PLL_80MHz)
200001f6:	04600613          	li	a2,70
E:\Project\tp78\mounriver_project\RF_CH582M\obj/../StdPeriphDriver/CH58x_sys.c:88
            R8_SAFE_ACCESS_SIG = SAFE_ACCESS_SIG2;
200001fa:	04e78023          	sb	a4,64(a5)
E:\Project\tp78\mounriver_project\RF_CH582M\obj/../StdPeriphDriver/CH58x_sys.c:85
        if(sc == CLK_SOURCE_PLL_80MHz)
200001fe:	00c51863          	bne	a0,a2,2000020e <SetSysClock+0x148>
E:\Project\tp78\mounriver_project\RF_CH582M\obj/../StdPeriphDriver/CH58x_sys.c:89
            SAFEOPERATE;
20000202:	0001                	nop
20000204:	0001                	nop
E:\Project\tp78\mounriver_project\RF_CH582M\obj/../StdPeriphDriver/CH58x_sys.c:90
            R8_FLASH_CFG = 0X02;
20000206:	40002737          	lui	a4,0x40002
2000020a:	4689                	li	a3,2
2000020c:	bf89                	j	2000015e <SetSysClock+0x98>
E:\Project\tp78\mounriver_project\RF_CH582M\obj/../StdPeriphDriver/CH58x_sys.c:97
            SAFEOPERATE;
2000020e:	0001                	nop
20000210:	0001                	nop
E:\Project\tp78\mounriver_project\RF_CH582M\obj/../StdPeriphDriver/CH58x_sys.c:98
            R8_FLASH_CFG = 0X52;
20000212:	40002737          	lui	a4,0x40002
20000216:	05200693          	li	a3,82
2000021a:	b791                	j	2000015e <SetSysClock+0x98>
E:\Project\tp78\mounriver_project\RF_CH582M\obj/../StdPeriphDriver/CH58x_sys.c:104
        R8_SAFE_ACCESS_SIG = SAFE_ACCESS_SIG1;
2000021c:	04d78023          	sb	a3,64(a5)
E:\Project\tp78\mounriver_project\RF_CH582M\obj/../StdPeriphDriver/CH58x_sys.c:105
        R8_SAFE_ACCESS_SIG = SAFE_ACCESS_SIG2;
20000220:	04e78023          	sb	a4,64(a5)
E:\Project\tp78\mounriver_project\RF_CH582M\obj/../StdPeriphDriver/CH58x_sys.c:106
        SAFEOPERATE;
20000224:	0001                	nop
20000226:	0001                	nop
E:\Project\tp78\mounriver_project\RF_CH582M\obj/../StdPeriphDriver/CH58x_sys.c:107
        R16_CLK_SYS_CFG |= RB_CLK_SYS_MOD;
20000228:	0087d703          	lhu	a4,8(a5)
2000022c:	0c076713          	ori	a4,a4,192
20000230:	00e79423          	sh	a4,8(a5)
20000234:	bf0d                	j	20000166 <SetSysClock+0xa0>

20000236 <SYS_ResetExecute>:
SYS_ResetExecute():
E:\Project\tp78\mounriver_project\RF_CH582M\obj/../StdPeriphDriver/CH58x_sys.c:177
 *
 * @return  none
 */
__HIGH_CODE
void SYS_ResetExecute(void)
{
20000236:	1141                	addi	sp,sp,-16
E:\Project\tp78\mounriver_project\RF_CH582M\obj/../StdPeriphDriver/CH58x_sys.c:178
    FLASH_ROM_SW_RESET();
20000238:	4681                	li	a3,0
2000023a:	4601                	li	a2,0
2000023c:	4581                	li	a1,0
2000023e:	4511                	li	a0,4
E:\Project\tp78\mounriver_project\RF_CH582M\obj/../StdPeriphDriver/CH58x_sys.c:177
{
20000240:	c606                	sw	ra,12(sp)
E:\Project\tp78\mounriver_project\RF_CH582M\obj/../StdPeriphDriver/CH58x_sys.c:178
    FLASH_ROM_SW_RESET();
20000242:	2259                	jal	200003c8 <FLASH_EEPROM_CMD>
E:\Project\tp78\mounriver_project\RF_CH582M\obj/../StdPeriphDriver/CH58x_sys.c:179
    R8_SAFE_ACCESS_SIG = SAFE_ACCESS_SIG1;
20000244:	400017b7          	lui	a5,0x40001
20000248:	05700713          	li	a4,87
2000024c:	04e78023          	sb	a4,64(a5) # 40001040 <_eusrstack+0x1fff9040>
E:\Project\tp78\mounriver_project\RF_CH582M\obj/../StdPeriphDriver/CH58x_sys.c:180
    R8_SAFE_ACCESS_SIG = SAFE_ACCESS_SIG2;
20000250:	fa800713          	li	a4,-88
20000254:	04e78023          	sb	a4,64(a5)
E:\Project\tp78\mounriver_project\RF_CH582M\obj/../StdPeriphDriver/CH58x_sys.c:181
    SAFEOPERATE;
20000258:	0001                	nop
2000025a:	0001                	nop
E:\Project\tp78\mounriver_project\RF_CH582M\obj/../StdPeriphDriver/CH58x_sys.c:182
    R8_RST_WDOG_CTRL |= RB_SOFTWARE_RESET;
2000025c:	0467c703          	lbu	a4,70(a5)
20000260:	00176713          	ori	a4,a4,1
20000264:	04e78323          	sb	a4,70(a5)
E:\Project\tp78\mounriver_project\RF_CH582M\obj/../StdPeriphDriver/CH58x_sys.c:183
    R8_SAFE_ACCESS_SIG = 0;
20000268:	04078023          	sb	zero,64(a5)
E:\Project\tp78\mounriver_project\RF_CH582M\obj/../StdPeriphDriver/CH58x_sys.c:184
}
2000026c:	40b2                	lw	ra,12(sp)
2000026e:	0141                	addi	sp,sp,16
20000270:	8082                	ret

20000272 <HardFault_Handler>:
HardFault_Handler():
E:\Project\tp78\mounriver_project\RF_CH582M\obj/../StdPeriphDriver/CH58x_sys.c:316
__INTERRUPT
__HIGH_CODE
__attribute__((weak))
void HardFault_Handler(void)
{
    FLASH_ROM_SW_RESET();
20000272:	4681                	li	a3,0
20000274:	4601                	li	a2,0
20000276:	4581                	li	a1,0
20000278:	4511                	li	a0,4
2000027a:	22b9                	jal	200003c8 <FLASH_EEPROM_CMD>
E:\Project\tp78\mounriver_project\RF_CH582M\obj/../StdPeriphDriver/CH58x_sys.c:317
    R8_SAFE_ACCESS_SIG = SAFE_ACCESS_SIG1;
2000027c:	400017b7          	lui	a5,0x40001
20000280:	05700713          	li	a4,87
20000284:	04e78023          	sb	a4,64(a5) # 40001040 <_eusrstack+0x1fff9040>
E:\Project\tp78\mounriver_project\RF_CH582M\obj/../StdPeriphDriver/CH58x_sys.c:318
    R8_SAFE_ACCESS_SIG = SAFE_ACCESS_SIG2;
20000288:	fa800713          	li	a4,-88
2000028c:	04e78023          	sb	a4,64(a5)
E:\Project\tp78\mounriver_project\RF_CH582M\obj/../StdPeriphDriver/CH58x_sys.c:319
    SAFEOPERATE;
20000290:	0001                	nop
20000292:	0001                	nop
E:\Project\tp78\mounriver_project\RF_CH582M\obj/../StdPeriphDriver/CH58x_sys.c:320
    R16_INT32K_TUNE = 0xFFFF;
20000294:	577d                	li	a4,-1
20000296:	02e79623          	sh	a4,44(a5)
E:\Project\tp78\mounriver_project\RF_CH582M\obj/../StdPeriphDriver/CH58x_sys.c:321
    R8_RST_WDOG_CTRL |= RB_SOFTWARE_RESET;
2000029a:	0467c703          	lbu	a4,70(a5)
2000029e:	00176713          	ori	a4,a4,1
200002a2:	04e78323          	sb	a4,70(a5)
E:\Project\tp78\mounriver_project\RF_CH582M\obj/../StdPeriphDriver/CH58x_sys.c:322
    R8_SAFE_ACCESS_SIG = 0;
200002a6:	04078023          	sb	zero,64(a5)
E:\Project\tp78\mounriver_project\RF_CH582M\obj/../StdPeriphDriver/CH58x_sys.c:323 (discriminator 1)
    while(1);
200002aa:	a001                	j	200002aa <HardFault_Handler+0x38>

200002ac <mDelayuS>:
mDelayuS():
E:\Project\tp78\mounriver_project\RF_CH582M\obj/../StdPeriphDriver/CH58x_sys.c:340
__HIGH_CODE
void mDelayuS(uint16_t t)
{
    uint32_t i;
#if(FREQ_SYS == 60000000)
    i = t * 15;
200002ac:	47bd                	li	a5,15
200002ae:	02f50533          	mul	a0,a0,a5
E:\Project\tp78\mounriver_project\RF_CH582M\obj/../StdPeriphDriver/CH58x_sys.c:362 (discriminator 1)
#elif(FREQ_SYS == 1000000)
    i = t >> 2;
#endif
    do
    {
        __nop();
200002b2:	0001                	nop
E:\Project\tp78\mounriver_project\RF_CH582M\obj/../StdPeriphDriver/CH58x_sys.c:363 (discriminator 1)
    } while(--i);
200002b4:	157d                	addi	a0,a0,-1
200002b6:	fd75                	bnez	a0,200002b2 <mDelayuS+0x6>
E:\Project\tp78\mounriver_project\RF_CH582M\obj/../StdPeriphDriver/CH58x_sys.c:364
}
200002b8:	8082                	ret

200002ba <mDelaymS>:
mDelaymS():
E:\Project\tp78\mounriver_project\RF_CH582M\obj/../StdPeriphDriver/CH58x_sys.c:377
 *
 * @return  none
 */
__HIGH_CODE
void mDelaymS(uint16_t t)
{
200002ba:	1141                	addi	sp,sp,-16
200002bc:	c422                	sw	s0,8(sp)
200002be:	c226                	sw	s1,4(sp)
200002c0:	c606                	sw	ra,12(sp)
200002c2:	84aa                	mv	s1,a0
E:\Project\tp78\mounriver_project\RF_CH582M\obj/../StdPeriphDriver/CH58x_sys.c:380
    uint16_t i;

    for(i = 0; i < t; i++)
200002c4:	4401                	li	s0,0
E:\Project\tp78\mounriver_project\RF_CH582M\obj/../StdPeriphDriver/CH58x_sys.c:380 (discriminator 1)
200002c6:	00941763          	bne	s0,s1,200002d4 <mDelaymS+0x1a>
E:\Project\tp78\mounriver_project\RF_CH582M\obj/../StdPeriphDriver/CH58x_sys.c:384
    {
        mDelayuS(1000);
    }
}
200002ca:	40b2                	lw	ra,12(sp)
200002cc:	4422                	lw	s0,8(sp)
200002ce:	4492                	lw	s1,4(sp)
200002d0:	0141                	addi	sp,sp,16
200002d2:	8082                	ret
E:\Project\tp78\mounriver_project\RF_CH582M\obj/../StdPeriphDriver/CH58x_sys.c:380 (discriminator 3)
    for(i = 0; i < t; i++)
200002d4:	0405                	addi	s0,s0,1
E:\Project\tp78\mounriver_project\RF_CH582M\obj/../StdPeriphDriver/CH58x_sys.c:382 (discriminator 3)
        mDelayuS(1000);
200002d6:	3e800513          	li	a0,1000
E:\Project\tp78\mounriver_project\RF_CH582M\obj/../StdPeriphDriver/CH58x_sys.c:380 (discriminator 3)
    for(i = 0; i < t; i++)
200002da:	0442                	slli	s0,s0,0x10
E:\Project\tp78\mounriver_project\RF_CH582M\obj/../StdPeriphDriver/CH58x_sys.c:382 (discriminator 3)
        mDelayuS(1000);
200002dc:	3fc1                	jal	200002ac <mDelayuS>
E:\Project\tp78\mounriver_project\RF_CH582M\obj/../StdPeriphDriver/CH58x_sys.c:380 (discriminator 3)
    for(i = 0; i < t; i++)
200002de:	8041                	srli	s0,s0,0x10
200002e0:	b7dd                	j	200002c6 <mDelaymS+0xc>

200002e2 <RTC_IRQHandler>:
RTC_IRQHandler():
E:\Project\tp78\mounriver_project\RF_CH582M\obj/../HAL/RTC.c:58
 */
__INTERRUPT
__HIGH_CODE
void RTC_IRQHandler(void)
{
    R8_RTC_FLAG_CTRL = (RB_RTC_TMR_CLR | RB_RTC_TRIG_CLR);
200002e2:	400017b7          	lui	a5,0x40001
200002e6:	03000713          	li	a4,48
200002ea:	02e78823          	sb	a4,48(a5) # 40001030 <_eusrstack+0x1fff9030>
E:\Project\tp78\mounriver_project\RF_CH582M\obj/../HAL/RTC.c:59
    RTCTigFlag = 1;
200002ee:	4785                	li	a5,1
200002f0:	82f1ac23          	sw	a5,-1992(gp) # 20001770 <RTCTigFlag>
E:\Project\tp78\mounriver_project\RF_CH582M\obj/../HAL/RTC.c:60
}
200002f4:	30200073          	mret

200002f8 <USB_IRQHandler>:
USB_IRQHandler():
E:\Project\tp78\mounriver_project\RF_CH582M\obj/../HAL/USB.c:551

__INTERRUPT
__HIGH_CODE
void USB_IRQHandler( void )     //USB中断服务程序,使用寄存器组1
{
    USB_DevTransProcess();
200002f8:	e0002097          	auipc	ra,0xe0002
200002fc:	0a4080e7          	jalr	164(ra) # 239c <USB_DevTransProcess>
E:\Project\tp78\mounriver_project\RF_CH582M\obj/../HAL/USB.c:552
}
20000300:	30200073          	mret

20000304 <Main_Circulation>:
Main_Circulation():
E:\Project\tp78\mounriver_project\RF_CH582M\obj/../APP/RF_main.c:39
 * @return  none
 */
__HIGH_CODE
__attribute__((noinline))
void Main_Circulation()
{
20000304:	1141                	addi	sp,sp,-16
20000306:	c606                	sw	ra,12(sp)
E:\Project\tp78\mounriver_project\RF_CH582M\obj/../APP/RF_main.c:42 (discriminator 1)
    while(1)
    {
        TMOS_SystemProcess();
20000308:	2d85                	jal	20000978 <TMOS_SystemProcess>
2000030a:	bffd                	j	20000308 <Main_Circulation+0x4>

2000030c <FLASH_ROM_BEG>:
FLASH_ROM_BEG():
2000030c:	80040323          	sb	zero,-2042(s0)
20000310:	4715                	li	a4,5
20000312:	80e40323          	sb	a4,-2042(s0)
20000316:	0001                	nop
20000318:	80a40223          	sb	a0,-2044(s0)
2000031c:	8082                	ret

2000031e <FLASH_ROM_END>:
FLASH_ROM_END():
2000031e:	80640783          	lb	a5,-2042(s0)
20000322:	fe07cee3          	bltz	a5,2000031e <FLASH_ROM_END>
20000326:	80040323          	sb	zero,-2042(s0)
2000032a:	8082                	ret

2000032c <FLASH_ROM_IN>:
FLASH_ROM_IN():
2000032c:	80640783          	lb	a5,-2042(s0)
20000330:	fe07cee3          	bltz	a5,2000032c <FLASH_ROM_IN>
20000334:	80444503          	lbu	a0,-2044(s0)
20000338:	8082                	ret

2000033a <FLASH_ROM_OUT>:
FLASH_ROM_OUT():
2000033a:	80640783          	lb	a5,-2042(s0)
2000033e:	fe07cee3          	bltz	a5,2000033a <FLASH_ROM_OUT>
20000342:	80a40223          	sb	a0,-2044(s0)
20000346:	8082                	ret

20000348 <FLASH_ROM_ADDR>:
FLASH_ROM_ADDR():
20000348:	1141                	addi	sp,sp,-16
2000034a:	c426                	sw	s1,8(sp)
2000034c:	c24a                	sw	s2,4(sp)
2000034e:	c04e                	sw	s3,0(sp)
20000350:	c606                	sw	ra,12(sp)
20000352:	0bf57713          	andi	a4,a0,191
20000356:	47ad                	li	a5,11
20000358:	89aa                	mv	s3,a0
2000035a:	892e                	mv	s2,a1
2000035c:	4495                	li	s1,5
2000035e:	00f70663          	beq	a4,a5,2000036a <FLASH_ROM_ADDR+0x22>
20000362:	4519                	li	a0,6
20000364:	3765                	jal	2000030c <FLASH_ROM_BEG>
20000366:	3f65                	jal	2000031e <FLASH_ROM_END>
20000368:	448d                	li	s1,3
2000036a:	854e                	mv	a0,s3
2000036c:	3745                	jal	2000030c <FLASH_ROM_BEG>
2000036e:	59fd                	li	s3,-1
20000370:	14fd                	addi	s1,s1,-1
20000372:	01349863          	bne	s1,s3,20000382 <FLASH_ROM_ADDR+0x3a>
20000376:	40b2                	lw	ra,12(sp)
20000378:	44a2                	lw	s1,8(sp)
2000037a:	4912                	lw	s2,4(sp)
2000037c:	4982                	lw	s3,0(sp)
2000037e:	0141                	addi	sp,sp,16
20000380:	8082                	ret
20000382:	01095513          	srli	a0,s2,0x10
20000386:	0ff57513          	andi	a0,a0,255
2000038a:	3f45                	jal	2000033a <FLASH_ROM_OUT>
2000038c:	0922                	slli	s2,s2,0x8
2000038e:	b7cd                	j	20000370 <FLASH_ROM_ADDR+0x28>

20000390 <FLASH_ROM_WAIT>:
FLASH_ROM_WAIT():
20000390:	1101                	addi	sp,sp,-32
20000392:	cc26                	sw	s1,24(sp)
20000394:	ce06                	sw	ra,28(sp)
20000396:	000804b7          	lui	s1,0x80
2000039a:	3751                	jal	2000031e <FLASH_ROM_END>
2000039c:	4515                	li	a0,5
2000039e:	37bd                	jal	2000030c <FLASH_ROM_BEG>
200003a0:	3771                	jal	2000032c <FLASH_ROM_IN>
200003a2:	3769                	jal	2000032c <FLASH_ROM_IN>
200003a4:	c62a                	sw	a0,12(sp)
200003a6:	3fa5                	jal	2000031e <FLASH_ROM_END>
200003a8:	4532                	lw	a0,12(sp)
200003aa:	00157793          	andi	a5,a0,1
200003ae:	eb89                	bnez	a5,200003c0 <FLASH_ROM_WAIT+0x30>
200003b0:	00156513          	ori	a0,a0,1
200003b4:	0ff57513          	andi	a0,a0,255
200003b8:	40f2                	lw	ra,28(sp)
200003ba:	44e2                	lw	s1,24(sp)
200003bc:	6105                	addi	sp,sp,32
200003be:	8082                	ret
200003c0:	14fd                	addi	s1,s1,-1
200003c2:	fce9                	bnez	s1,2000039c <FLASH_ROM_WAIT+0xc>
200003c4:	4501                	li	a0,0
200003c6:	bfcd                	j	200003b8 <FLASH_ROM_WAIT+0x28>

200003c8 <FLASH_EEPROM_CMD>:
FLASH_EEPROM_CMD():
200003c8:	7139                	addi	sp,sp,-64
200003ca:	dc26                	sw	s1,56(sp)
200003cc:	da4a                	sw	s2,52(sp)
200003ce:	d84e                	sw	s3,48(sp)
200003d0:	d652                	sw	s4,44(sp)
200003d2:	d456                	sw	s5,40(sp)
200003d4:	d25a                	sw	s6,36(sp)
200003d6:	d05e                	sw	s7,32(sp)
200003d8:	de06                	sw	ra,60(sp)
200003da:	ce62                	sw	s8,28(sp)
200003dc:	cc66                	sw	s9,24(sp)
200003de:	e000e7b7          	lui	a5,0xe000e
200003e2:	577d                	li	a4,-1
200003e4:	0007aa83          	lw	s5,0(a5) # e000e000 <_eusrstack+0xc0006000>
200003e8:	c622                	sw	s0,12(sp)
200003ea:	0047aa03          	lw	s4,4(a5)
200003ee:	18e7a023          	sw	a4,384(a5)
200003f2:	18e7a223          	sw	a4,388(a5)
200003f6:	400017b7          	lui	a5,0x40001
200003fa:	05700713          	li	a4,87
200003fe:	04e78023          	sb	a4,64(a5) # 40001040 <_eusrstack+0x1fff9040>
20000402:	fa800713          	li	a4,-88
20000406:	04e78023          	sb	a4,64(a5)
2000040a:	0447c783          	lbu	a5,68(a5)
2000040e:	ff750b93          	addi	s7,a0,-9
20000412:	84b6                	mv	s1,a3
20000414:	07e2                	slli	a5,a5,0x18
20000416:	0ffbfb93          	andi	s7,s7,255
2000041a:	4685                	li	a3,1
2000041c:	89aa                	mv	s3,a0
2000041e:	8b2e                	mv	s6,a1
20000420:	8932                	mv	s2,a2
20000422:	40002437          	lui	s0,0x40002
20000426:	87e1                	srai	a5,a5,0x18
20000428:	5701                	li	a4,-32
2000042a:	0176fa63          	bgeu	a3,s7,2000043e <FLASH_EEPROM_CMD+0x76>
2000042e:	00d50863          	beq	a0,a3,2000043e <FLASH_EEPROM_CMD+0x76>
20000432:	4689                	li	a3,2
20000434:	02000713          	li	a4,32
20000438:	00d51363          	bne	a0,a3,2000043e <FLASH_EEPROM_CMD+0x76>
2000043c:	5701                	li	a4,-32
2000043e:	8fd9                	or	a5,a5,a4
20000440:	0ff7f793          	andi	a5,a5,255
20000444:	40001cb7          	lui	s9,0x40001
20000448:	04fc8223          	sb	a5,68(s9) # 40001044 <_eusrstack+0x1fff9044>
2000044c:	4711                	li	a4,4
2000044e:	80e40323          	sb	a4,-2042(s0) # 40001806 <_eusrstack+0x1fff9806>
20000452:	0ff00513          	li	a0,255
20000456:	3d5d                	jal	2000030c <FLASH_ROM_BEG>
20000458:	4c09                	li	s8,2
2000045a:	35d1                	jal	2000031e <FLASH_ROM_END>
2000045c:	117c6d63          	bltu	s8,s7,20000576 <FLASH_EEPROM_CMD+0x1ae>
20000460:	000705b7          	lui	a1,0x70
20000464:	95da                	add	a1,a1,s6
20000466:	00078737          	lui	a4,0x78
2000046a:	5579                	li	a0,-2
2000046c:	04e5f263          	bgeu	a1,a4,200004b0 <FLASH_EEPROM_CMD+0xe8>
20000470:	009587b3          	add	a5,a1,s1
20000474:	02f76e63          	bltu	a4,a5,200004b0 <FLASH_EEPROM_CMD+0xe8>
20000478:	00080b37          	lui	s6,0x80
2000047c:	47a9                	li	a5,10
2000047e:	0165eb33          	or	s6,a1,s6
20000482:	06f99963          	bne	s3,a5,200004f4 <FLASH_EEPROM_CMD+0x12c>
20000486:	e489                	bnez	s1,20000490 <FLASH_EEPROM_CMD+0xc8>
20000488:	4481                	li	s1,0
2000048a:	3d51                	jal	2000031e <FLASH_ROM_END>
2000048c:	8526                	mv	a0,s1
2000048e:	a00d                	j	200004b0 <FLASH_EEPROM_CMD+0xe8>
20000490:	85da                	mv	a1,s6
20000492:	4509                	li	a0,2
20000494:	3d55                	jal	20000348 <FLASH_ROM_ADDR>
20000496:	0905                	addi	s2,s2,1
20000498:	fff94503          	lbu	a0,-1(s2)
2000049c:	14fd                	addi	s1,s1,-1
2000049e:	0b05                	addi	s6,s6,1
200004a0:	3d69                	jal	2000033a <FLASH_ROM_OUT>
200004a2:	c481                	beqz	s1,200004aa <FLASH_EEPROM_CMD+0xe2>
200004a4:	0ffb7793          	andi	a5,s6,255
200004a8:	f7fd                	bnez	a5,20000496 <FLASH_EEPROM_CMD+0xce>
200004aa:	35dd                	jal	20000390 <FLASH_ROM_WAIT>
200004ac:	fd69                	bnez	a0,20000486 <FLASH_EEPROM_CMD+0xbe>
200004ae:	557d                	li	a0,-1
200004b0:	400017b7          	lui	a5,0x40001
200004b4:	05700713          	li	a4,87
200004b8:	04e78023          	sb	a4,64(a5) # 40001040 <_eusrstack+0x1fff9040>
200004bc:	fa800713          	li	a4,-88
200004c0:	04e78023          	sb	a4,64(a5)
200004c4:	0447c703          	lbu	a4,68(a5)
200004c8:	8b41                	andi	a4,a4,16
200004ca:	04e78223          	sb	a4,68(a5)
200004ce:	50f2                	lw	ra,60(sp)
200004d0:	e000e7b7          	lui	a5,0xe000e
200004d4:	1157a023          	sw	s5,256(a5) # e000e100 <_eusrstack+0xc0006100>
200004d8:	1147a223          	sw	s4,260(a5)
200004dc:	54e2                	lw	s1,56(sp)
200004de:	4432                	lw	s0,12(sp)
200004e0:	5952                	lw	s2,52(sp)
200004e2:	59c2                	lw	s3,48(sp)
200004e4:	5a32                	lw	s4,44(sp)
200004e6:	5aa2                	lw	s5,40(sp)
200004e8:	5b12                	lw	s6,36(sp)
200004ea:	5b82                	lw	s7,32(sp)
200004ec:	4c72                	lw	s8,28(sp)
200004ee:	4ce2                	lw	s9,24(sp)
200004f0:	6121                	addi	sp,sp,64
200004f2:	8082                	ret
200004f4:	47a5                	li	a5,9
200004f6:	06f99563          	bne	s3,a5,20000560 <FLASH_EEPROM_CMD+0x198>
200004fa:	6985                	lui	s3,0x1
200004fc:	0ff00913          	li	s2,255
20000500:	009906b3          	add	a3,s2,s1
20000504:	012b74b3          	and	s1,s6,s2
20000508:	94b6                	add	s1,s1,a3
2000050a:	fff94913          	not	s2,s2
2000050e:	009974b3          	and	s1,s2,s1
20000512:	6b85                	lui	s7,0x1
20000514:	01697933          	and	s2,s2,s6
20000518:	6b41                	lui	s6,0x10
2000051a:	fff98793          	addi	a5,s3,-1 # fff <_einit+0xffb>
2000051e:	0127f7b3          	and	a5,a5,s2
20000522:	e399                	bnez	a5,20000528 <FLASH_EEPROM_CMD+0x160>
20000524:	0134fc63          	bgeu	s1,s3,2000053c <FLASH_EEPROM_CMD+0x174>
20000528:	0049d993          	srli	s3,s3,0x4
2000052c:	47c1                	li	a5,16
2000052e:	ff37e6e3          	bltu	a5,s3,2000051a <FLASH_EEPROM_CMD+0x152>
20000532:	bf99                	j	20000488 <FLASH_EEPROM_CMD+0xc0>
20000534:	6905                	lui	s2,0x1
20000536:	69c1                	lui	s3,0x10
20000538:	197d                	addi	s2,s2,-1
2000053a:	b7d9                	j	20000500 <FLASH_EEPROM_CMD+0x138>
2000053c:	0d800513          	li	a0,216
20000540:	01698863          	beq	s3,s6,20000550 <FLASH_EEPROM_CMD+0x188>
20000544:	02000513          	li	a0,32
20000548:	01798463          	beq	s3,s7,20000550 <FLASH_EEPROM_CMD+0x188>
2000054c:	08100513          	li	a0,129
20000550:	85ca                	mv	a1,s2
20000552:	3bdd                	jal	20000348 <FLASH_ROM_ADDR>
20000554:	3d35                	jal	20000390 <FLASH_ROM_WAIT>
20000556:	dd21                	beqz	a0,200004ae <FLASH_EEPROM_CMD+0xe6>
20000558:	994e                	add	s2,s2,s3
2000055a:	413484b3          	sub	s1,s1,s3
2000055e:	b7d9                	j	20000524 <FLASH_EEPROM_CMD+0x15c>
20000560:	85da                	mv	a1,s6
20000562:	452d                	li	a0,11
20000564:	33d5                	jal	20000348 <FLASH_ROM_ADDR>
20000566:	94ca                	add	s1,s1,s2
20000568:	f29900e3          	beq	s2,s1,20000488 <FLASH_EEPROM_CMD+0xc0>
2000056c:	0905                	addi	s2,s2,1
2000056e:	3b7d                	jal	2000032c <FLASH_ROM_IN>
20000570:	fea90fa3          	sb	a0,-1(s2) # fff <_einit+0xffb>
20000574:	bfd5                	j	20000568 <FLASH_EEPROM_CMD+0x1a0>
20000576:	fff98793          	addi	a5,s3,-1 # ffff <_data_lma+0x8713>
2000057a:	0ff7f793          	andi	a5,a5,255
2000057e:	0cfc6163          	bltu	s8,a5,20000640 <.loop402+0x7a>
20000582:	041cc783          	lbu	a5,65(s9)
20000586:	08300713          	li	a4,131
2000058a:	04f71f63          	bne	a4,a5,200005e8 <.loop402+0x22>
2000058e:	00080737          	lui	a4,0x80
20000592:	04eb6b63          	bltu	s6,a4,200005e8 <.loop402+0x22>
20000596:	009b07b3          	add	a5,s6,s1
2000059a:	001006b7          	lui	a3,0x100
2000059e:	04d7f563          	bgeu	a5,a3,200005e8 <.loop402+0x22>
200005a2:	00eb4b33          	xor	s6,s6,a4
200005a6:	4789                	li	a5,2
200005a8:	06f99363          	bne	s3,a5,2000060e <.loop402+0x48>
200005ac:	8089                	srli	s1,s1,0x2
200005ae:	49d5                	li	s3,21
200005b0:	ec048ce3          	beqz	s1,20000488 <FLASH_EEPROM_CMD+0xc0>
200005b4:	85da                	mv	a1,s6
200005b6:	4509                	li	a0,2
200005b8:	3b41                	jal	20000348 <FLASH_ROM_ADDR>
200005ba:	0911                	addi	s2,s2,4
200005bc:	ffc92703          	lw	a4,-4(s2)
200005c0:	4791                	li	a5,4
200005c2:	80e42023          	sw	a4,-2048(s0)

200005c6 <.loop402>:
200005c6:	80640703          	lb	a4,-2042(s0)
200005ca:	fe074ee3          	bltz	a4,200005c6 <.loop402>
200005ce:	81340323          	sb	s3,-2042(s0)
200005d2:	17fd                	addi	a5,a5,-1
200005d4:	fbed                	bnez	a5,200005c6 <.loop402>
200005d6:	14fd                	addi	s1,s1,-1
200005d8:	0b11                	addi	s6,s6,4
200005da:	c481                	beqz	s1,200005e2 <.loop402+0x1c>
200005dc:	0ffb7793          	andi	a5,s6,255
200005e0:	ffe9                	bnez	a5,200005ba <FLASH_EEPROM_CMD+0x1f2>
200005e2:	337d                	jal	20000390 <FLASH_ROM_WAIT>
200005e4:	f571                	bnez	a0,200005b0 <FLASH_EEPROM_CMD+0x1e8>
200005e6:	b5e1                	j	200004ae <FLASH_EEPROM_CMD+0xe6>
200005e8:	400017b7          	lui	a5,0x40001
200005ec:	0457c703          	lbu	a4,69(a5) # 40001045 <_eusrstack+0x1fff9045>
200005f0:	000807b7          	lui	a5,0x80
200005f4:	02077713          	andi	a4,a4,32
200005f8:	e319                	bnez	a4,200005fe <.loop402+0x38>
200005fa:	000787b7          	lui	a5,0x78
200005fe:	5579                	li	a0,-2
20000600:	eafb78e3          	bgeu	s6,a5,200004b0 <FLASH_EEPROM_CMD+0xe8>
20000604:	009b0733          	add	a4,s6,s1
20000608:	f8e7ffe3          	bgeu	a5,a4,200005a6 <FLASH_EEPROM_CMD+0x1de>
2000060c:	b555                	j	200004b0 <FLASH_EEPROM_CMD+0xe8>
2000060e:	4785                	li	a5,1
20000610:	f2f982e3          	beq	s3,a5,20000534 <FLASH_EEPROM_CMD+0x16c>
20000614:	85da                	mv	a1,s6
20000616:	452d                	li	a0,11
20000618:	3b05                	jal	20000348 <FLASH_ROM_ADDR>
2000061a:	fff48993          	addi	s3,s1,-1 # 7ffff <_data_lma+0x78713>
2000061e:	e60485e3          	beqz	s1,20000488 <FLASH_EEPROM_CMD+0xc0>
20000622:	3329                	jal	2000032c <FLASH_ROM_IN>
20000624:	0039f793          	andi	a5,s3,3
20000628:	eb91                	bnez	a5,2000063c <.loop402+0x76>
2000062a:	80042683          	lw	a3,-2048(s0)
2000062e:	00092703          	lw	a4,0(s2)
20000632:	00490793          	addi	a5,s2,4
20000636:	e4e69ae3          	bne	a3,a4,2000048a <FLASH_EEPROM_CMD+0xc2>
2000063a:	893e                	mv	s2,a5
2000063c:	84ce                	mv	s1,s3
2000063e:	bff1                	j	2000061a <.loop402+0x54>
20000640:	47b5                	li	a5,13
20000642:	00f99663          	bne	s3,a5,2000064e <.loop402+0x88>
20000646:	0b900513          	li	a0,185
2000064a:	31c9                	jal	2000030c <FLASH_ROM_BEG>
2000064c:	bd35                	j	20000488 <FLASH_EEPROM_CMD+0xc0>
2000064e:	47b1                	li	a5,12
20000650:	0ab00513          	li	a0,171
20000654:	fef98be3          	beq	s3,a5,2000064a <.loop402+0x84>
20000658:	4799                	li	a5,6
2000065a:	04f99163          	bne	s3,a5,2000069c <.loop402+0xd6>
2000065e:	000805b7          	lui	a1,0x80
20000662:	00bb65b3          	or	a1,s6,a1
20000666:	452d                	li	a0,11
20000668:	31c5                	jal	20000348 <FLASH_ROM_ADDR>
2000066a:	4481                	li	s1,0
2000066c:	4b8d                	li	s7,3
2000066e:	49a1                	li	s3,8
20000670:	3975                	jal	2000032c <FLASH_ROM_IN>
20000672:	01749663          	bne	s1,s7,2000067e <.loop402+0xb8>
20000676:	80042783          	lw	a5,-2048(s0)
2000067a:	00f92023          	sw	a5,0(s2)
2000067e:	0485                	addi	s1,s1,1
20000680:	ff3498e3          	bne	s1,s3,20000670 <.loop402+0xaa>
20000684:	80042783          	lw	a5,-2048(s0)
20000688:	012b1713          	slli	a4,s6,0x12
2000068c:	00075563          	bgez	a4,20000696 <.loop402+0xd0>
20000690:	00f91223          	sh	a5,4(s2)
20000694:	bbd5                	j	20000488 <FLASH_EEPROM_CMD+0xc0>
20000696:	00f92223          	sw	a5,4(s2)
2000069a:	b3fd                	j	20000488 <FLASH_EEPROM_CMD+0xc0>
2000069c:	479d                	li	a5,7
2000069e:	02f99963          	bne	s3,a5,200006d0 <.loop402+0x10a>
200006a2:	4581                	li	a1,0
200006a4:	04b00513          	li	a0,75
200006a8:	3145                	jal	20000348 <FLASH_ROM_ADDR>
200006aa:	44bd                	li	s1,15
200006ac:	00092023          	sw	zero,0(s2)
200006b0:	00092223          	sw	zero,4(s2)
200006b4:	59fd                	li	s3,-1
200006b6:	399d                	jal	2000032c <FLASH_ROM_IN>
200006b8:	0074f793          	andi	a5,s1,7
200006bc:	97ca                	add	a5,a5,s2
200006be:	0007c703          	lbu	a4,0(a5) # 78000 <_data_lma+0x70714>
200006c2:	14fd                	addi	s1,s1,-1
200006c4:	8d39                	xor	a0,a0,a4
200006c6:	00a78023          	sb	a0,0(a5)
200006ca:	ff3496e3          	bne	s1,s3,200006b6 <.loop402+0xf0>
200006ce:	bb6d                	j	20000488 <FLASH_EEPROM_CMD+0xc0>
200006d0:	47a1                	li	a5,8
200006d2:	04f99263          	bne	s3,a5,20000716 <.loop402+0x150>
200006d6:	396d                	jal	20000390 <FLASH_ROM_WAIT>
200006d8:	4481                	li	s1,0
200006da:	000b0d63          	beqz	s6,200006f4 <.loop402+0x12e>
200006de:	478d                	li	a5,3
200006e0:	03c00493          	li	s1,60
200006e4:	00fb0863          	beq	s6,a5,200006f4 <.loop402+0x12e>
200006e8:	05000493          	li	s1,80
200006ec:	018b0463          	beq	s6,s8,200006f4 <.loop402+0x12e>
200006f0:	04400493          	li	s1,68
200006f4:	07c57513          	andi	a0,a0,124
200006f8:	d89508e3          	beq	a0,s1,20000488 <FLASH_EEPROM_CMD+0xc0>
200006fc:	4519                	li	a0,6
200006fe:	3139                	jal	2000030c <FLASH_ROM_BEG>
20000700:	3939                	jal	2000031e <FLASH_ROM_END>
20000702:	4505                	li	a0,1
20000704:	3121                	jal	2000030c <FLASH_ROM_BEG>
20000706:	8526                	mv	a0,s1
20000708:	390d                	jal	2000033a <FLASH_ROM_OUT>
2000070a:	4509                	li	a0,2
2000070c:	313d                	jal	2000033a <FLASH_ROM_OUT>
2000070e:	3149                	jal	20000390 <FLASH_ROM_WAIT>
20000710:	d6051ce3          	bnez	a0,20000488 <FLASH_EEPROM_CMD+0xc0>
20000714:	bb69                	j	200004ae <FLASH_EEPROM_CMD+0xe6>
20000716:	4791                	li	a5,4
20000718:	00f99963          	bne	s3,a5,2000072a <.loop402+0x164>
2000071c:	06600513          	li	a0,102
20000720:	36f5                	jal	2000030c <FLASH_ROM_BEG>
20000722:	3ef5                	jal	2000031e <FLASH_ROM_END>
20000724:	09900513          	li	a0,153
20000728:	b70d                	j	2000064a <.loop402+0x84>
2000072a:	d4098fe3          	beqz	s3,20000488 <FLASH_EEPROM_CMD+0xc0>
2000072e:	54f1                	li	s1,-4
20000730:	bba9                	j	2000048a <FLASH_EEPROM_CMD+0xc2>

20000732 <tmos_memcpy>:
tmos_memcpy():
20000732:	cd19                	beqz	a0,20000750 <tmos_memcpy+0x1e>
20000734:	cd91                	beqz	a1,20000750 <tmos_memcpy+0x1e>
20000736:	ce09                	beqz	a2,20000750 <tmos_memcpy+0x1e>
20000738:	4781                	li	a5,0
2000073a:	00f58733          	add	a4,a1,a5
2000073e:	00074683          	lbu	a3,0(a4) # 80000 <_data_lma+0x78714>
20000742:	00f50733          	add	a4,a0,a5
20000746:	0785                	addi	a5,a5,1
20000748:	00d70023          	sb	a3,0(a4)
2000074c:	fec797e3          	bne	a5,a2,2000073a <tmos_memcpy+0x8>
20000750:	8082                	ret

20000752 <tmos_memcpy_word>:
tmos_memcpy_word():
20000752:	c919                	beqz	a0,20000768 <tmos_memcpy_word+0x16>
20000754:	c991                	beqz	a1,20000768 <tmos_memcpy_word+0x16>
20000756:	ca09                	beqz	a2,20000768 <tmos_memcpy_word+0x16>
20000758:	0591                	addi	a1,a1,4
2000075a:	ffc5a783          	lw	a5,-4(a1) # 7fffc <_data_lma+0x78710>
2000075e:	0511                	addi	a0,a0,4
20000760:	167d                	addi	a2,a2,-1
20000762:	fef52e23          	sw	a5,-4(a0)
20000766:	bfc5                	j	20000756 <tmos_memcpy_word+0x4>
20000768:	8082                	ret

2000076a <tmos_memset>:
tmos_memset():
2000076a:	c901                	beqz	a0,2000077a <tmos_memset+0x10>
2000076c:	c619                	beqz	a2,2000077a <tmos_memset+0x10>
2000076e:	962a                	add	a2,a2,a0
20000770:	0505                	addi	a0,a0,1
20000772:	feb50fa3          	sb	a1,-1(a0)
20000776:	fea61de3          	bne	a2,a0,20000770 <tmos_memset+0x6>
2000077a:	8082                	ret

2000077c <tmos_strlen>:
tmos_strlen():
2000077c:	4781                	li	a5,0
2000077e:	00f50733          	add	a4,a0,a5
20000782:	00070703          	lb	a4,0(a4)
20000786:	e319                	bnez	a4,2000078c <tmos_strlen+0x10>
20000788:	853e                	mv	a0,a5
2000078a:	8082                	ret
2000078c:	0785                	addi	a5,a5,1
2000078e:	bfc5                	j	2000077e <tmos_strlen+0x2>

20000790 <tmos_memdup>:
tmos_memdup():
20000790:	1101                	addi	sp,sp,-32
20000792:	862e                	mv	a2,a1
20000794:	ca26                	sw	s1,20(sp)
20000796:	84aa                	mv	s1,a0
20000798:	01061513          	slli	a0,a2,0x10
2000079c:	04f00593          	li	a1,79
200007a0:	8141                	srli	a0,a0,0x10
200007a2:	cc22                	sw	s0,24(sp)
200007a4:	ce06                	sw	ra,28(sp)
200007a6:	c632                	sw	a2,12(sp)
200007a8:	571000ef          	jal	ra,20001518 <tmos_memory_allocate>
200007ac:	842a                	mv	s0,a0
200007ae:	c501                	beqz	a0,200007b6 <tmos_memdup+0x26>
200007b0:	4632                	lw	a2,12(sp)
200007b2:	85a6                	mv	a1,s1
200007b4:	3fbd                	jal	20000732 <tmos_memcpy>
200007b6:	8522                	mv	a0,s0
200007b8:	40f2                	lw	ra,28(sp)
200007ba:	4462                	lw	s0,24(sp)
200007bc:	44d2                	lw	s1,20(sp)
200007be:	6105                	addi	sp,sp,32
200007c0:	8082                	ret

200007c2 <tmos_memcmp>:
tmos_memcmp():
200007c2:	4785                	li	a5,1
200007c4:	c115                	beqz	a0,200007e8 <tmos_memcmp+0x26>
200007c6:	c18d                	beqz	a1,200007e8 <tmos_memcmp+0x26>
200007c8:	c205                	beqz	a2,200007e8 <tmos_memcmp+0x26>
200007ca:	4781                	li	a5,0
200007cc:	00f506b3          	add	a3,a0,a5
200007d0:	00f58733          	add	a4,a1,a5
200007d4:	0006c683          	lbu	a3,0(a3) # 100000 <_data_lma+0xf8714>
200007d8:	00074703          	lbu	a4,0(a4)
200007dc:	00e69863          	bne	a3,a4,200007ec <tmos_memcmp+0x2a>
200007e0:	0785                	addi	a5,a5,1
200007e2:	fef615e3          	bne	a2,a5,200007cc <tmos_memcmp+0xa>
200007e6:	4785                	li	a5,1
200007e8:	853e                	mv	a0,a5
200007ea:	8082                	ret
200007ec:	4781                	li	a5,0
200007ee:	bfed                	j	200007e8 <tmos_memcmp+0x26>

200007f0 <tmos_revmemcpy>:
tmos_revmemcpy():
200007f0:	fff60793          	addi	a5,a2,-1
200007f4:	95be                	add	a1,a1,a5
200007f6:	962a                	add	a2,a2,a0
200007f8:	00c51363          	bne	a0,a2,200007fe <tmos_revmemcpy+0xe>
200007fc:	8082                	ret
200007fe:	15fd                	addi	a1,a1,-1
20000800:	0015c783          	lbu	a5,1(a1)
20000804:	0505                	addi	a0,a0,1
20000806:	fef50fa3          	sb	a5,-1(a0)
2000080a:	b7fd                	j	200007f8 <tmos_revmemcpy+0x8>

2000080c <tmos_isbufset>:
tmos_isbufset():
2000080c:	87aa                	mv	a5,a0
2000080e:	4501                	li	a0,0
20000810:	cf81                	beqz	a5,20000828 <tmos_isbufset+0x1c>
20000812:	ce09                	beqz	a2,2000082c <tmos_isbufset+0x20>
20000814:	963e                	add	a2,a2,a5
20000816:	0785                	addi	a5,a5,1
20000818:	fff7c703          	lbu	a4,-1(a5)
2000081c:	00b71763          	bne	a4,a1,2000082a <tmos_isbufset+0x1e>
20000820:	fef61be3          	bne	a2,a5,20000816 <tmos_isbufset+0xa>
20000824:	4505                	li	a0,1
20000826:	8082                	ret
20000828:	8082                	ret
2000082a:	4501                	li	a0,0
2000082c:	8082                	ret

2000082e <tmos_proces_system_time>:
tmos_proces_system_time():
2000082e:	7179                	addi	sp,sp,-48
20000830:	00003797          	auipc	a5,0x3
20000834:	9f878793          	addi	a5,a5,-1544 # 20003228 <taskHead>
20000838:	d422                	sw	s0,40(sp)
2000083a:	4380                	lw	s0,0(a5)
2000083c:	d606                	sw	ra,44(sp)
2000083e:	d226                	sw	s1,36(sp)
20000840:	d04a                	sw	s2,32(sp)
20000842:	ce4e                	sw	s3,28(sp)
20000844:	cc52                	sw	s4,24(sp)
20000846:	ca56                	sw	s5,20(sp)
20000848:	c85a                	sw	s6,16(sp)
2000084a:	c65e                	sw	s7,12(sp)
2000084c:	c462                	sw	s8,8(sp)
2000084e:	cc5d                	beqz	s0,2000090c <tmos_proces_system_time+0xde>
20000850:	01c9c937          	lui	s2,0x1c9c
20000854:	4b81                	li	s7,0
20000856:	00003a17          	auipc	s4,0x3
2000085a:	a1aa0a13          	addi	s4,s4,-1510 # 20003270 <fnGetClockCBs>
2000085e:	00003497          	auipc	s1,0x3
20000862:	9ce48493          	addi	s1,s1,-1586 # 2000322c <ble>
20000866:	37f90913          	addi	s2,s2,895 # 1c9c37f <_data_lma+0x1c94a93>
2000086a:	00003a97          	auipc	s5,0x3
2000086e:	96aa8a93          	addi	s5,s5,-1686 # 200031d4 <gTmosPara>
20000872:	a8c009b7          	lui	s3,0xa8c00
20000876:	57400b37          	lui	s6,0x57400
2000087a:	00245783          	lhu	a5,2(s0)
2000087e:	e395                	bnez	a5,200008a2 <tmos_proces_system_time+0x74>
20000880:	445c                	lw	a5,12(s0)
20000882:	000b9d63          	bnez	s7,2000089c <tmos_proces_system_time+0x6e>
20000886:	00003717          	auipc	a4,0x3
2000088a:	9af72123          	sw	a5,-1630(a4) # 20003228 <taskHead>
2000088e:	00c42c03          	lw	s8,12(s0)
20000892:	8522                	mv	a0,s0
20000894:	557000ef          	jal	ra,200015ea <tmos_memory_free>
20000898:	8462                	mv	s0,s8
2000089a:	a899                	j	200008f0 <tmos_proces_system_time+0xc2>
2000089c:	00fba623          	sw	a5,12(s7) # 100c <_einit+0x1008>
200008a0:	b7fd                	j	2000088e <tmos_proces_system_time+0x60>
200008a2:	000a2783          	lw	a5,0(s4)
200008a6:	9782                	jalr	a5
200008a8:	01648683          	lb	a3,22(s1)
200008ac:	441c                	lw	a5,8(s0)
200008ae:	0606db63          	bgez	a3,20000924 <tmos_proces_system_time+0xf6>
200008b2:	40f50733          	sub	a4,a0,a5
200008b6:	08e96763          	bltu	s2,a4,20000944 <tmos_proces_system_time+0x116>
200008ba:	00003797          	auipc	a5,0x3
200008be:	9207a523          	sw	zero,-1750(a5) # 200031e4 <gTmosPara+0x10>
200008c2:	00245583          	lhu	a1,2(s0)
200008c6:	00044503          	lbu	a0,0(s0)
200008ca:	e0002097          	auipc	ra,0xe0002
200008ce:	604080e7          	jalr	1540(ra) # 2ece <tmos_set_event>
200008d2:	405c                	lw	a5,4(s0)
200008d4:	4458                	lw	a4,12(s0)
200008d6:	cfa9                	beqz	a5,20000930 <tmos_proces_system_time+0x102>
200008d8:	4414                	lw	a3,8(s0)
200008da:	97b6                	add	a5,a5,a3
200008dc:	01648683          	lb	a3,22(s1)
200008e0:	0006c563          	bltz	a3,200008ea <tmos_proces_system_time+0xbc>
200008e4:	0137e363          	bltu	a5,s3,200008ea <tmos_proces_system_time+0xbc>
200008e8:	97da                	add	a5,a5,s6
200008ea:	c41c                	sw	a5,8(s0)
200008ec:	8ba2                	mv	s7,s0
200008ee:	843a                	mv	s0,a4
200008f0:	f449                	bnez	s0,2000087a <tmos_proces_system_time+0x4c>
200008f2:	00003797          	auipc	a5,0x3
200008f6:	8e278793          	addi	a5,a5,-1822 # 200031d4 <gTmosPara>
200008fa:	4b9c                	lw	a5,16(a5)
200008fc:	4709                	li	a4,2
200008fe:	06f77863          	bgeu	a4,a5,2000096e <tmos_proces_system_time+0x140>
20000902:	17f9                	addi	a5,a5,-2
20000904:	00003717          	auipc	a4,0x3
20000908:	8ef72023          	sw	a5,-1824(a4) # 200031e4 <gTmosPara+0x10>
2000090c:	50b2                	lw	ra,44(sp)
2000090e:	5422                	lw	s0,40(sp)
20000910:	5492                	lw	s1,36(sp)
20000912:	5902                	lw	s2,32(sp)
20000914:	49f2                	lw	s3,28(sp)
20000916:	4a62                	lw	s4,24(sp)
20000918:	4ad2                	lw	s5,20(sp)
2000091a:	4b42                	lw	s6,16(sp)
2000091c:	4bb2                	lw	s7,12(sp)
2000091e:	4c22                	lw	s8,8(sp)
20000920:	6145                	addi	sp,sp,48
20000922:	8082                	ret
20000924:	f8f577e3          	bgeu	a0,a5,200008b2 <tmos_proces_system_time+0x84>
20000928:	40f98733          	sub	a4,s3,a5
2000092c:	972a                	add	a4,a4,a0
2000092e:	b761                	j	200008b6 <tmos_proces_system_time+0x88>
20000930:	000b9763          	bnez	s7,2000093e <tmos_proces_system_time+0x110>
20000934:	00003797          	auipc	a5,0x3
20000938:	8ee7aa23          	sw	a4,-1804(a5) # 20003228 <taskHead>
2000093c:	bf89                	j	2000088e <tmos_proces_system_time+0x60>
2000093e:	00eba623          	sw	a4,12(s7)
20000942:	b7b1                	j	2000088e <tmos_proces_system_time+0x60>
20000944:	50d8                	lw	a4,36(s1)
20000946:	cf09                	beqz	a4,20000960 <tmos_proces_system_time+0x132>
20000948:	0006df63          	bgez	a3,20000966 <tmos_proces_system_time+0x138>
2000094c:	40a78533          	sub	a0,a5,a0
20000950:	010aa783          	lw	a5,16(s5)
20000954:	00f57663          	bgeu	a0,a5,20000960 <tmos_proces_system_time+0x132>
20000958:	00003797          	auipc	a5,0x3
2000095c:	88a7a623          	sw	a0,-1908(a5) # 200031e4 <gTmosPara+0x10>
20000960:	8ba2                	mv	s7,s0
20000962:	4440                	lw	s0,12(s0)
20000964:	b771                	j	200008f0 <tmos_proces_system_time+0xc2>
20000966:	fea7f3e3          	bgeu	a5,a0,2000094c <tmos_proces_system_time+0x11e>
2000096a:	97ce                	add	a5,a5,s3
2000096c:	b7c5                	j	2000094c <tmos_proces_system_time+0x11e>
2000096e:	00003797          	auipc	a5,0x3
20000972:	8607ab23          	sw	zero,-1930(a5) # 200031e4 <gTmosPara+0x10>
20000976:	bf59                	j	2000090c <tmos_proces_system_time+0xde>

20000978 <TMOS_SystemProcess>:
TMOS_SystemProcess():
20000978:	1141                	addi	sp,sp,-16
2000097a:	c422                	sw	s0,8(sp)
2000097c:	00003417          	auipc	s0,0x3
20000980:	88840413          	addi	s0,s0,-1912 # 20003204 <pfnProcessCBs>
20000984:	401c                	lw	a5,0(s0)
20000986:	c606                	sw	ra,12(sp)
20000988:	c226                	sw	s1,4(sp)
2000098a:	c04a                	sw	s2,0(sp)
2000098c:	c791                	beqz	a5,20000998 <TMOS_SystemProcess+0x20>
2000098e:	9782                	jalr	a5
20000990:	00003797          	auipc	a5,0x3
20000994:	8607aa23          	sw	zero,-1932(a5) # 20003204 <pfnProcessCBs>
20000998:	405c                	lw	a5,4(s0)
2000099a:	c391                	beqz	a5,2000099e <TMOS_SystemProcess+0x26>
2000099c:	9782                	jalr	a5
2000099e:	401c                	lw	a5,0(s0)
200009a0:	1c079063          	bnez	a5,20000b60 <TMOS_SystemProcess+0x1e8>
200009a4:	00003797          	auipc	a5,0x3
200009a8:	8e17c783          	lbu	a5,-1823(a5) # 20003285 <gBleIPPara+0x5>
200009ac:	8b85                	andi	a5,a5,1
200009ae:	c795                	beqz	a5,200009da <TMOS_SystemProcess+0x62>
200009b0:	00003797          	auipc	a5,0x3
200009b4:	8c078aa3          	sb	zero,-1835(a5) # 20003285 <gBleIPPara+0x5>
200009b8:	00003717          	auipc	a4,0x3
200009bc:	8cf74703          	lbu	a4,-1841(a4) # 20003287 <gBleIPPara+0x7>
200009c0:	4791                	li	a5,4
200009c2:	00e7fc63          	bgeu	a5,a4,200009da <TMOS_SystemProcess+0x62>
200009c6:	2e81                	jal	20000d16 <ll_rx_wait_finish>
200009c8:	00003797          	auipc	a5,0x3
200009cc:	8bf7c783          	lbu	a5,-1857(a5) # 20003287 <gBleIPPara+0x7>
200009d0:	17f9                	addi	a5,a5,-2
200009d2:	078a                	slli	a5,a5,0x2
200009d4:	97a2                	add	a5,a5,s0
200009d6:	439c                	lw	a5,0(a5)
200009d8:	9782                	jalr	a5
200009da:	00003917          	auipc	s2,0x3
200009de:	8e690913          	addi	s2,s2,-1818 # 200032c0 <rfInfo>
200009e2:	00c94783          	lbu	a5,12(s2)
200009e6:	8b91                	andi	a5,a5,4
200009e8:	c399                	beqz	a5,200009ee <TMOS_SystemProcess+0x76>
200009ea:	265000ef          	jal	ra,2000144e <RF_FrequencyHoppingChange>
200009ee:	441c                	lw	a5,8(s0)
200009f0:	c391                	beqz	a5,200009f4 <TMOS_SystemProcess+0x7c>
200009f2:	9782                	jalr	a5
200009f4:	00003497          	auipc	s1,0x3
200009f8:	83048493          	addi	s1,s1,-2000 # 20003224 <EventsArr>
200009fc:	4098                	lw	a4,0(s1)
200009fe:	00002617          	auipc	a2,0x2
20000a02:	7d764603          	lbu	a2,2007(a2) # 200031d5 <gTmosPara+0x1>
20000a06:	00002797          	auipc	a5,0x2
20000a0a:	7ce7c783          	lbu	a5,1998(a5) # 200031d4 <gTmosPara>
20000a0e:	00179693          	slli	a3,a5,0x1
20000a12:	96ba                	add	a3,a3,a4
20000a14:	0006d683          	lhu	a3,0(a3)
20000a18:	cad5                	beqz	a3,20000acc <TMOS_SystemProcess+0x154>
20000a1a:	00002797          	auipc	a5,0x2
20000a1e:	7ba7c783          	lbu	a5,1978(a5) # 200031d4 <gTmosPara>
20000a22:	0ac7ef63          	bltu	a5,a2,20000ae0 <TMOS_SystemProcess+0x168>
20000a26:	00002797          	auipc	a5,0x2
20000a2a:	7a078723          	sb	zero,1966(a5) # 200031d4 <gTmosPara>
20000a2e:	401c                	lw	a5,0(s0)
20000a30:	12079863          	bnez	a5,20000b60 <TMOS_SystemProcess+0x1e8>
20000a34:	00003797          	auipc	a5,0x3
20000a38:	8557c783          	lbu	a5,-1963(a5) # 20003289 <gBleIPPara+0x9>
20000a3c:	cf91                	beqz	a5,20000a58 <TMOS_SystemProcess+0xe0>
20000a3e:	00003797          	auipc	a5,0x3
20000a42:	8497c783          	lbu	a5,-1975(a5) # 20003287 <gBleIPPara+0x7>
20000a46:	eb89                	bnez	a5,20000a58 <TMOS_SystemProcess+0xe0>
20000a48:	00003797          	auipc	a5,0x3
20000a4c:	840780a3          	sb	zero,-1983(a5) # 20003289 <gBleIPPara+0x9>
20000a50:	e0003097          	auipc	ra,0xe0003
20000a54:	12a080e7          	jalr	298(ra) # 3b7a <ll_multi_states_process>
20000a58:	00003797          	auipc	a5,0x3
20000a5c:	81878793          	addi	a5,a5,-2024 # 20003270 <fnGetClockCBs>
20000a60:	439c                	lw	a5,0(a5)
20000a62:	0e078f63          	beqz	a5,20000b60 <TMOS_SystemProcess+0x1e8>
20000a66:	a8c007b7          	lui	a5,0xa8c00
20000a6a:	00002717          	auipc	a4,0x2
20000a6e:	76f72d23          	sw	a5,1914(a4) # 200031e4 <gTmosPara+0x10>
20000a72:	3b75                	jal	2000082e <tmos_proces_system_time>
20000a74:	00002797          	auipc	a5,0x2
20000a78:	7b878793          	addi	a5,a5,1976 # 2000322c <ble>
20000a7c:	53dc                	lw	a5,36(a5)
20000a7e:	c3ed                	beqz	a5,20000b60 <TMOS_SystemProcess+0x1e8>
20000a80:	00002717          	auipc	a4,0x2
20000a84:	75470713          	addi	a4,a4,1876 # 200031d4 <gTmosPara>
20000a88:	4b18                	lw	a4,16(a4)
20000a8a:	00002797          	auipc	a5,0x2
20000a8e:	7b77c783          	lbu	a5,1975(a5) # 20003241 <ble+0x15>
20000a92:	0cf76763          	bltu	a4,a5,20000b60 <TMOS_SystemProcess+0x1e8>
20000a96:	00002717          	auipc	a4,0x2
20000a9a:	7f174703          	lbu	a4,2033(a4) # 20003287 <gBleIPPara+0x7>
20000a9e:	4791                	li	a5,4
20000aa0:	0ce7e063          	bltu	a5,a4,20000b60 <TMOS_SystemProcess+0x1e8>
20000aa4:	00c94783          	lbu	a5,12(s2)
20000aa8:	8b91                	andi	a5,a5,4
20000aaa:	ebdd                	bnez	a5,20000b60 <TMOS_SystemProcess+0x1e8>
20000aac:	4090                	lw	a2,0(s1)
20000aae:	00002697          	auipc	a3,0x2
20000ab2:	7276c683          	lbu	a3,1831(a3) # 200031d5 <gTmosPara+0x1>
20000ab6:	0ad7cb63          	blt	a5,a3,20000b6c <TMOS_SystemProcess+0x1f4>
20000aba:	4422                	lw	s0,8(sp)
20000abc:	40b2                	lw	ra,12(sp)
20000abe:	4492                	lw	s1,4(sp)
20000ac0:	4902                	lw	s2,0(sp)
20000ac2:	0141                	addi	sp,sp,16
20000ac4:	e0002317          	auipc	t1,0xe0002
20000ac8:	2d830067          	jr	728(t1) # 2d9c <tmos_proces_sleep>
20000acc:	0785                	addi	a5,a5,1
20000ace:	0ff7f793          	andi	a5,a5,255
20000ad2:	00002697          	auipc	a3,0x2
20000ad6:	70f68123          	sb	a5,1794(a3) # 200031d4 <gTmosPara>
20000ada:	f2c7e6e3          	bltu	a5,a2,20000a06 <TMOS_SystemProcess+0x8e>
20000ade:	bf35                	j	20000a1a <TMOS_SystemProcess+0xa2>
20000ae0:	0786                	slli	a5,a5,0x1
20000ae2:	973e                	add	a4,a4,a5
20000ae4:	00075583          	lhu	a1,0(a4)
20000ae8:	00071023          	sh	zero,0(a4)
20000aec:	00002797          	auipc	a5,0x2
20000af0:	72079a23          	sh	zero,1844(a5) # 20003220 <eventsClear>
20000af4:	00002797          	auipc	a5,0x2
20000af8:	70c78793          	addi	a5,a5,1804 # 20003200 <tasksArr>
20000afc:	439c                	lw	a5,0(a5)
20000afe:	00002517          	auipc	a0,0x2
20000b02:	6d654503          	lbu	a0,1750(a0) # 200031d4 <gTmosPara>
20000b06:	00251713          	slli	a4,a0,0x2
20000b0a:	97ba                	add	a5,a5,a4
20000b0c:	439c                	lw	a5,0(a5)
20000b0e:	9782                	jalr	a5
20000b10:	00002797          	auipc	a5,0x2
20000b14:	7107d783          	lhu	a5,1808(a5) # 20003220 <eventsClear>
20000b18:	00002717          	auipc	a4,0x2
20000b1c:	6bc74703          	lbu	a4,1724(a4) # 200031d4 <gTmosPara>
20000b20:	fff7c793          	not	a5,a5
20000b24:	8d7d                	and	a0,a0,a5
20000b26:	00171793          	slli	a5,a4,0x1
20000b2a:	4098                	lw	a4,0(s1)
20000b2c:	973e                	add	a4,a4,a5
20000b2e:	00075783          	lhu	a5,0(a4)
20000b32:	8d5d                	or	a0,a0,a5
20000b34:	00a71023          	sh	a0,0(a4)
20000b38:	00002797          	auipc	a5,0x2
20000b3c:	69c7c783          	lbu	a5,1692(a5) # 200031d4 <gTmosPara>
20000b40:	c791                	beqz	a5,20000b4c <TMOS_SystemProcess+0x1d4>
20000b42:	0785                	addi	a5,a5,1
20000b44:	00002717          	auipc	a4,0x2
20000b48:	68f70823          	sb	a5,1680(a4) # 200031d4 <gTmosPara>
20000b4c:	00002717          	auipc	a4,0x2
20000b50:	68874703          	lbu	a4,1672(a4) # 200031d4 <gTmosPara>
20000b54:	00002797          	auipc	a5,0x2
20000b58:	6817c783          	lbu	a5,1665(a5) # 200031d5 <gTmosPara+0x1>
20000b5c:	ecf775e3          	bgeu	a4,a5,20000a26 <TMOS_SystemProcess+0xae>
20000b60:	40b2                	lw	ra,12(sp)
20000b62:	4422                	lw	s0,8(sp)
20000b64:	4492                	lw	s1,4(sp)
20000b66:	4902                	lw	s2,0(sp)
20000b68:	0141                	addi	sp,sp,16
20000b6a:	8082                	ret
20000b6c:	00179713          	slli	a4,a5,0x1
20000b70:	9732                	add	a4,a4,a2
20000b72:	00075703          	lhu	a4,0(a4)
20000b76:	f76d                	bnez	a4,20000b60 <TMOS_SystemProcess+0x1e8>
20000b78:	0785                	addi	a5,a5,1
20000b7a:	bf35                	j	20000ab6 <TMOS_SystemProcess+0x13e>

20000b7c <clockGetHSEValue>:
clockGetHSEValue():
20000b7c:	67ad                	lui	a5,0xb
20000b7e:	4000c737          	lui	a4,0x4000c
20000b82:	07bd                	addi	a5,a5,15
20000b84:	20f72623          	sw	a5,524(a4) # 4000c20c <_eusrstack+0x2000420c>
20000b88:	0000100f          	fence.i
20000b8c:	00002797          	auipc	a5,0x2
20000b90:	64878793          	addi	a5,a5,1608 # 200031d4 <gTmosPara>
20000b94:	4fc8                	lw	a0,28(a5)
20000b96:	26872783          	lw	a5,616(a4)
20000b9a:	66bd                	lui	a3,0xf
20000b9c:	06bd                	addi	a3,a3,15
20000b9e:	fff7c793          	not	a5,a5
20000ba2:	8399                	srli	a5,a5,0x6
20000ba4:	056a                	slli	a0,a0,0x1a
20000ba6:	20d72623          	sw	a3,524(a4)
20000baa:	8d5d                	or	a0,a0,a5
20000bac:	8082                	ret

20000bae <clockGetLSEValue>:
clockGetLSEValue():
20000bae:	1141                	addi	sp,sp,-16
20000bb0:	400017b7          	lui	a5,0x40001
20000bb4:	5f98                	lw	a4,56(a5)
20000bb6:	c63a                	sw	a4,12(sp)
20000bb8:	5f94                	lw	a3,56(a5)
20000bba:	4732                	lw	a4,12(sp)
20000bbc:	fee69ce3          	bne	a3,a4,20000bb4 <clockGetLSEValue+0x6>
20000bc0:	4532                	lw	a0,12(sp)
20000bc2:	0141                	addi	sp,sp,16
20000bc4:	8082                	ret

20000bc6 <TMOS_TimerIRQHandler>:
TMOS_TimerIRQHandler():
20000bc6:	8082                	ret

20000bc8 <BB_IRQLibHandler>:
BB_IRQLibHandler():
20000bc8:	715d                	addi	sp,sp,-80
20000bca:	d23a                	sw	a4,36(sp)
20000bcc:	00002717          	auipc	a4,0x2
20000bd0:	6ac70713          	addi	a4,a4,1708 # 20003278 <gptrBBReg>
20000bd4:	d436                	sw	a3,40(sp)
20000bd6:	4314                	lw	a3,0(a4)
20000bd8:	d03e                	sw	a5,32(sp)
20000bda:	de22                	sw	s0,60(sp)
20000bdc:	5e9c                	lw	a5,56(a3)
20000bde:	ca4a                	sw	s2,20(sp)
20000be0:	c686                	sw	ra,76(sp)
20000be2:	8399                	srli	a5,a5,0x6
20000be4:	c496                	sw	t0,72(sp)
20000be6:	c29a                	sw	t1,68(sp)
20000be8:	c09e                	sw	t2,64(sp)
20000bea:	dc26                	sw	s1,56(sp)
20000bec:	da2a                	sw	a0,52(sp)
20000bee:	d82e                	sw	a1,48(sp)
20000bf0:	d632                	sw	a2,44(sp)
20000bf2:	ce42                	sw	a6,28(sp)
20000bf4:	cc46                	sw	a7,24(sp)
20000bf6:	c872                	sw	t3,16(sp)
20000bf8:	c676                	sw	t4,12(sp)
20000bfa:	c47a                	sw	t5,8(sp)
20000bfc:	c27e                	sw	t6,4(sp)
20000bfe:	8b85                	andi	a5,a5,1
20000c00:	843a                	mv	s0,a4
20000c02:	00002917          	auipc	s2,0x2
20000c06:	67290913          	addi	s2,s2,1650 # 20003274 <gptrAESReg>
20000c0a:	cbd1                	beqz	a5,20000c9e <BB_IRQLibHandler+0xd6>
20000c0c:	5e9c                	lw	a5,56(a3)
20000c0e:	00002497          	auipc	s1,0x2
20000c12:	67248493          	addi	s1,s1,1650 # 20003280 <gBleIPPara>
20000c16:	f9f7f793          	andi	a5,a5,-97
20000c1a:	de9c                	sw	a5,56(a3)
20000c1c:	00002717          	auipc	a4,0x2
20000c20:	66a74703          	lbu	a4,1642(a4) # 20003286 <gBleIPPara+0x6>
20000c24:	08000793          	li	a5,128
20000c28:	00f71b63          	bne	a4,a5,20000c3e <BB_IRQLibHandler+0x76>
20000c2c:	00092783          	lw	a5,0(s2)
20000c30:	439c                	lw	a5,0(a5)
20000c32:	0407f793          	andi	a5,a5,64
20000c36:	00002717          	auipc	a4,0x2
20000c3a:	64f70823          	sb	a5,1616(a4) # 20003286 <gBleIPPara+0x6>
20000c3e:	0004c783          	lbu	a5,0(s1)
20000c42:	0407f793          	andi	a5,a5,64
20000c46:	c39d                	beqz	a5,20000c6c <BB_IRQLibHandler+0xa4>
20000c48:	00002797          	auipc	a5,0x2
20000c4c:	62878793          	addi	a5,a5,1576 # 20003270 <fnGetClockCBs>
20000c50:	439c                	lw	a5,0(a5)
20000c52:	9782                	jalr	a5
20000c54:	00002797          	auipc	a5,0x2
20000c58:	62a7ae23          	sw	a0,1596(a5) # 20003290 <gBleIPPara+0x10>
20000c5c:	0004c783          	lbu	a5,0(s1)
20000c60:	0bf7f793          	andi	a5,a5,191
20000c64:	00002717          	auipc	a4,0x2
20000c68:	60f70e23          	sb	a5,1564(a4) # 20003280 <gBleIPPara>
20000c6c:	0044c783          	lbu	a5,4(s1)
20000c70:	0407f793          	andi	a5,a5,64
20000c74:	e78d                	bnez	a5,20000c9e <BB_IRQLibHandler+0xd6>
20000c76:	4785                	li	a5,1
20000c78:	00002717          	auipc	a4,0x2
20000c7c:	60f706a3          	sb	a5,1549(a4) # 20003285 <gBleIPPara+0x5>
20000c80:	00002797          	auipc	a5,0x2
20000c84:	61c78793          	addi	a5,a5,1564 # 2000329c <gptrLLEReg>
20000c88:	439c                	lw	a5,0(a5)
20000c8a:	6709                	lui	a4,0x2
20000c8c:	c798                	sw	a4,8(a5)
20000c8e:	fc000713          	li	a4,-64
20000c92:	00002697          	auipc	a3,0x2
20000c96:	5ee68923          	sb	a4,1522(a3) # 20003284 <gBleIPPara+0x4>
20000c9a:	44d8                	lw	a4,12(s1)
20000c9c:	d3f8                	sw	a4,100(a5)
20000c9e:	401c                	lw	a5,0(s0)
20000ca0:	5f98                	lw	a4,56(a5)
20000ca2:	8311                	srli	a4,a4,0x4
20000ca4:	8b05                	andi	a4,a4,1
20000ca6:	cb09                	beqz	a4,20000cb8 <BB_IRQLibHandler+0xf0>
20000ca8:	5f98                	lw	a4,56(a5)
20000caa:	9b3d                	andi	a4,a4,-17
20000cac:	df98                	sw	a4,56(a5)
20000cae:	4705                	li	a4,1
20000cb0:	00002697          	auipc	a3,0x2
20000cb4:	5ce68a23          	sb	a4,1492(a3) # 20003284 <gBleIPPara+0x4>
20000cb8:	5f98                	lw	a4,56(a5)
20000cba:	831d                	srli	a4,a4,0x7
20000cbc:	8b05                	andi	a4,a4,1
20000cbe:	cb11                	beqz	a4,20000cd2 <BB_IRQLibHandler+0x10a>
20000cc0:	5f98                	lw	a4,56(a5)
20000cc2:	f7f77713          	andi	a4,a4,-129
20000cc6:	df98                	sw	a4,56(a5)
20000cc8:	4785                	li	a5,1
20000cca:	00002717          	auipc	a4,0x2
20000cce:	5af70d23          	sb	a5,1466(a4) # 20003284 <gBleIPPara+0x4>
20000cd2:	00092783          	lw	a5,0(s2)
20000cd6:	43d8                	lw	a4,4(a5)
20000cd8:	8305                	srli	a4,a4,0x1
20000cda:	8b05                	andi	a4,a4,1
20000cdc:	c719                	beqz	a4,20000cea <BB_IRQLibHandler+0x122>
20000cde:	43d8                	lw	a4,4(a5)
20000ce0:	9b75                	andi	a4,a4,-3
20000ce2:	c3d8                	sw	a4,4(a5)
20000ce4:	43d8                	lw	a4,4(a5)
20000ce6:	9b79                	andi	a4,a4,-2
20000ce8:	c3d8                	sw	a4,4(a5)
20000cea:	5472                	lw	s0,60(sp)
20000cec:	40b6                	lw	ra,76(sp)
20000cee:	42a6                	lw	t0,72(sp)
20000cf0:	4316                	lw	t1,68(sp)
20000cf2:	4386                	lw	t2,64(sp)
20000cf4:	54e2                	lw	s1,56(sp)
20000cf6:	5552                	lw	a0,52(sp)
20000cf8:	55c2                	lw	a1,48(sp)
20000cfa:	5632                	lw	a2,44(sp)
20000cfc:	56a2                	lw	a3,40(sp)
20000cfe:	5712                	lw	a4,36(sp)
20000d00:	5782                	lw	a5,32(sp)
20000d02:	4872                	lw	a6,28(sp)
20000d04:	48e2                	lw	a7,24(sp)
20000d06:	4952                	lw	s2,20(sp)
20000d08:	4e42                	lw	t3,16(sp)
20000d0a:	4eb2                	lw	t4,12(sp)
20000d0c:	4f22                	lw	t5,8(sp)
20000d0e:	4f92                	lw	t6,4(sp)
20000d10:	6161                	addi	sp,sp,80
20000d12:	30200073          	mret

20000d16 <ll_rx_wait_finish>:
ll_rx_wait_finish():
20000d16:	00002797          	auipc	a5,0x2
20000d1a:	58678793          	addi	a5,a5,1414 # 2000329c <gptrLLEReg>
20000d1e:	4394                	lw	a3,0(a5)
20000d20:	00002797          	auipc	a5,0x2
20000d24:	56078793          	addi	a5,a5,1376 # 20003280 <gBleIPPara>
20000d28:	0007c703          	lbu	a4,0(a5)
20000d2c:	8b05                	andi	a4,a4,1
20000d2e:	cb11                	beqz	a4,20000d42 <ll_rx_wait_finish+0x2c>
20000d30:	00002797          	auipc	a5,0x2
20000d34:	54078a23          	sb	zero,1364(a5) # 20003284 <gBleIPPara+0x4>
20000d38:	00002797          	auipc	a5,0x2
20000d3c:	540786a3          	sb	zero,1357(a5) # 20003285 <gBleIPPara+0x5>
20000d40:	8082                	ret
20000d42:	0017c703          	lbu	a4,1(a5)
20000d46:	8b05                	andi	a4,a4,1
20000d48:	f765                	bnez	a4,20000d30 <ll_rx_wait_finish+0x1a>
20000d4a:	52f8                	lw	a4,100(a3)
20000d4c:	ff71                	bnez	a4,20000d28 <ll_rx_wait_finish+0x12>
20000d4e:	0057c783          	lbu	a5,5(a5)
20000d52:	b7dd                	j	20000d38 <ll_rx_wait_finish+0x22>

20000d54 <ble_ll_chkcrc>:
ble_ll_chkcrc():
20000d54:	00002817          	auipc	a6,0x2
20000d58:	52480813          	addi	a6,a6,1316 # 20003278 <gptrBBReg>
20000d5c:	00082703          	lw	a4,0(a6)
20000d60:	5f1c                	lw	a5,56(a4)
20000d62:	8395                	srli	a5,a5,0x5
20000d64:	8b85                	andi	a5,a5,1
20000d66:	ebd5                	bnez	a5,20000e1a <ble_ll_chkcrc+0xc6>
20000d68:	c61d                	beqz	a2,20000d96 <ble_ll_chkcrc+0x42>
20000d6a:	00002797          	auipc	a5,0x2
20000d6e:	58e78793          	addi	a5,a5,1422 # 200032f8 <gBleLlPara>
20000d72:	04679883          	lh	a7,70(a5)
20000d76:	00060303          	lb	t1,0(a2)
20000d7a:	5b1c                	lw	a5,48(a4)
20000d7c:	83bd                	srli	a5,a5,0xf
20000d7e:	08030b63          	beqz	t1,20000e14 <ble_ll_chkcrc+0xc0>
20000d82:	1ff7f793          	andi	a5,a5,511
20000d86:	411787b3          	sub	a5,a5,a7
20000d8a:	979a                	add	a5,a5,t1
20000d8c:	4709                	li	a4,2
20000d8e:	02e7c7b3          	div	a5,a5,a4
20000d92:	00f60023          	sb	a5,0(a2)
20000d96:	ca85                	beqz	a3,20000dc6 <ble_ll_chkcrc+0x72>
20000d98:	00082783          	lw	a5,0(a6)
20000d9c:	5b98                	lw	a4,48(a5)
20000d9e:	0746                	slli	a4,a4,0x11
20000da0:	01675793          	srli	a5,a4,0x16
20000da4:	00075663          	bgez	a4,20000db0 <ble_ll_chkcrc+0x5c>
20000da8:	c007e793          	ori	a5,a5,-1024
20000dac:	07c2                	slli	a5,a5,0x10
20000dae:	83c1                	srli	a5,a5,0x10
20000db0:	00069703          	lh	a4,0(a3)
20000db4:	07c2                	slli	a5,a5,0x10
20000db6:	87c1                	srai	a5,a5,0x10
20000db8:	c709                	beqz	a4,20000dc2 <ble_ll_chkcrc+0x6e>
20000dba:	97ba                	add	a5,a5,a4
20000dbc:	4709                	li	a4,2
20000dbe:	02e7c7b3          	div	a5,a5,a4
20000dc2:	00f69023          	sh	a5,0(a3)
20000dc6:	c99d                	beqz	a1,20000dfc <ble_ll_chkcrc+0xa8>
20000dc8:	00154783          	lbu	a5,1(a0)
20000dcc:	cb85                	beqz	a5,20000dfc <ble_ll_chkcrc+0xa8>
20000dce:	00002697          	auipc	a3,0x2
20000dd2:	4b86c683          	lbu	a3,1208(a3) # 20003286 <gBleIPPara+0x6>
20000dd6:	0406f693          	andi	a3,a3,64
20000dda:	00978713          	addi	a4,a5,9
20000dde:	4791                	li	a5,4
20000de0:	ca85                	beqz	a3,20000e10 <ble_ll_chkcrc+0xbc>
20000de2:	953a                	add	a0,a0,a4
20000de4:	00054703          	lbu	a4,0(a0)
20000de8:	4685                	li	a3,1
20000dea:	06f77613          	andi	a2,a4,111
20000dee:	02d61163          	bne	a2,a3,20000e10 <ble_ll_chkcrc+0xbc>
20000df2:	0762                	slli	a4,a4,0x18
20000df4:	8761                	srai	a4,a4,0x18
20000df6:	47b1                	li	a5,12
20000df8:	00074c63          	bltz	a4,20000e10 <ble_ll_chkcrc+0xbc>
20000dfc:	00082783          	lw	a5,0(a6)
20000e00:	5f9c                	lw	a5,56(a5)
20000e02:	83ed                	srli	a5,a5,0x1b
20000e04:	8b8d                	andi	a5,a5,3
20000e06:	00002717          	auipc	a4,0x2
20000e0a:	48f702a3          	sb	a5,1157(a4) # 2000328b <gBleIPPara+0xb>
20000e0e:	4781                	li	a5,0
20000e10:	853e                	mv	a0,a5
20000e12:	8082                	ret
20000e14:	411787b3          	sub	a5,a5,a7
20000e18:	bfad                	j	20000d92 <ble_ll_chkcrc+0x3e>
20000e1a:	4789                	li	a5,2
20000e1c:	bfd5                	j	20000e10 <ble_ll_chkcrc+0xbc>

20000e1e <ll_tx_wait_finish>:
ll_tx_wait_finish():
20000e1e:	1141                	addi	sp,sp,-16
20000e20:	c422                	sw	s0,8(sp)
20000e22:	c606                	sw	ra,12(sp)
20000e24:	00002417          	auipc	s0,0x2
20000e28:	47840413          	addi	s0,s0,1144 # 2000329c <gptrLLEReg>
20000e2c:	4018                	lw	a4,0(s0)
20000e2e:	e949                	bnez	a0,20000ec0 <ll_tx_wait_finish+0xa2>
20000e30:	87ae                	mv	a5,a1
20000e32:	5374                	lw	a3,100(a4)
20000e34:	fefd                	bnez	a3,20000e32 <ll_tx_wait_finish+0x14>
20000e36:	853e                	mv	a0,a5
20000e38:	85b2                	mv	a1,a2
20000e3a:	00002797          	auipc	a5,0x2
20000e3e:	44078423          	sb	zero,1096(a5) # 20003282 <gBleIPPara+0x2>
20000e42:	e0003097          	auipc	ra,0xe0003
20000e46:	ad8080e7          	jalr	-1320(ra) # 391a <BLE_SetPHYTxMode>
20000e4a:	00002797          	auipc	a5,0x2
20000e4e:	42e78793          	addi	a5,a5,1070 # 20003278 <gptrBBReg>
20000e52:	439c                	lw	a5,0(a5)
20000e54:	008006b7          	lui	a3,0x800
20000e58:	4398                	lw	a4,0(a5)
20000e5a:	8f55                	or	a4,a4,a3
20000e5c:	c398                	sw	a4,0(a5)
20000e5e:	57d8                	lw	a4,44(a5)
20000e60:	9b71                	andi	a4,a4,-4
20000e62:	d7d8                	sw	a4,44(a5)
20000e64:	00002797          	auipc	a5,0x2
20000e68:	420780a3          	sb	zero,1057(a5) # 20003285 <gBleIPPara+0x5>
20000e6c:	00002797          	auipc	a5,0x2
20000e70:	40078aa3          	sb	zero,1045(a5) # 20003281 <gBleIPPara+0x1>
20000e74:	401c                	lw	a5,0(s0)
20000e76:	4709                	li	a4,2
20000e78:	c398                	sw	a4,0(a5)
20000e7a:	e000f7b7          	lui	a5,0xe000f
20000e7e:	d107a703          	lw	a4,-752(a5) # e000ed10 <_eusrstack+0xc0006d10>
20000e82:	9b6d                	andi	a4,a4,-5
20000e84:	d0e7a823          	sw	a4,-752(a5)
20000e88:	d107a703          	lw	a4,-752(a5)
20000e8c:	9b5d                	andi	a4,a4,-9
20000e8e:	d0e7a823          	sw	a4,-752(a5)
20000e92:	10500073          	wfi
20000e96:	4014                	lw	a3,0(s0)
20000e98:	00002717          	auipc	a4,0x2
20000e9c:	3e870713          	addi	a4,a4,1000 # 20003280 <gBleIPPara>
20000ea0:	00274783          	lbu	a5,2(a4)
20000ea4:	8b85                	andi	a5,a5,1
20000ea6:	eb89                	bnez	a5,20000eb8 <ll_tx_wait_finish+0x9a>
20000ea8:	00374783          	lbu	a5,3(a4)
20000eac:	8b85                	andi	a5,a5,1
20000eae:	c7d9                	beqz	a5,20000f3c <ll_tx_wait_finish+0x11e>
20000eb0:	00002797          	auipc	a5,0x2
20000eb4:	3c078a23          	sb	zero,980(a5) # 20003284 <gBleIPPara+0x4>
20000eb8:	40b2                	lw	ra,12(sp)
20000eba:	4422                	lw	s0,8(sp)
20000ebc:	0141                	addi	sp,sp,16
20000ebe:	8082                	ret
20000ec0:	478d                	li	a5,3
20000ec2:	02f51063          	bne	a0,a5,20000ee2 <ll_tx_wait_finish+0xc4>
20000ec6:	00002797          	auipc	a5,0x2
20000eca:	3b278793          	addi	a5,a5,946 # 20003278 <gptrBBReg>
20000ece:	439c                	lw	a5,0(a5)
20000ed0:	008006b7          	lui	a3,0x800
20000ed4:	4398                	lw	a4,0(a5)
20000ed6:	8f55                	or	a4,a4,a3
20000ed8:	c398                	sw	a4,0(a5)
20000eda:	57d8                	lw	a4,44(a5)
20000edc:	9b71                	andi	a4,a4,-4
20000ede:	d7d8                	sw	a4,44(a5)
20000ee0:	bf5d                	j	20000e96 <ll_tx_wait_finish+0x78>
20000ee2:	4785                	li	a5,1
20000ee4:	faf519e3          	bne	a0,a5,20000e96 <ll_tx_wait_finish+0x78>
20000ee8:	67b5                	lui	a5,0xd
20000eea:	07bd                	addi	a5,a5,15
20000eec:	c75c                	sw	a5,12(a4)
20000eee:	0000100f          	fence.i
20000ef2:	401c                	lw	a5,0(s0)
20000ef4:	6709                	lui	a4,0x2
20000ef6:	4609                	li	a2,2
20000ef8:	c798                	sw	a4,8(a5)
20000efa:	f8000713          	li	a4,-128
20000efe:	00002697          	auipc	a3,0x2
20000f02:	38e68323          	sb	a4,902(a3) # 20003284 <gBleIPPara+0x4>
20000f06:	00002717          	auipc	a4,0x2
20000f0a:	37270713          	addi	a4,a4,882 # 20003278 <gptrBBReg>
20000f0e:	4314                	lw	a3,0(a4)
20000f10:	4298                	lw	a4,0(a3)
20000f12:	8331                	srli	a4,a4,0xc
20000f14:	8b0d                	andi	a4,a4,3
20000f16:	00c71963          	bne	a4,a2,20000f28 <ll_tx_wait_finish+0x10a>
20000f1a:	43e00713          	li	a4,1086
20000f1e:	d3f8                	sw	a4,100(a5)
20000f20:	673d                	lui	a4,0xf
20000f22:	073d                	addi	a4,a4,15
20000f24:	c7d8                	sw	a4,12(a5)
20000f26:	bf85                	j	20000e96 <ll_tx_wait_finish+0x78>
20000f28:	4298                	lw	a4,0(a3)
20000f2a:	8331                	srli	a4,a4,0xc
20000f2c:	8b0d                	andi	a4,a4,3
20000f2e:	e701                	bnez	a4,20000f36 <ll_tx_wait_finish+0x118>
20000f30:	19600713          	li	a4,406
20000f34:	b7ed                	j	20000f1e <ll_tx_wait_finish+0x100>
20000f36:	1be00713          	li	a4,446
20000f3a:	b7d5                	j	20000f1e <ll_tx_wait_finish+0x100>
20000f3c:	52fc                	lw	a5,100(a3)
20000f3e:	f3ad                	bnez	a5,20000ea0 <ll_tx_wait_finish+0x82>
20000f40:	bfa5                	j	20000eb8 <ll_tx_wait_finish+0x9a>

20000f42 <BLE_CheckHoppingMap>:
BLE_CheckHoppingMap():
20000f42:	715d                	addi	sp,sp,-80
20000f44:	de4e                	sw	s3,60(sp)
20000f46:	00002997          	auipc	s3,0x2
20000f4a:	33298993          	addi	s3,s3,818 # 20003278 <gptrBBReg>
20000f4e:	0009a703          	lw	a4,0(s3)
20000f52:	c686                	sw	ra,76(sp)
20000f54:	c4a2                	sw	s0,72(sp)
20000f56:	c2a6                	sw	s1,68(sp)
20000f58:	c0ca                	sw	s2,64(sp)
20000f5a:	dc52                	sw	s4,56(sp)
20000f5c:	431c                	lw	a5,0(a4)
20000f5e:	00002917          	auipc	s2,0x2
20000f62:	38290913          	addi	s2,s2,898 # 200032e0 <gptrRFENDReg>
20000f66:	00002a17          	auipc	s4,0x2
20000f6a:	336a0a13          	addi	s4,s4,822 # 2000329c <gptrLLEReg>
20000f6e:	e7f7f793          	andi	a5,a5,-385
20000f72:	0807e793          	ori	a5,a5,128
20000f76:	c31c                	sw	a5,0(a4)
20000f78:	00092683          	lw	a3,0(s2)
20000f7c:	ffce0737          	lui	a4,0xffce0
20000f80:	177d                	addi	a4,a4,-1
20000f82:	469c                	lw	a5,8(a3)
20000f84:	02800613          	li	a2,40
20000f88:	842a                	mv	s0,a0
20000f8a:	8ff9                	and	a5,a5,a4
20000f8c:	c69c                	sw	a5,8(a3)
20000f8e:	000a2783          	lw	a5,0(s4)
20000f92:	08000713          	li	a4,128
20000f96:	0028                	addi	a0,sp,8
20000f98:	cbb8                	sw	a4,80(a5)
20000f9a:	84ae                	mv	s1,a1
20000f9c:	08100593          	li	a1,129
20000fa0:	fcaff0ef          	jal	ra,2000076a <tmos_memset>
20000fa4:	e0003097          	auipc	ra,0xe0003
20000fa8:	ba2080e7          	jalr	-1118(ra) # 3b46 <ll_multi_states_check>
20000fac:	e0003097          	auipc	ra,0xe0003
20000fb0:	c72080e7          	jalr	-910(ra) # 3c1e <ble_ll_hw_api_shut>
20000fb4:	0009a783          	lw	a5,0(s3)
20000fb8:	1ff47693          	andi	a3,s0,511
20000fbc:	fffc0eb7          	lui	t4,0xfffc0
20000fc0:	0007a423          	sw	zero,8(a5) # d008 <_data_lma+0x571c>
20000fc4:	4b98                	lw	a4,16(a5)
20000fc6:	f8100513          	li	a0,-127
20000fca:	85ce                	mv	a1,s3
20000fcc:	03f76713          	ori	a4,a4,63
20000fd0:	cb98                	sw	a4,16(a5)
20000fd2:	4ff8                	lw	a4,92(a5)
20000fd4:	884a                	mv	a6,s2
20000fd6:	00040fb7          	lui	t6,0x40
20000fda:	e0077713          	andi	a4,a4,-512
20000fde:	8f55                	or	a4,a4,a3
20000fe0:	cff8                	sw	a4,92(a5)
20000fe2:	4398                	lw	a4,0(a5)
20000fe4:	76f5                	lui	a3,0xffffd
20000fe6:	16fd                	addi	a3,a3,-1
20000fe8:	8f75                	and	a4,a4,a3
20000fea:	c398                	sw	a4,0(a5)
20000fec:	4398                	lw	a4,0(a5)
20000fee:	003306b7          	lui	a3,0x330
20000ff2:	4291                	li	t0,4
20000ff4:	e7f77713          	andi	a4,a4,-385
20000ff8:	c398                	sw	a4,0(a5)
20000ffa:	4398                	lw	a4,0(a5)
20000ffc:	1efd                	addi	t4,t4,-1
20000ffe:	4385                	li	t2,1
20001000:	e7f77713          	andi	a4,a4,-385
20001004:	10076713          	ori	a4,a4,256
20001008:	c398                	sw	a4,0(a5)
2000100a:	00092703          	lw	a4,0(s2)
2000100e:	02800f13          	li	t5,40
20001012:	471c                	lw	a5,8(a4)
20001014:	8fd5                	or	a5,a5,a3
20001016:	c71c                	sw	a5,8(a4)
20001018:	000a2783          	lw	a5,0(s4)
2000101c:	0d900713          	li	a4,217
20001020:	0034                	addi	a3,sp,8
20001022:	cbb8                	sw	a4,80(a5)
20001024:	4701                	li	a4,0
20001026:	00375893          	srli	a7,a4,0x3
2000102a:	98a6                	add	a7,a7,s1
2000102c:	0008c783          	lbu	a5,0(a7)
20001030:	00777613          	andi	a2,a4,7
20001034:	40c7d7b3          	sra	a5,a5,a2
20001038:	8b85                	andi	a5,a5,1
2000103a:	c7dd                	beqz	a5,200010e8 <BLE_CheckHoppingMap+0x1a6>
2000103c:	419c                	lw	a5,0(a1)
2000103e:	00082e03          	lw	t3,0(a6)
20001042:	04079c23          	sh	zero,88(a5)
20001046:	06079023          	sh	zero,96(a5)
2000104a:	02ce2303          	lw	t1,44(t3)
2000104e:	ffd37313          	andi	t1,t1,-3
20001052:	026e2623          	sw	t1,44(t3)
20001056:	0007ae03          	lw	t3,0(a5)
2000105a:	07f77313          	andi	t1,a4,127
2000105e:	f80e7e13          	andi	t3,t3,-128
20001062:	006e6333          	or	t1,t3,t1
20001066:	0067a023          	sw	t1,0(a5)
2000106a:	0247a303          	lw	t1,36(a5)
2000106e:	01f36333          	or	t1,t1,t6
20001072:	0267a223          	sw	t1,36(a5)
20001076:	4301                	li	t1,0
20001078:	0607de03          	lhu	t3,96(a5)
2000107c:	03c30763          	beq	t1,t3,200010aa <BLE_CheckHoppingMap+0x168>
20001080:	0307a303          	lw	t1,48(a5)
20001084:	00068e03          	lb	t3,0(a3) # 330000 <_data_lma+0x328714>
20001088:	00f35313          	srli	t1,t1,0xf
2000108c:	0362                	slli	t1,t1,0x18
2000108e:	41835313          	srai	t1,t1,0x18
20001092:	006e5863          	bge	t3,t1,200010a2 <BLE_CheckHoppingMap+0x160>
20001096:	0307a303          	lw	t1,48(a5)
2000109a:	00f35313          	srli	t1,t1,0xf
2000109e:	00668023          	sb	t1,0(a3)
200010a2:	0607d303          	lhu	t1,96(a5)
200010a6:	0ff37313          	andi	t1,t1,255
200010aa:	0587de03          	lhu	t3,88(a5)
200010ae:	fdc2f5e3          	bgeu	t0,t3,20001078 <BLE_CheckHoppingMap+0x136>
200010b2:	0247a303          	lw	t1,36(a5)
200010b6:	01d37333          	and	t1,t1,t4
200010ba:	0267a223          	sw	t1,36(a5)
200010be:	00068783          	lb	a5,0(a3)
200010c2:	00f45c63          	bge	s0,a5,200010da <BLE_CheckHoppingMap+0x198>
200010c6:	0008c303          	lbu	t1,0(a7)
200010ca:	00c39633          	sll	a2,t2,a2
200010ce:	fff64613          	not	a2,a2
200010d2:	00667633          	and	a2,a2,t1
200010d6:	00c88023          	sb	a2,0(a7)
200010da:	863e                	mv	a2,a5
200010dc:	00a7d363          	bge	a5,a0,200010e2 <BLE_CheckHoppingMap+0x1a0>
200010e0:	862a                	mv	a2,a0
200010e2:	01861513          	slli	a0,a2,0x18
200010e6:	8561                	srai	a0,a0,0x18
200010e8:	0705                	addi	a4,a4,1
200010ea:	0ff77713          	andi	a4,a4,255
200010ee:	0685                	addi	a3,a3,1
200010f0:	f3e71be3          	bne	a4,t5,20001026 <BLE_CheckHoppingMap+0xe4>
200010f4:	40b6                	lw	ra,76(sp)
200010f6:	4426                	lw	s0,72(sp)
200010f8:	4496                	lw	s1,68(sp)
200010fa:	4906                	lw	s2,64(sp)
200010fc:	59f2                	lw	s3,60(sp)
200010fe:	5a62                	lw	s4,56(sp)
20001100:	6161                	addi	sp,sp,80
20001102:	8082                	ret

20001104 <LLE_IRQLibHandler>:
LLE_IRQLibHandler():
20001104:	1101                	addi	sp,sp,-32
20001106:	c836                	sw	a3,16(sp)
20001108:	00002697          	auipc	a3,0x2
2000110c:	19468693          	addi	a3,a3,404 # 2000329c <gptrLLEReg>
20001110:	c43e                	sw	a5,8(sp)
20001112:	429c                	lw	a5,0(a3)
20001114:	c63a                	sw	a4,12(sp)
20001116:	ca32                	sw	a2,20(sp)
20001118:	47d8                	lw	a4,12(a5)
2000111a:	ce2a                	sw	a0,28(sp)
2000111c:	cc2e                	sw	a1,24(sp)
2000111e:	01171613          	slli	a2,a4,0x11
20001122:	02065563          	bgez	a2,2000114c <LLE_IRQLibHandler+0x48>
20001126:	4798                	lw	a4,8(a5)
20001128:	01171613          	slli	a2,a4,0x11
2000112c:	02065063          	bgez	a2,2000114c <LLE_IRQLibHandler+0x48>
20001130:	577d                	li	a4,-1
20001132:	d7b8                	sw	a4,104(a5)
20001134:	00002717          	auipc	a4,0x2
20001138:	0a070713          	addi	a4,a4,160 # 200031d4 <gTmosPara>
2000113c:	4f58                	lw	a4,28(a4)
2000113e:	0705                	addi	a4,a4,1
20001140:	00002617          	auipc	a2,0x2
20001144:	0ae62823          	sw	a4,176(a2) # 200031f0 <gTmosPara+0x1c>
20001148:	6711                	lui	a4,0x4
2000114a:	c798                	sw	a4,8(a5)
2000114c:	4798                	lw	a4,8(a5)
2000114e:	830d                	srli	a4,a4,0x3
20001150:	8b05                	andi	a4,a4,1
20001152:	c31d                	beqz	a4,20001178 <LLE_IRQLibHandler+0x74>
20001154:	00002717          	auipc	a4,0x2
20001158:	12e74703          	lbu	a4,302(a4) # 20003282 <gBleIPPara+0x2>
2000115c:	00176713          	ori	a4,a4,1
20001160:	00002617          	auipc	a2,0x2
20001164:	12e60123          	sb	a4,290(a2) # 20003282 <gBleIPPara+0x2>
20001168:	f8000713          	li	a4,-128
2000116c:	00002617          	auipc	a2,0x2
20001170:	10e60c23          	sb	a4,280(a2) # 20003284 <gBleIPPara+0x4>
20001174:	4721                	li	a4,8
20001176:	c798                	sw	a4,8(a5)
20001178:	4798                	lw	a4,8(a5)
2000117a:	8b05                	andi	a4,a4,1
2000117c:	cf09                	beqz	a4,20001196 <LLE_IRQLibHandler+0x92>
2000117e:	00002717          	auipc	a4,0x2
20001182:	10374703          	lbu	a4,259(a4) # 20003281 <gBleIPPara+0x1>
20001186:	00176713          	ori	a4,a4,1
2000118a:	00002617          	auipc	a2,0x2
2000118e:	0ee60ba3          	sb	a4,247(a2) # 20003281 <gBleIPPara+0x1>
20001192:	4705                	li	a4,1
20001194:	c798                	sw	a4,8(a5)
20001196:	4798                	lw	a4,8(a5)
20001198:	8309                	srli	a4,a4,0x2
2000119a:	8b05                	andi	a4,a4,1
2000119c:	e709                	bnez	a4,200011a6 <LLE_IRQLibHandler+0xa2>
2000119e:	4798                	lw	a4,8(a5)
200011a0:	8305                	srli	a4,a4,0x1
200011a2:	8b05                	andi	a4,a4,1
200011a4:	cf39                	beqz	a4,20001202 <LLE_IRQLibHandler+0xfe>
200011a6:	4798                	lw	a4,8(a5)
200011a8:	00002617          	auipc	a2,0x2
200011ac:	0d860613          	addi	a2,a2,216 # 20003280 <gBleIPPara>
200011b0:	00002517          	auipc	a0,0x2
200011b4:	0c850513          	addi	a0,a0,200 # 20003278 <gptrBBReg>
200011b8:	8309                	srli	a4,a4,0x2
200011ba:	8b05                	andi	a4,a4,1
200011bc:	10070c63          	beqz	a4,200012d4 <LLE_IRQLibHandler+0x1d0>
200011c0:	4118                	lw	a4,0(a0)
200011c2:	4318                	lw	a4,0(a4)
200011c4:	8331                	srli	a4,a4,0xc
200011c6:	8b0d                	andi	a4,a4,3
200011c8:	10071363          	bnez	a4,200012ce <LLE_IRQLibHandler+0x1ca>
200011cc:	4bac                	lw	a1,80(a5)
200011ce:	4e18                	lw	a4,24(a2)
200011d0:	0205f593          	andi	a1,a1,32
200011d4:	00174703          	lbu	a4,1(a4)
200011d8:	c5e9                	beqz	a1,200012a2 <LLE_IRQLibHandler+0x19e>
200011da:	e77d                	bnez	a4,200012c8 <LLE_IRQLibHandler+0x1c4>
200011dc:	06700713          	li	a4,103
200011e0:	cfd8                	sw	a4,28(a5)
200011e2:	00064703          	lbu	a4,0(a2)
200011e6:	00176713          	ori	a4,a4,1
200011ea:	00002617          	auipc	a2,0x2
200011ee:	08e60b23          	sb	a4,150(a2) # 20003280 <gBleIPPara>
200011f2:	4711                	li	a4,4
200011f4:	c798                	sw	a4,8(a5)
200011f6:	4118                	lw	a4,0(a0)
200011f8:	575c                	lw	a5,44(a4)
200011fa:	9bf1                	andi	a5,a5,-4
200011fc:	0017e793          	ori	a5,a5,1
20001200:	d75c                	sw	a5,44(a4)
20001202:	429c                	lw	a5,0(a3)
20001204:	4798                	lw	a4,8(a5)
20001206:	01371693          	slli	a3,a4,0x13
2000120a:	0206d663          	bgez	a3,20001236 <LLE_IRQLibHandler+0x132>
2000120e:	00002697          	auipc	a3,0x2
20001212:	15a6c683          	lbu	a3,346(a3) # 20003368 <gBleLlPara+0x70>
20001216:	8ac1                	andi	a3,a3,16
20001218:	00002717          	auipc	a4,0x2
2000121c:	0e070713          	addi	a4,a4,224 # 200032f8 <gBleLlPara>
20001220:	c6e1                	beqz	a3,200012e8 <LLE_IRQLibHandler+0x1e4>
20001222:	07074703          	lbu	a4,112(a4)
20001226:	02076713          	ori	a4,a4,32
2000122a:	00002697          	auipc	a3,0x2
2000122e:	12e68f23          	sb	a4,318(a3) # 20003368 <gBleLlPara+0x70>
20001232:	6705                	lui	a4,0x1
20001234:	c798                	sw	a4,8(a5)
20001236:	4798                	lw	a4,8(a5)
20001238:	01271693          	slli	a3,a4,0x12
2000123c:	0206d163          	bgez	a3,2000125e <LLE_IRQLibHandler+0x15a>
20001240:	00002717          	auipc	a4,0x2
20001244:	04474703          	lbu	a4,68(a4) # 20003284 <gBleIPPara+0x4>
20001248:	0762                	slli	a4,a4,0x18
2000124a:	8761                	srai	a4,a4,0x18
2000124c:	00075763          	bgez	a4,2000125a <LLE_IRQLibHandler+0x156>
20001250:	4705                	li	a4,1
20001252:	00002697          	auipc	a3,0x2
20001256:	02e68923          	sb	a4,50(a3) # 20003284 <gBleIPPara+0x4>
2000125a:	6709                	lui	a4,0x2
2000125c:	c798                	sw	a4,8(a5)
2000125e:	4798                	lw	a4,8(a5)
20001260:	01071693          	slli	a3,a4,0x10
20001264:	0206d663          	bgez	a3,20001290 <LLE_IRQLibHandler+0x18c>
20001268:	00002697          	auipc	a3,0x2
2000126c:	1016c683          	lbu	a3,257(a3) # 20003369 <gBleLlPara+0x71>
20001270:	8a85                	andi	a3,a3,1
20001272:	00002717          	auipc	a4,0x2
20001276:	08670713          	addi	a4,a4,134 # 200032f8 <gBleLlPara>
2000127a:	c6c9                	beqz	a3,20001304 <LLE_IRQLibHandler+0x200>
2000127c:	07174703          	lbu	a4,113(a4)
20001280:	00276713          	ori	a4,a4,2
20001284:	00002697          	auipc	a3,0x2
20001288:	0ee682a3          	sb	a4,229(a3) # 20003369 <gBleLlPara+0x71>
2000128c:	6721                	lui	a4,0x8
2000128e:	c798                	sw	a4,8(a5)
20001290:	4572                	lw	a0,28(sp)
20001292:	45e2                	lw	a1,24(sp)
20001294:	4652                	lw	a2,20(sp)
20001296:	46c2                	lw	a3,16(sp)
20001298:	4732                	lw	a4,12(sp)
2000129a:	47a2                	lw	a5,8(sp)
2000129c:	6105                	addi	sp,sp,32
2000129e:	30200073          	mret
200012a2:	df0d                	beqz	a4,200011dc <LLE_IRQLibHandler+0xd8>
200012a4:	4585                	li	a1,1
200012a6:	00b71563          	bne	a4,a1,200012b0 <LLE_IRQLibHandler+0x1ac>
200012aa:	06b00713          	li	a4,107
200012ae:	bf0d                	j	200011e0 <LLE_IRQLibHandler+0xdc>
200012b0:	4589                	li	a1,2
200012b2:	00b71563          	bne	a4,a1,200012bc <LLE_IRQLibHandler+0x1b8>
200012b6:	06f00713          	li	a4,111
200012ba:	b71d                	j	200011e0 <LLE_IRQLibHandler+0xdc>
200012bc:	458d                	li	a1,3
200012be:	00b71563          	bne	a4,a1,200012c8 <LLE_IRQLibHandler+0x1c4>
200012c2:	07300713          	li	a4,115
200012c6:	bf29                	j	200011e0 <LLE_IRQLibHandler+0xdc>
200012c8:	07500713          	li	a4,117
200012cc:	bf11                	j	200011e0 <LLE_IRQLibHandler+0xdc>
200012ce:	07600713          	li	a4,118
200012d2:	b739                	j	200011e0 <LLE_IRQLibHandler+0xdc>
200012d4:	00364703          	lbu	a4,3(a2)
200012d8:	00176713          	ori	a4,a4,1
200012dc:	00002617          	auipc	a2,0x2
200012e0:	fae603a3          	sb	a4,-89(a2) # 20003283 <gBleIPPara+0x3>
200012e4:	4709                	li	a4,2
200012e6:	b739                	j	200011f4 <LLE_IRQLibHandler+0xf0>
200012e8:	07074683          	lbu	a3,112(a4) # 8070 <_data_lma+0x784>
200012ec:	4609                	li	a2,2
200012ee:	8abd                	andi	a3,a3,15
200012f0:	00c68863          	beq	a3,a2,20001300 <LLE_IRQLibHandler+0x1fc>
200012f4:	07074703          	lbu	a4,112(a4)
200012f8:	468d                	li	a3,3
200012fa:	8b3d                	andi	a4,a4,15
200012fc:	f2d71be3          	bne	a4,a3,20001232 <LLE_IRQLibHandler+0x12e>
20001300:	4711                	li	a4,4
20001302:	b725                	j	2000122a <LLE_IRQLibHandler+0x126>
20001304:	07174683          	lbu	a3,113(a4)
20001308:	8a91                	andi	a3,a3,4
2000130a:	d2c9                	beqz	a3,2000128c <LLE_IRQLibHandler+0x188>
2000130c:	07174703          	lbu	a4,113(a4)
20001310:	00876713          	ori	a4,a4,8
20001314:	bf85                	j	20001284 <LLE_IRQLibHandler+0x180>

20001316 <RF_HopGetChannel>:
RF_HopGetChannel():
20001316:	00002717          	auipc	a4,0x2
2000131a:	f8a70713          	addi	a4,a4,-118 # 200032a0 <rfConfig>
2000131e:	01b74683          	lbu	a3,27(a4)
20001322:	00002797          	auipc	a5,0x2
20001326:	fab7c783          	lbu	a5,-85(a5) # 200032cd <rfInfo+0xd>
2000132a:	97b6                	add	a5,a5,a3
2000132c:	0ff7f793          	andi	a5,a5,255
20001330:	46fd                	li	a3,31
20001332:	04f6ea63          	bltu	a3,a5,20001386 <RF_HopGetChannel+0x70>
20001336:	4b4c                	lw	a1,20(a4)
20001338:	00002697          	auipc	a3,0x2
2000133c:	f6f684a3          	sb	a5,-151(a3) # 200032a1 <rfConfig+0x1>
20001340:	00002797          	auipc	a5,0x2
20001344:	f617c783          	lbu	a5,-159(a5) # 200032a1 <rfConfig+0x1>
20001348:	4705                	li	a4,1
2000134a:	00f71733          	sll	a4,a4,a5
2000134e:	00002697          	auipc	a3,0x2
20001352:	f6f68fa3          	sb	a5,-129(a3) # 200032cd <rfInfo+0xd>
20001356:	8f6d                	and	a4,a4,a1
20001358:	ef1d                	bnez	a4,20001396 <RF_HopGetChannel+0x80>
2000135a:	00002697          	auipc	a3,0x2
2000135e:	f776c683          	lbu	a3,-137(a3) # 200032d1 <rfInfo+0x11>
20001362:	02d7f6b3          	remu	a3,a5,a3
20001366:	02000513          	li	a0,32
2000136a:	4781                	li	a5,0
2000136c:	00f5d633          	srl	a2,a1,a5
20001370:	8a05                	andi	a2,a2,1
20001372:	0ff7f813          	andi	a6,a5,255
20001376:	ce09                	beqz	a2,20001390 <RF_HopGetChannel+0x7a>
20001378:	00e69963          	bne	a3,a4,2000138a <RF_HopGetChannel+0x74>
2000137c:	00002797          	auipc	a5,0x2
20001380:	f30782a3          	sb	a6,-219(a5) # 200032a1 <rfConfig+0x1>
20001384:	8082                	ret
20001386:	1781                	addi	a5,a5,-32
20001388:	b77d                	j	20001336 <RF_HopGetChannel+0x20>
2000138a:	0705                	addi	a4,a4,1
2000138c:	0ff77713          	andi	a4,a4,255
20001390:	0785                	addi	a5,a5,1
20001392:	fca79de3          	bne	a5,a0,2000136c <RF_HopGetChannel+0x56>
20001396:	8082                	ret

20001398 <RF_FrequencyHoppingGet>:
RF_FrequencyHoppingGet():
20001398:	00002797          	auipc	a5,0x2
2000139c:	ed878793          	addi	a5,a5,-296 # 20003270 <fnGetClockCBs>
200013a0:	439c                	lw	a5,0(a5)
200013a2:	1101                	addi	sp,sp,-32
200013a4:	cc22                	sw	s0,24(sp)
200013a6:	c64e                	sw	s3,12(sp)
200013a8:	ce06                	sw	ra,28(sp)
200013aa:	ca26                	sw	s1,20(sp)
200013ac:	c84a                	sw	s2,16(sp)
200013ae:	c452                	sw	s4,8(sp)
200013b0:	c256                	sw	s5,4(sp)
200013b2:	9782                	jalr	a5
200013b4:	00002797          	auipc	a5,0x2
200013b8:	f0c78793          	addi	a5,a5,-244 # 200032c0 <rfInfo>
200013bc:	4780                	lw	s0,8(a5)
200013be:	4981                	li	s3,0
200013c0:	06a40563          	beq	s0,a0,2000142a <RF_FrequencyHoppingGet+0x92>
200013c4:	84be                	mv	s1,a5
200013c6:	00002797          	auipc	a5,0x2
200013ca:	e6678793          	addi	a5,a5,-410 # 2000322c <ble>
200013ce:	01678703          	lb	a4,22(a5)
200013d2:	893e                	mv	s2,a5
200013d4:	06075563          	bgez	a4,2000143e <RF_FrequencyHoppingGet+0xa6>
200013d8:	8d01                	sub	a0,a0,s0
200013da:	00555413          	srli	s0,a0,0x5
200013de:	00002797          	auipc	a5,0x2
200013e2:	edc7c783          	lbu	a5,-292(a5) # 200032ba <rfConfig+0x1a>
200013e6:	01f57993          	andi	s3,a0,31
200013ea:	02f46d63          	bltu	s0,a5,20001424 <RF_FrequencyHoppingGet+0x8c>
200013ee:	a8c00a37          	lui	s4,0xa8c00
200013f2:	57400ab7          	lui	s5,0x57400
200013f6:	3705                	jal	20001316 <RF_HopGetChannel>
200013f8:	449c                	lw	a5,8(s1)
200013fa:	00002697          	auipc	a3,0x2
200013fe:	ec06c683          	lbu	a3,-320(a3) # 200032ba <rfConfig+0x1a>
20001402:	00569713          	slli	a4,a3,0x5
20001406:	973e                	add	a4,a4,a5
20001408:	01690783          	lb	a5,22(s2)
2000140c:	8c15                	sub	s0,s0,a3
2000140e:	0007c563          	bltz	a5,20001418 <RF_FrequencyHoppingGet+0x80>
20001412:	01476363          	bltu	a4,s4,20001418 <RF_FrequencyHoppingGet+0x80>
20001416:	9756                	add	a4,a4,s5
20001418:	00002797          	auipc	a5,0x2
2000141c:	eae7a823          	sw	a4,-336(a5) # 200032c8 <rfInfo+0x8>
20001420:	fcd47be3          	bgeu	s0,a3,200013f6 <RF_FrequencyHoppingGet+0x5e>
20001424:	0416                	slli	s0,s0,0x5
20001426:	013469b3          	or	s3,s0,s3
2000142a:	40f2                	lw	ra,28(sp)
2000142c:	4462                	lw	s0,24(sp)
2000142e:	854e                	mv	a0,s3
20001430:	44d2                	lw	s1,20(sp)
20001432:	4942                	lw	s2,16(sp)
20001434:	49b2                	lw	s3,12(sp)
20001436:	4a22                	lw	s4,8(sp)
20001438:	4a92                	lw	s5,4(sp)
2000143a:	6105                	addi	sp,sp,32
2000143c:	8082                	ret
2000143e:	f8857de3          	bgeu	a0,s0,200013d8 <RF_FrequencyHoppingGet+0x40>
20001442:	a8c007b7          	lui	a5,0xa8c00
20001446:	40878433          	sub	s0,a5,s0
2000144a:	9522                	add	a0,a0,s0
2000144c:	b779                	j	200013da <RF_FrequencyHoppingGet+0x42>

2000144e <RF_FrequencyHoppingChange>:
RF_FrequencyHoppingChange():
2000144e:	00002797          	auipc	a5,0x2
20001452:	e2278793          	addi	a5,a5,-478 # 20003270 <fnGetClockCBs>
20001456:	439c                	lw	a5,0(a5)
20001458:	1141                	addi	sp,sp,-16
2000145a:	c422                	sw	s0,8(sp)
2000145c:	c606                	sw	ra,12(sp)
2000145e:	c226                	sw	s1,4(sp)
20001460:	9782                	jalr	a5
20001462:	00002797          	auipc	a5,0x2
20001466:	e5e78793          	addi	a5,a5,-418 # 200032c0 <rfInfo>
2000146a:	4780                	lw	s0,8(a5)
2000146c:	06a40963          	beq	s0,a0,200014de <RF_FrequencyHoppingChange+0x90>
20001470:	84be                	mv	s1,a5
20001472:	00002797          	auipc	a5,0x2
20001476:	dba78793          	addi	a5,a5,-582 # 2000322c <ble>
2000147a:	01678783          	lb	a5,22(a5)
2000147e:	0407d863          	bgez	a5,200014ce <RF_FrequencyHoppingChange+0x80>
20001482:	8d01                	sub	a0,a0,s0
20001484:	00555413          	srli	s0,a0,0x5
20001488:	00002797          	auipc	a5,0x2
2000148c:	e327c783          	lbu	a5,-462(a5) # 200032ba <rfConfig+0x1a>
20001490:	04f46763          	bltu	s0,a5,200014de <RF_FrequencyHoppingChange+0x90>
20001494:	3549                	jal	20001316 <RF_HopGetChannel>
20001496:	4498                	lw	a4,8(s1)
20001498:	00002797          	auipc	a5,0x2
2000149c:	e227c783          	lbu	a5,-478(a5) # 200032ba <rfConfig+0x1a>
200014a0:	00579693          	slli	a3,a5,0x5
200014a4:	9736                	add	a4,a4,a3
200014a6:	8c1d                	sub	s0,s0,a5
200014a8:	00002697          	auipc	a3,0x2
200014ac:	e2e6a023          	sw	a4,-480(a3) # 200032c8 <rfInfo+0x8>
200014b0:	fef472e3          	bgeu	s0,a5,20001494 <RF_FrequencyHoppingChange+0x46>
200014b4:	4422                	lw	s0,8(sp)
200014b6:	40b2                	lw	ra,12(sp)
200014b8:	4492                	lw	s1,4(sp)
200014ba:	00002517          	auipc	a0,0x2
200014be:	de754503          	lbu	a0,-537(a0) # 200032a1 <rfConfig+0x1>
200014c2:	4581                	li	a1,0
200014c4:	0141                	addi	sp,sp,16
200014c6:	e0003317          	auipc	t1,0xe0003
200014ca:	97230067          	jr	-1678(t1) # 3e38 <RF_DevSetChannel>
200014ce:	fa857ae3          	bgeu	a0,s0,20001482 <RF_FrequencyHoppingChange+0x34>
200014d2:	a8c007b7          	lui	a5,0xa8c00
200014d6:	40878433          	sub	s0,a5,s0
200014da:	9522                	add	a0,a0,s0
200014dc:	b765                	j	20001484 <RF_FrequencyHoppingChange+0x36>
200014de:	40b2                	lw	ra,12(sp)
200014e0:	4422                	lw	s0,8(sp)
200014e2:	4492                	lw	s1,4(sp)
200014e4:	0141                	addi	sp,sp,16
200014e6:	8082                	ret

200014e8 <RFEND_WaitTune>:
RFEND_WaitTune():
200014e8:	00002797          	auipc	a5,0x2
200014ec:	df878793          	addi	a5,a5,-520 # 200032e0 <gptrRFENDReg>
200014f0:	4398                	lw	a4,0(a5)
200014f2:	000257b7          	lui	a5,0x25
200014f6:	9f078793          	addi	a5,a5,-1552 # 249f0 <_data_lma+0x1d104>
200014fa:	09072683          	lw	a3,144(a4)
200014fe:	00569613          	slli	a2,a3,0x5
20001502:	00065863          	bgez	a2,20001512 <RFEND_WaitTune+0x2a>
20001506:	09072683          	lw	a3,144(a4)
2000150a:	00669613          	slli	a2,a3,0x6
2000150e:	00064463          	bltz	a2,20001516 <RFEND_WaitTune+0x2e>
20001512:	17fd                	addi	a5,a5,-1
20001514:	f3fd                	bnez	a5,200014fa <RFEND_WaitTune+0x12>
20001516:	8082                	ret

20001518 <tmos_memory_allocate>:
tmos_memory_allocate():
20001518:	c571                	beqz	a0,200015e4 <tmos_memory_allocate+0xcc>
2000151a:	87aa                	mv	a5,a0
2000151c:	4501                	li	a0,0
2000151e:	c5e9                	beqz	a1,200015e8 <tmos_memory_allocate+0xd0>
20001520:	078d                	addi	a5,a5,3
20001522:	07c2                	slli	a5,a5,0x10
20001524:	83c1                	srli	a5,a5,0x10
20001526:	9bf1                	andi	a5,a5,-4
20001528:	07c2                	slli	a5,a5,0x10
2000152a:	83c1                	srli	a5,a5,0x10
2000152c:	03400713          	li	a4,52
20001530:	02f76f63          	bltu	a4,a5,2000156e <tmos_memory_allocate+0x56>
20001534:	00002717          	auipc	a4,0x2
20001538:	dbc70713          	addi	a4,a4,-580 # 200032f0 <MemCtlStart>
2000153c:	4308                	lw	a0,0(a4)
2000153e:	00002717          	auipc	a4,0x2
20001542:	daa70713          	addi	a4,a4,-598 # 200032e8 <MemCtlEnd>
20001546:	4314                	lw	a3,0(a4)
20001548:	02a69863          	bne	a3,a0,20001578 <tmos_memory_allocate+0x60>
2000154c:	00002717          	auipc	a4,0x2
20001550:	ce070713          	addi	a4,a4,-800 # 2000322c <ble>
20001554:	5b18                	lw	a4,48(a4)
20001556:	4501                	li	a0,0
20001558:	cb41                	beqz	a4,200015e8 <tmos_memory_allocate+0xd0>
2000155a:	1141                	addi	sp,sp,-16
2000155c:	07c2                	slli	a5,a5,0x10
2000155e:	c606                	sw	ra,12(sp)
20001560:	4505                	li	a0,1
20001562:	8ddd                	or	a1,a1,a5
20001564:	9702                	jalr	a4
20001566:	40b2                	lw	ra,12(sp)
20001568:	4501                	li	a0,0
2000156a:	0141                	addi	sp,sp,16
2000156c:	8082                	ret
2000156e:	00002717          	auipc	a4,0x2
20001572:	d7e70713          	addi	a4,a4,-642 # 200032ec <MemCtlPartition>
20001576:	b7d9                	j	2000153c <tmos_memory_allocate+0x24>
20001578:	00655703          	lhu	a4,6(a0)
2000157c:	e335                	bnez	a4,200015e0 <tmos_memory_allocate+0xc8>
2000157e:	00455703          	lhu	a4,4(a0)
20001582:	04f76f63          	bltu	a4,a5,200015e0 <tmos_memory_allocate+0xc8>
20001586:	40f706b3          	sub	a3,a4,a5
2000158a:	4621                	li	a2,8
2000158c:	02d67c63          	bgeu	a2,a3,200015c4 <tmos_memory_allocate+0xac>
20001590:	00052803          	lw	a6,0(a0)
20001594:	00878693          	addi	a3,a5,8
20001598:	8f1d                	sub	a4,a4,a5
2000159a:	96aa                	add	a3,a3,a0
2000159c:	1761                	addi	a4,a4,-8
2000159e:	00002617          	auipc	a2,0x2
200015a2:	c3c65603          	lhu	a2,-964(a2) # 200031da <gTmosPara+0x6>
200015a6:	00e69223          	sh	a4,4(a3)
200015aa:	0106a023          	sw	a6,0(a3)
200015ae:	00069323          	sh	zero,6(a3)
200015b2:	c114                	sw	a3,0(a0)
200015b4:	00f51223          	sh	a5,4(a0)
200015b8:	ff860713          	addi	a4,a2,-8
200015bc:	00002697          	auipc	a3,0x2
200015c0:	c0e69f23          	sh	a4,-994(a3) # 200031da <gTmosPara+0x6>
200015c4:	00b51323          	sh	a1,6(a0)
200015c8:	00002597          	auipc	a1,0x2
200015cc:	c125d583          	lhu	a1,-1006(a1) # 200031da <gTmosPara+0x6>
200015d0:	40f587b3          	sub	a5,a1,a5
200015d4:	00002717          	auipc	a4,0x2
200015d8:	c0f71323          	sh	a5,-1018(a4) # 200031da <gTmosPara+0x6>
200015dc:	0521                	addi	a0,a0,8
200015de:	8082                	ret
200015e0:	4108                	lw	a0,0(a0)
200015e2:	b79d                	j	20001548 <tmos_memory_allocate+0x30>
200015e4:	4501                	li	a0,0
200015e6:	8082                	ret
200015e8:	8082                	ret

200015ea <tmos_memory_free>:
tmos_memory_free():
200015ea:	c10d                	beqz	a0,2000160c <tmos_memory_free+0x22>
200015ec:	00002797          	auipc	a5,0x2
200015f0:	d0478793          	addi	a5,a5,-764 # 200032f0 <MemCtlStart>
200015f4:	0007a303          	lw	t1,0(a5)
200015f8:	00002797          	auipc	a5,0x2
200015fc:	cf078793          	addi	a5,a5,-784 # 200032e8 <MemCtlEnd>
20001600:	0007a883          	lw	a7,0(a5)
20001604:	4681                	li	a3,0
20001606:	879a                	mv	a5,t1
20001608:	0117e363          	bltu	a5,a7,2000160e <tmos_memory_free+0x24>
2000160c:	8082                	ret
2000160e:	0007a803          	lw	a6,0(a5)
20001612:	0af56d63          	bltu	a0,a5,200016cc <tmos_memory_free+0xe2>
20001616:	0aa86b63          	bltu	a6,a0,200016cc <tmos_memory_free+0xe2>
2000161a:	00878713          	addi	a4,a5,8
2000161e:	fee567e3          	bltu	a0,a4,2000160c <tmos_memory_free+0x22>
20001622:	0067d603          	lhu	a2,6(a5)
20001626:	6721                	lui	a4,0x8
20001628:	0705                	addi	a4,a4,1
2000162a:	00e61763          	bne	a2,a4,20001638 <tmos_memory_free+0x4e>
2000162e:	8141c703          	lbu	a4,-2028(gp) # 2000174c <l2capNumRecvDataPkts>
20001632:	0705                	addi	a4,a4,1
20001634:	80e18a23          	sb	a4,-2028(gp) # 2000174c <l2capNumRecvDataPkts>
20001638:	00002597          	auipc	a1,0x2
2000163c:	b9c58593          	addi	a1,a1,-1124 # 200031d4 <gTmosPara>
20001640:	0047d603          	lhu	a2,4(a5)
20001644:	0065d703          	lhu	a4,6(a1)
20001648:	00079323          	sh	zero,6(a5)
2000164c:	9732                	add	a4,a4,a2
2000164e:	0742                	slli	a4,a4,0x10
20001650:	8341                	srli	a4,a4,0x10
20001652:	00002517          	auipc	a0,0x2
20001656:	b8e51423          	sh	a4,-1144(a0) # 200031da <gTmosPara+0x6>
2000165a:	02678a63          	beq	a5,t1,2000168e <tmos_memory_free+0xa4>
2000165e:	00002517          	auipc	a0,0x2
20001662:	c8e50513          	addi	a0,a0,-882 # 200032ec <MemCtlPartition>
20001666:	4108                	lw	a0,0(a0)
20001668:	02f50363          	beq	a0,a5,2000168e <tmos_memory_free+0xa4>
2000166c:	0066d503          	lhu	a0,6(a3)
20001670:	ed19                	bnez	a0,2000168e <tmos_memory_free+0xa4>
20001672:	0046d783          	lhu	a5,4(a3)
20001676:	0106a023          	sw	a6,0(a3)
2000167a:	0721                	addi	a4,a4,8
2000167c:	963e                	add	a2,a2,a5
2000167e:	0621                	addi	a2,a2,8
20001680:	00c69223          	sh	a2,4(a3)
20001684:	00002797          	auipc	a5,0x2
20001688:	b4e79b23          	sh	a4,-1194(a5) # 200031da <gTmosPara+0x6>
2000168c:	87b6                	mv	a5,a3
2000168e:	4398                	lw	a4,0(a5)
20001690:	f7170ee3          	beq	a4,a7,2000160c <tmos_memory_free+0x22>
20001694:	00002697          	auipc	a3,0x2
20001698:	c5868693          	addi	a3,a3,-936 # 200032ec <MemCtlPartition>
2000169c:	4294                	lw	a3,0(a3)
2000169e:	f6d707e3          	beq	a4,a3,2000160c <tmos_memory_free+0x22>
200016a2:	00675683          	lhu	a3,6(a4) # 8006 <_data_lma+0x71a>
200016a6:	f2bd                	bnez	a3,2000160c <tmos_memory_free+0x22>
200016a8:	0047d683          	lhu	a3,4(a5)
200016ac:	00475603          	lhu	a2,4(a4)
200016b0:	4318                	lw	a4,0(a4)
200016b2:	06a1                	addi	a3,a3,8
200016b4:	96b2                	add	a3,a3,a2
200016b6:	00d79223          	sh	a3,4(a5)
200016ba:	c398                	sw	a4,0(a5)
200016bc:	0065d783          	lhu	a5,6(a1)
200016c0:	07a1                	addi	a5,a5,8
200016c2:	00002717          	auipc	a4,0x2
200016c6:	b0f71c23          	sh	a5,-1256(a4) # 200031da <gTmosPara+0x6>
200016ca:	8082                	ret
200016cc:	86be                	mv	a3,a5
200016ce:	87c2                	mv	a5,a6
200016d0:	bf25                	j	20001608 <tmos_memory_free+0x1e>
	...

Disassembly of section .text:

000016d8 <handle_reset>:
handle_reset():
E:\Project\tp78\mounriver_project\RF_CH582M\obj/../Startup/startup_CH583.S:125
	.weak	handle_reset
	.align	1
handle_reset:
.option push 
.option	norelax 
	la gp, __global_pointer$
    16d8:	20001197          	auipc	gp,0x20001
    16dc:	86018193          	addi	gp,gp,-1952 # 20001f38 <__global_pointer$>
E:\Project\tp78\mounriver_project\RF_CH582M\obj/../Startup/startup_CH583.S:128
.option	pop 
1:
	la sp, _eusrstack 
    16e0:	20007117          	auipc	sp,0x20007
    16e4:	92010113          	addi	sp,sp,-1760 # 20008000 <_eusrstack>
E:\Project\tp78\mounriver_project\RF_CH582M\obj/../Startup/startup_CH583.S:132

/* Load highcode code  section from flash to RAM */
2:
    la a0, _highcode_lma
    16e8:	00400513          	li	a0,4
E:\Project\tp78\mounriver_project\RF_CH582M\obj/../Startup/startup_CH583.S:133
    la a1, _highcode_vma_start
    16ec:	1ffff597          	auipc	a1,0x1ffff
    16f0:	91458593          	addi	a1,a1,-1772 # 20000000 <_highcode_vma_start>
E:\Project\tp78\mounriver_project\RF_CH582M\obj/../Startup/startup_CH583.S:134
    la a2, _highcode_vma_end
    16f4:	20000617          	auipc	a2,0x20000
    16f8:	fe060613          	addi	a2,a2,-32 # 200016d4 <_highcode_vma_end>
E:\Project\tp78\mounriver_project\RF_CH582M\obj/../Startup/startup_CH583.S:135
    bgeu a1, a2, 2f
    16fc:	00c5fa63          	bgeu	a1,a2,1710 <handle_reset+0x38>
E:\Project\tp78\mounriver_project\RF_CH582M\obj/../Startup/startup_CH583.S:137
1:
    lw t0, (a0)
    1700:	00052283          	lw	t0,0(a0)
E:\Project\tp78\mounriver_project\RF_CH582M\obj/../Startup/startup_CH583.S:138
    sw t0, (a1)
    1704:	0055a023          	sw	t0,0(a1)
E:\Project\tp78\mounriver_project\RF_CH582M\obj/../Startup/startup_CH583.S:139
    addi a0, a0, 4
    1708:	0511                	addi	a0,a0,4
E:\Project\tp78\mounriver_project\RF_CH582M\obj/../Startup/startup_CH583.S:140
    addi a1, a1, 4
    170a:	0591                	addi	a1,a1,4
E:\Project\tp78\mounriver_project\RF_CH582M\obj/../Startup/startup_CH583.S:141
    bltu a1, a2, 1b
    170c:	fec5eae3          	bltu	a1,a2,1700 <handle_reset+0x28>
E:\Project\tp78\mounriver_project\RF_CH582M\obj/../Startup/startup_CH583.S:145

/* Load data section from flash to RAM */
2:
	la a0, _data_lma
    1710:	00006517          	auipc	a0,0x6
    1714:	1dc50513          	addi	a0,a0,476 # 78ec <_data_lma>
E:\Project\tp78\mounriver_project\RF_CH582M\obj/../Startup/startup_CH583.S:146
	la a1, _data_vma
    1718:	20000597          	auipc	a1,0x20000
    171c:	fbc58593          	addi	a1,a1,-68 # 200016d4 <_highcode_vma_end>
E:\Project\tp78\mounriver_project\RF_CH582M\obj/../Startup/startup_CH583.S:147
	la a2, _edata
    1720:	81018613          	addi	a2,gp,-2032 # 20001748 <_edata>
E:\Project\tp78\mounriver_project\RF_CH582M\obj/../Startup/startup_CH583.S:148
	bgeu a1, a2, 2f
    1724:	00c5fa63          	bgeu	a1,a2,1738 <handle_reset+0x60>
E:\Project\tp78\mounriver_project\RF_CH582M\obj/../Startup/startup_CH583.S:150
1:
	lw t0, (a0)
    1728:	00052283          	lw	t0,0(a0)
E:\Project\tp78\mounriver_project\RF_CH582M\obj/../Startup/startup_CH583.S:151
	sw t0, (a1)
    172c:	0055a023          	sw	t0,0(a1)
E:\Project\tp78\mounriver_project\RF_CH582M\obj/../Startup/startup_CH583.S:152
	addi a0, a0, 4
    1730:	0511                	addi	a0,a0,4
E:\Project\tp78\mounriver_project\RF_CH582M\obj/../Startup/startup_CH583.S:153
	addi a1, a1, 4
    1732:	0591                	addi	a1,a1,4
E:\Project\tp78\mounriver_project\RF_CH582M\obj/../Startup/startup_CH583.S:154
	bltu a1, a2, 1b
    1734:	fec5eae3          	bltu	a1,a2,1728 <handle_reset+0x50>
E:\Project\tp78\mounriver_project\RF_CH582M\obj/../Startup/startup_CH583.S:157
2:
	/* clear bss section */
	la a0, _sbss
    1738:	81018513          	addi	a0,gp,-2032 # 20001748 <_edata>
E:\Project\tp78\mounriver_project\RF_CH582M\obj/../Startup/startup_CH583.S:158
	la a1, _ebss
    173c:	20002597          	auipc	a1,0x20002
    1740:	cd858593          	addi	a1,a1,-808 # 20003414 <_ebss>
E:\Project\tp78\mounriver_project\RF_CH582M\obj/../Startup/startup_CH583.S:159
	bgeu a0, a1, 2f
    1744:	00b57763          	bgeu	a0,a1,1752 <handle_reset+0x7a>
E:\Project\tp78\mounriver_project\RF_CH582M\obj/../Startup/startup_CH583.S:161
1:
	sw zero, (a0)
    1748:	00052023          	sw	zero,0(a0)
E:\Project\tp78\mounriver_project\RF_CH582M\obj/../Startup/startup_CH583.S:162
	addi a0, a0, 4
    174c:	0511                	addi	a0,a0,4
E:\Project\tp78\mounriver_project\RF_CH582M\obj/../Startup/startup_CH583.S:163
	bltu a0, a1, 1b
    174e:	feb56de3          	bltu	a0,a1,1748 <handle_reset+0x70>
E:\Project\tp78\mounriver_project\RF_CH582M\obj/../Startup/startup_CH583.S:166
2:
	/* 流水线控制位 & 动态预测控制位 */
	li t0, 0x1f
    1752:	42fd                	li	t0,31
E:\Project\tp78\mounriver_project\RF_CH582M\obj/../Startup/startup_CH583.S:167
	csrw 0xbc0, t0
    1754:	bc029073          	csrw	0xbc0,t0
E:\Project\tp78\mounriver_project\RF_CH582M\obj/../Startup/startup_CH583.S:169
	/* 打开嵌套中断、硬件压栈功能 */
	li t0, 0x3
    1758:	428d                	li	t0,3
E:\Project\tp78\mounriver_project\RF_CH582M\obj/../Startup/startup_CH583.S:170
	csrw 0x804, t0
    175a:	80429073          	csrw	0x804,t0
E:\Project\tp78\mounriver_project\RF_CH582M\obj/../Startup/startup_CH583.S:172
	
    li t0, 0x88
    175e:	08800293          	li	t0,136
E:\Project\tp78\mounriver_project\RF_CH582M\obj/../Startup/startup_CH583.S:173
    csrs mstatus, t0
    1762:	3002a073          	csrs	mstatus,t0
E:\Project\tp78\mounriver_project\RF_CH582M\obj/../Startup/startup_CH583.S:174
	la t0, _vector_base
    1766:	1ffff297          	auipc	t0,0x1ffff
    176a:	89a28293          	addi	t0,t0,-1894 # 20000000 <_highcode_vma_start>
E:\Project\tp78\mounriver_project\RF_CH582M\obj/../Startup/startup_CH583.S:177

	/* 配置向量表模式为绝对地址模式 */
    ori t0, t0, 3
    176e:	0032e293          	ori	t0,t0,3
E:\Project\tp78\mounriver_project\RF_CH582M\obj/../Startup/startup_CH583.S:178
	csrw mtvec, t0
    1772:	30529073          	csrw	mtvec,t0
E:\Project\tp78\mounriver_project\RF_CH582M\obj/../Startup/startup_CH583.S:180

	la t0, main
    1776:	00001297          	auipc	t0,0x1
    177a:	3f628293          	addi	t0,t0,1014 # 2b6c <main>
E:\Project\tp78\mounriver_project\RF_CH582M\obj/../Startup/startup_CH583.S:181
	csrw mepc, t0
    177e:	34129073          	csrw	mepc,t0
E:\Project\tp78\mounriver_project\RF_CH582M\obj/../Startup/startup_CH583.S:184
	
	
	mret
    1782:	30200073          	mret

00001786 <memset>:
memset():
    1786:	433d                	li	t1,15
    1788:	872a                	mv	a4,a0
    178a:	02c37363          	bgeu	t1,a2,17b0 <memset+0x2a>
    178e:	00f77793          	andi	a5,a4,15
    1792:	efbd                	bnez	a5,1810 <memset+0x8a>
    1794:	e5ad                	bnez	a1,17fe <memset+0x78>
    1796:	ff067693          	andi	a3,a2,-16
    179a:	8a3d                	andi	a2,a2,15
    179c:	96ba                	add	a3,a3,a4
    179e:	c30c                	sw	a1,0(a4)
    17a0:	c34c                	sw	a1,4(a4)
    17a2:	c70c                	sw	a1,8(a4)
    17a4:	c74c                	sw	a1,12(a4)
    17a6:	0741                	addi	a4,a4,16
    17a8:	fed76be3          	bltu	a4,a3,179e <memset+0x18>
    17ac:	e211                	bnez	a2,17b0 <memset+0x2a>
    17ae:	8082                	ret
    17b0:	40c306b3          	sub	a3,t1,a2
    17b4:	068a                	slli	a3,a3,0x2
    17b6:	00000297          	auipc	t0,0x0
    17ba:	9696                	add	a3,a3,t0
    17bc:	00a68067          	jr	10(a3)
    17c0:	00b70723          	sb	a1,14(a4)
    17c4:	00b706a3          	sb	a1,13(a4)
    17c8:	00b70623          	sb	a1,12(a4)
    17cc:	00b705a3          	sb	a1,11(a4)
    17d0:	00b70523          	sb	a1,10(a4)
    17d4:	00b704a3          	sb	a1,9(a4)
    17d8:	00b70423          	sb	a1,8(a4)
    17dc:	00b703a3          	sb	a1,7(a4)
    17e0:	00b70323          	sb	a1,6(a4)
    17e4:	00b702a3          	sb	a1,5(a4)
    17e8:	00b70223          	sb	a1,4(a4)
    17ec:	00b701a3          	sb	a1,3(a4)
    17f0:	00b70123          	sb	a1,2(a4)
    17f4:	00b700a3          	sb	a1,1(a4)
    17f8:	00b70023          	sb	a1,0(a4)
    17fc:	8082                	ret
    17fe:	0ff5f593          	andi	a1,a1,255
    1802:	00859693          	slli	a3,a1,0x8
    1806:	8dd5                	or	a1,a1,a3
    1808:	01059693          	slli	a3,a1,0x10
    180c:	8dd5                	or	a1,a1,a3
    180e:	b761                	j	1796 <memset+0x10>
    1810:	00279693          	slli	a3,a5,0x2
    1814:	00000297          	auipc	t0,0x0
    1818:	9696                	add	a3,a3,t0
    181a:	8286                	mv	t0,ra
    181c:	fa8680e7          	jalr	-88(a3)
    1820:	8096                	mv	ra,t0
    1822:	17c1                	addi	a5,a5,-16
    1824:	8f1d                	sub	a4,a4,a5
    1826:	963e                	add	a2,a2,a5
    1828:	f8c374e3          	bgeu	t1,a2,17b0 <memset+0x2a>
    182c:	b7a5                	j	1794 <memset+0xe>

0000182e <ADC_InterTSSampInit>:
ADC_InterTSSampInit():
E:\Project\tp78\mounriver_project\RF_CH582M\obj/../StdPeriphDriver/CH58x_adc.c:94
 *
 * @return  none
 */
void ADC_InterTSSampInit(void)
{
    R8_TKEY_CFG &= ~RB_TKEY_PWR_ON;
    182e:	400017b7          	lui	a5,0x40001
    1832:	0577c703          	lbu	a4,87(a5) # 40001057 <_eusrstack+0x1fff9057>
    1836:	0fe77713          	andi	a4,a4,254
    183a:	04e78ba3          	sb	a4,87(a5)
E:\Project\tp78\mounriver_project\RF_CH582M\obj/../StdPeriphDriver/CH58x_adc.c:95
    R8_TEM_SENSOR = RB_TEM_SEN_PWR_ON;
    183e:	f8000713          	li	a4,-128
    1842:	04e78da3          	sb	a4,91(a5)
E:\Project\tp78\mounriver_project\RF_CH582M\obj/../StdPeriphDriver/CH58x_adc.c:96
    R8_ADC_CHANNEL = CH_INTE_VTEMP;
    1846:	473d                	li	a4,15
    1848:	04e78c23          	sb	a4,88(a5)
E:\Project\tp78\mounriver_project\RF_CH582M\obj/../StdPeriphDriver/CH58x_adc.c:97
    R8_ADC_CFG = RB_ADC_POWER_ON | RB_ADC_DIFF_EN | (3 << 4);
    184c:	03500713          	li	a4,53
    1850:	04e78ca3          	sb	a4,89(a5)
E:\Project\tp78\mounriver_project\RF_CH582M\obj/../StdPeriphDriver/CH58x_adc.c:98
}
    1854:	8082                	ret

00001856 <Calibration_LSI>:
Calibration_LSI():
E:\Project\tp78\mounriver_project\RF_CH582M\obj/../StdPeriphDriver/CH58x_clk.c:142
 *                              Level_128 -   用时 4.2ms 600ppm  (32M 主频)  800ppm  (60M 主频)
 *
 * @return  none
 */
void Calibration_LSI(Cali_LevelTypeDef cali_Lv)
{
    1856:	1141                	addi	sp,sp,-16
    1858:	c422                	sw	s0,8(sp)
    185a:	c606                	sw	ra,12(sp)
    185c:	842a                	mv	s0,a0
E:\Project\tp78\mounriver_project\RF_CH582M\obj/../StdPeriphDriver/CH58x_clk.c:148
    UINT32 i;
    INT32  cnt_offset;
    UINT8  retry = 0;
    INT32  freq_sys;

    freq_sys = GetSysClock();
    185e:	29c9                	jal	1d30 <GetSysClock>
E:\Project\tp78\mounriver_project\RF_CH582M\obj/../StdPeriphDriver/CH58x_clk.c:149
    R8_SAFE_ACCESS_SIG = SAFE_ACCESS_SIG1;
    1860:	40001737          	lui	a4,0x40001
    1864:	05700693          	li	a3,87
    1868:	04d70023          	sb	a3,64(a4) # 40001040 <_eusrstack+0x1fff9040>
E:\Project\tp78\mounriver_project\RF_CH582M\obj/../StdPeriphDriver/CH58x_clk.c:150
    R8_SAFE_ACCESS_SIG = SAFE_ACCESS_SIG2;
    186c:	fa800793          	li	a5,-88
    1870:	04f70023          	sb	a5,64(a4)
E:\Project\tp78\mounriver_project\RF_CH582M\obj/../StdPeriphDriver/CH58x_clk.c:151
    SAFEOPERATE;
    1874:	0001                	nop
    1876:	0001                	nop
E:\Project\tp78\mounriver_project\RF_CH582M\obj/../StdPeriphDriver/CH58x_clk.c:152
    R8_CK32K_CONFIG |= RB_CLK_OSC32K_FILT;
    1878:	02f74603          	lbu	a2,47(a4)
    187c:	00866613          	ori	a2,a2,8
    1880:	02c707a3          	sb	a2,47(a4)
E:\Project\tp78\mounriver_project\RF_CH582M\obj/../StdPeriphDriver/CH58x_clk.c:153
    R8_CK32K_CONFIG &= ~RB_CLK_OSC32K_FILT;
    1884:	02f74603          	lbu	a2,47(a4)
    1888:	0f767613          	andi	a2,a2,247
    188c:	02c707a3          	sb	a2,47(a4)
E:\Project\tp78\mounriver_project\RF_CH582M\obj/../StdPeriphDriver/CH58x_clk.c:154
    R8_XT32K_TUNE &= ~3;
    1890:	02e74603          	lbu	a2,46(a4)
    1894:	0fc67613          	andi	a2,a2,252
    1898:	02c70723          	sb	a2,46(a4)
E:\Project\tp78\mounriver_project\RF_CH582M\obj/../StdPeriphDriver/CH58x_clk.c:155
    R8_XT32K_TUNE |= 1;
    189c:	02e74603          	lbu	a2,46(a4)
    18a0:	00166613          	ori	a2,a2,1
    18a4:	02c70723          	sb	a2,46(a4)
E:\Project\tp78\mounriver_project\RF_CH582M\obj/../StdPeriphDriver/CH58x_clk.c:158

    // 粗调
    R8_SAFE_ACCESS_SIG = SAFE_ACCESS_SIG1;
    18a8:	04d70023          	sb	a3,64(a4)
E:\Project\tp78\mounriver_project\RF_CH582M\obj/../StdPeriphDriver/CH58x_clk.c:159
    R8_SAFE_ACCESS_SIG = SAFE_ACCESS_SIG2;
    18ac:	04f70023          	sb	a5,64(a4)
E:\Project\tp78\mounriver_project\RF_CH582M\obj/../StdPeriphDriver/CH58x_clk.c:160
    SAFEOPERATE;
    18b0:	0001                	nop
    18b2:	0001                	nop
E:\Project\tp78\mounriver_project\RF_CH582M\obj/../StdPeriphDriver/CH58x_clk.c:161
    R8_OSC_CAL_CTRL &= ~RB_OSC_CNT_TOTAL;
    18b4:	05374603          	lbu	a2,83(a4)
    18b8:	0f867613          	andi	a2,a2,248
    18bc:	04c709a3          	sb	a2,83(a4)
E:\Project\tp78\mounriver_project\RF_CH582M\obj/../StdPeriphDriver/CH58x_clk.c:162
    R8_OSC_CAL_CTRL |= 1;
    18c0:	05374603          	lbu	a2,83(a4)
    18c4:	00166613          	ori	a2,a2,1
    18c8:	04c709a3          	sb	a2,83(a4)
E:\Project\tp78\mounriver_project\RF_CH582M\obj/../StdPeriphDriver/CH58x_clk.c:163
    R8_SAFE_ACCESS_SIG = SAFE_ACCESS_SIG1;
    18cc:	04d70023          	sb	a3,64(a4)
E:\Project\tp78\mounriver_project\RF_CH582M\obj/../StdPeriphDriver/CH58x_clk.c:164
    R8_SAFE_ACCESS_SIG = SAFE_ACCESS_SIG2;
    18d0:	04f70023          	sb	a5,64(a4)
E:\Project\tp78\mounriver_project\RF_CH582M\obj/../StdPeriphDriver/CH58x_clk.c:165
    SAFEOPERATE;
    18d4:	0001                	nop
    18d6:	0001                	nop
E:\Project\tp78\mounriver_project\RF_CH582M\obj/../StdPeriphDriver/CH58x_clk.c:166
    R8_OSC_CAL_CTRL |= RB_OSC_CNT_EN;
    18d8:	05374783          	lbu	a5,83(a4)
E:\Project\tp78\mounriver_project\RF_CH582M\obj/../StdPeriphDriver/CH58x_clk.c:167
    R16_OSC_CAL_CNT |= RB_OSC_CAL_OV_CLR;
    18dc:	6691                	lui	a3,0x4
E:\Project\tp78\mounriver_project\RF_CH582M\obj/../StdPeriphDriver/CH58x_clk.c:171
    while( (R8_OSC_CAL_CTRL&RB_OSC_CNT_EN)!= RB_OSC_CNT_EN )
    {
        R8_SAFE_ACCESS_SIG = SAFE_ACCESS_SIG1;
        R8_SAFE_ACCESS_SIG = SAFE_ACCESS_SIG2;
    18de:	fa800613          	li	a2,-88
E:\Project\tp78\mounriver_project\RF_CH582M\obj/../StdPeriphDriver/CH58x_clk.c:166
    R8_OSC_CAL_CTRL |= RB_OSC_CNT_EN;
    18e2:	0207e793          	ori	a5,a5,32
    18e6:	04f709a3          	sb	a5,83(a4)
E:\Project\tp78\mounriver_project\RF_CH582M\obj/../StdPeriphDriver/CH58x_clk.c:167
    R16_OSC_CAL_CNT |= RB_OSC_CAL_OV_CLR;
    18ea:	05075783          	lhu	a5,80(a4)
    18ee:	8fd5                	or	a5,a5,a3
    18f0:	04f71823          	sh	a5,80(a4)
E:\Project\tp78\mounriver_project\RF_CH582M\obj/../StdPeriphDriver/CH58x_clk.c:170
        R8_SAFE_ACCESS_SIG = SAFE_ACCESS_SIG1;
    18f4:	05700693          	li	a3,87
E:\Project\tp78\mounriver_project\RF_CH582M\obj/../StdPeriphDriver/CH58x_clk.c:168
    while( (R8_OSC_CAL_CTRL&RB_OSC_CNT_EN)!= RB_OSC_CNT_EN )
    18f8:	400017b7          	lui	a5,0x40001
    18fc:	0537c703          	lbu	a4,83(a5) # 40001053 <_eusrstack+0x1fff9053>
    1900:	02077713          	andi	a4,a4,32
    1904:	c761                	beqz	a4,19cc <Calibration_LSI+0x176>
E:\Project\tp78\mounriver_project\RF_CH582M\obj/../StdPeriphDriver/CH58x_clk.c:184
        while(R8_OSC_CAL_CTRL & RB_OSC_CNT_HALT);
        R16_OSC_CAL_CNT |= RB_OSC_CAL_OV_CLR;
        while(!(R8_OSC_CAL_CTRL & RB_OSC_CNT_HALT));
        i = R16_OSC_CAL_CNT; // 实时校准后采样值
        cnt_offset = (i & 0x3FFF) + R8_OSC_CAL_OV_CNT * 0x3FFF - 2000 * (freq_sys / 1000) / CAB_LSIFQ;
        if(((cnt_offset > -37 * (freq_sys / 1000) / CAB_LSIFQ) && (cnt_offset < 37 * (freq_sys / 1000) / CAB_LSIFQ)) || retry > 2)
    1906:	c1800813          	li	a6,-1000
    190a:	3e800593          	li	a1,1000
    190e:	03054833          	div	a6,a0,a6
    1912:	02500793          	li	a5,37
E:\Project\tp78\mounriver_project\RF_CH582M\obj/../StdPeriphDriver/CH58x_clk.c:183
        cnt_offset = (i & 0x3FFF) + R8_OSC_CAL_OV_CNT * 0x3FFF - 2000 * (freq_sys / 1000) / CAB_LSIFQ;
    1916:	6891                	lui	a7,0x4
E:\Project\tp78\mounriver_project\RF_CH582M\obj/../StdPeriphDriver/CH58x_clk.c:184
        if(((cnt_offset > -37 * (freq_sys / 1000) / CAB_LSIFQ) && (cnt_offset < 37 * (freq_sys / 1000) / CAB_LSIFQ)) || retry > 2)
    1918:	6721                	lui	a4,0x8
E:\Project\tp78\mounriver_project\RF_CH582M\obj/../StdPeriphDriver/CH58x_clk.c:183
        cnt_offset = (i & 0x3FFF) + R8_OSC_CAL_OV_CNT * 0x3FFF - 2000 * (freq_sys / 1000) / CAB_LSIFQ;
    191a:	e8088e13          	addi	t3,a7,-384 # 3e80 <RF_DevSetChannel+0x48>
E:\Project\tp78\mounriver_project\RF_CH582M\obj/../StdPeriphDriver/CH58x_clk.c:184
        if(((cnt_offset > -37 * (freq_sys / 1000) / CAB_LSIFQ) && (cnt_offset < 37 * (freq_sys / 1000) / CAB_LSIFQ)) || retry > 2)
    191e:	d0070713          	addi	a4,a4,-768 # 7d00 <_data_lma+0x414>
    1922:	4311                	li	t1,4
E:\Project\tp78\mounriver_project\RF_CH582M\obj/../StdPeriphDriver/CH58x_clk.c:177
        while(!(R8_OSC_CAL_CTRL & RB_OSC_CNT_HALT));
    1924:	400016b7          	lui	a3,0x40001
E:\Project\tp78\mounriver_project\RF_CH582M\obj/../StdPeriphDriver/CH58x_clk.c:180
        R16_OSC_CAL_CNT |= RB_OSC_CAL_OV_CLR;
    1928:	6291                	lui	t0,0x4
E:\Project\tp78\mounriver_project\RF_CH582M\obj/../StdPeriphDriver/CH58x_clk.c:183
        cnt_offset = (i & 0x3FFF) + R8_OSC_CAL_OV_CNT * 0x3FFF - 2000 * (freq_sys / 1000) / CAB_LSIFQ;
    192a:	18fd                	addi	a7,a7,-1
E:\Project\tp78\mounriver_project\RF_CH582M\obj/../StdPeriphDriver/CH58x_clk.c:187
            break;
        retry++;
        cnt_offset = (cnt_offset > 0) ? (((cnt_offset * 2) / (37 * (freq_sys / 1000) / CAB_LSIFQ)) + 1) / 2 : (((cnt_offset * 2) / (37 * (freq_sys / 1000) / CAB_LSIFQ)) - 1) / 2;
    192c:	4e89                	li	t4,2
E:\Project\tp78\mounriver_project\RF_CH582M\obj/../StdPeriphDriver/CH58x_clk.c:188
        R8_SAFE_ACCESS_SIG = SAFE_ACCESS_SIG1;
    192e:	05700f93          	li	t6,87
E:\Project\tp78\mounriver_project\RF_CH582M\obj/../StdPeriphDriver/CH58x_clk.c:189
        R8_SAFE_ACCESS_SIG = SAFE_ACCESS_SIG2;
    1932:	fa800f13          	li	t5,-88
E:\Project\tp78\mounriver_project\RF_CH582M\obj/../StdPeriphDriver/CH58x_clk.c:184
        if(((cnt_offset > -37 * (freq_sys / 1000) / CAB_LSIFQ) && (cnt_offset < 37 * (freq_sys / 1000) / CAB_LSIFQ)) || retry > 2)
    1936:	02b545b3          	div	a1,a0,a1
    193a:	02f80833          	mul	a6,a6,a5
    193e:	02f587b3          	mul	a5,a1,a5
E:\Project\tp78\mounriver_project\RF_CH582M\obj/../StdPeriphDriver/CH58x_clk.c:183
        cnt_offset = (i & 0x3FFF) + R8_OSC_CAL_OV_CNT * 0x3FFF - 2000 * (freq_sys / 1000) / CAB_LSIFQ;
    1942:	03c54e33          	div	t3,a0,t3
E:\Project\tp78\mounriver_project\RF_CH582M\obj/../StdPeriphDriver/CH58x_clk.c:184
        if(((cnt_offset > -37 * (freq_sys / 1000) / CAB_LSIFQ) && (cnt_offset < 37 * (freq_sys / 1000) / CAB_LSIFQ)) || retry > 2)
    1946:	02e84833          	div	a6,a6,a4
    194a:	02e7c7b3          	div	a5,a5,a4
E:\Project\tp78\mounriver_project\RF_CH582M\obj/../StdPeriphDriver/CH58x_clk.c:177 (discriminator 1)
        while(!(R8_OSC_CAL_CTRL & RB_OSC_CNT_HALT));
    194e:	0536c703          	lbu	a4,83(a3) # 40001053 <_eusrstack+0x1fff9053>
    1952:	8b21                	andi	a4,a4,8
    1954:	df6d                	beqz	a4,194e <Calibration_LSI+0xf8>
E:\Project\tp78\mounriver_project\RF_CH582M\obj/../StdPeriphDriver/CH58x_clk.c:178
        i = R16_OSC_CAL_CNT; // 用于丢弃
    1956:	0506d703          	lhu	a4,80(a3)
E:\Project\tp78\mounriver_project\RF_CH582M\obj/../StdPeriphDriver/CH58x_clk.c:179 (discriminator 1)
        while(R8_OSC_CAL_CTRL & RB_OSC_CNT_HALT);
    195a:	0536c703          	lbu	a4,83(a3)
    195e:	8b21                	andi	a4,a4,8
    1960:	ff6d                	bnez	a4,195a <Calibration_LSI+0x104>
E:\Project\tp78\mounriver_project\RF_CH582M\obj/../StdPeriphDriver/CH58x_clk.c:180
        R16_OSC_CAL_CNT |= RB_OSC_CAL_OV_CLR;
    1962:	0506d703          	lhu	a4,80(a3)
    1966:	00576733          	or	a4,a4,t0
    196a:	04e69823          	sh	a4,80(a3)
E:\Project\tp78\mounriver_project\RF_CH582M\obj/../StdPeriphDriver/CH58x_clk.c:181 (discriminator 1)
        while(!(R8_OSC_CAL_CTRL & RB_OSC_CNT_HALT));
    196e:	0536c703          	lbu	a4,83(a3)
    1972:	8b21                	andi	a4,a4,8
    1974:	df6d                	beqz	a4,196e <Calibration_LSI+0x118>
E:\Project\tp78\mounriver_project\RF_CH582M\obj/../StdPeriphDriver/CH58x_clk.c:182
        i = R16_OSC_CAL_CNT; // 实时校准后采样值
    1976:	0506d603          	lhu	a2,80(a3)
E:\Project\tp78\mounriver_project\RF_CH582M\obj/../StdPeriphDriver/CH58x_clk.c:183
        cnt_offset = (i & 0x3FFF) + R8_OSC_CAL_OV_CNT * 0x3FFF - 2000 * (freq_sys / 1000) / CAB_LSIFQ;
    197a:	0526c703          	lbu	a4,82(a3)
    197e:	00c8f633          	and	a2,a7,a2
    1982:	02e88733          	mul	a4,a7,a4
    1986:	963a                	add	a2,a2,a4
    1988:	41c60633          	sub	a2,a2,t3
E:\Project\tp78\mounriver_project\RF_CH582M\obj/../StdPeriphDriver/CH58x_clk.c:184
        if(((cnt_offset > -37 * (freq_sys / 1000) / CAB_LSIFQ) && (cnt_offset < 37 * (freq_sys / 1000) / CAB_LSIFQ)) || retry > 2)
    198c:	00c85463          	bge	a6,a2,1994 <Calibration_LSI+0x13e>
E:\Project\tp78\mounriver_project\RF_CH582M\obj/../StdPeriphDriver/CH58x_clk.c:184 (discriminator 1)
    1990:	04f64d63          	blt	a2,a5,19ea <Calibration_LSI+0x194>
    1994:	137d                	addi	t1,t1,-1
    1996:	0ff37313          	andi	t1,t1,255
E:\Project\tp78\mounriver_project\RF_CH582M\obj/../StdPeriphDriver/CH58x_clk.c:184 (discriminator 3)
    199a:	04030863          	beqz	t1,19ea <Calibration_LSI+0x194>
E:\Project\tp78\mounriver_project\RF_CH582M\obj/../StdPeriphDriver/CH58x_clk.c:187
        cnt_offset = (cnt_offset > 0) ? (((cnt_offset * 2) / (37 * (freq_sys / 1000) / CAB_LSIFQ)) + 1) / 2 : (((cnt_offset * 2) / (37 * (freq_sys / 1000) / CAB_LSIFQ)) - 1) / 2;
    199e:	00161713          	slli	a4,a2,0x1
    19a2:	02f74733          	div	a4,a4,a5
    19a6:	04c05063          	blez	a2,19e6 <Calibration_LSI+0x190>
E:\Project\tp78\mounriver_project\RF_CH582M\obj/../StdPeriphDriver/CH58x_clk.c:187 (discriminator 1)
    19aa:	0705                	addi	a4,a4,1
E:\Project\tp78\mounriver_project\RF_CH582M\obj/../StdPeriphDriver/CH58x_clk.c:188 (discriminator 2)
        R8_SAFE_ACCESS_SIG = SAFE_ACCESS_SIG1;
    19ac:	05f68023          	sb	t6,64(a3)
E:\Project\tp78\mounriver_project\RF_CH582M\obj/../StdPeriphDriver/CH58x_clk.c:189 (discriminator 2)
        R8_SAFE_ACCESS_SIG = SAFE_ACCESS_SIG2;
    19b0:	05e68023          	sb	t5,64(a3)
E:\Project\tp78\mounriver_project\RF_CH582M\obj/../StdPeriphDriver/CH58x_clk.c:187 (discriminator 2)
        cnt_offset = (cnt_offset > 0) ? (((cnt_offset * 2) / (37 * (freq_sys / 1000) / CAB_LSIFQ)) + 1) / 2 : (((cnt_offset * 2) / (37 * (freq_sys / 1000) / CAB_LSIFQ)) - 1) / 2;
    19b4:	03d74733          	div	a4,a4,t4
E:\Project\tp78\mounriver_project\RF_CH582M\obj/../StdPeriphDriver/CH58x_clk.c:190 (discriminator 2)
        SAFEOPERATE;
    19b8:	0001                	nop
    19ba:	0001                	nop
E:\Project\tp78\mounriver_project\RF_CH582M\obj/../StdPeriphDriver/CH58x_clk.c:191 (discriminator 2)
        R16_INT32K_TUNE += cnt_offset;
    19bc:	02c6d603          	lhu	a2,44(a3)
    19c0:	9732                	add	a4,a4,a2
    19c2:	0742                	slli	a4,a4,0x10
    19c4:	8341                	srli	a4,a4,0x10
    19c6:	02e69623          	sh	a4,44(a3)
E:\Project\tp78\mounriver_project\RF_CH582M\obj/../StdPeriphDriver/CH58x_clk.c:177 (discriminator 2)
        while(!(R8_OSC_CAL_CTRL & RB_OSC_CNT_HALT));
    19ca:	b751                	j	194e <Calibration_LSI+0xf8>
E:\Project\tp78\mounriver_project\RF_CH582M\obj/../StdPeriphDriver/CH58x_clk.c:170
        R8_SAFE_ACCESS_SIG = SAFE_ACCESS_SIG1;
    19cc:	04d78023          	sb	a3,64(a5)
E:\Project\tp78\mounriver_project\RF_CH582M\obj/../StdPeriphDriver/CH58x_clk.c:171
        R8_SAFE_ACCESS_SIG = SAFE_ACCESS_SIG2;
    19d0:	04c78023          	sb	a2,64(a5)
E:\Project\tp78\mounriver_project\RF_CH582M\obj/../StdPeriphDriver/CH58x_clk.c:172
        SAFEOPERATE;
    19d4:	0001                	nop
    19d6:	0001                	nop
E:\Project\tp78\mounriver_project\RF_CH582M\obj/../StdPeriphDriver/CH58x_clk.c:173
        R8_OSC_CAL_CTRL |= RB_OSC_CNT_EN;
    19d8:	0537c703          	lbu	a4,83(a5)
    19dc:	02076713          	ori	a4,a4,32
    19e0:	04e789a3          	sb	a4,83(a5)
    19e4:	bf21                	j	18fc <Calibration_LSI+0xa6>
E:\Project\tp78\mounriver_project\RF_CH582M\obj/../StdPeriphDriver/CH58x_clk.c:187 (discriminator 2)
        cnt_offset = (cnt_offset > 0) ? (((cnt_offset * 2) / (37 * (freq_sys / 1000) / CAB_LSIFQ)) + 1) / 2 : (((cnt_offset * 2) / (37 * (freq_sys / 1000) / CAB_LSIFQ)) - 1) / 2;
    19e6:	177d                	addi	a4,a4,-1
    19e8:	b7d1                	j	19ac <Calibration_LSI+0x156>
E:\Project\tp78\mounriver_project\RF_CH582M\obj/../StdPeriphDriver/CH58x_clk.c:196 (discriminator 1)
    }

    // 细调
    // 配置细调参数后，丢弃2次捕获值（软件行为）上判断已有一次，这里只留一次
    while(!(R8_OSC_CAL_CTRL & RB_OSC_CNT_HALT));
    19ea:	400017b7          	lui	a5,0x40001
    19ee:	0537c683          	lbu	a3,83(a5) # 40001053 <_eusrstack+0x1fff9053>
    19f2:	05378713          	addi	a4,a5,83
    19f6:	8aa1                	andi	a3,a3,8
    19f8:	dafd                	beqz	a3,19ee <Calibration_LSI+0x198>
E:\Project\tp78\mounriver_project\RF_CH582M\obj/../StdPeriphDriver/CH58x_clk.c:197
    i = R16_OSC_CAL_CNT; // 用于丢弃
    19fa:	0507d683          	lhu	a3,80(a5)
E:\Project\tp78\mounriver_project\RF_CH582M\obj/../StdPeriphDriver/CH58x_clk.c:198
    R16_OSC_CAL_CNT |= RB_OSC_CAL_OV_CLR;
    19fe:	0507d683          	lhu	a3,80(a5)
    1a02:	6611                	lui	a2,0x4
    1a04:	8ed1                	or	a3,a3,a2
    1a06:	04d79823          	sh	a3,80(a5)
E:\Project\tp78\mounriver_project\RF_CH582M\obj/../StdPeriphDriver/CH58x_clk.c:199
    R8_SAFE_ACCESS_SIG = SAFE_ACCESS_SIG1;
    1a0a:	05700693          	li	a3,87
    1a0e:	04d78023          	sb	a3,64(a5)
E:\Project\tp78\mounriver_project\RF_CH582M\obj/../StdPeriphDriver/CH58x_clk.c:200
    R8_SAFE_ACCESS_SIG = SAFE_ACCESS_SIG2;
    1a12:	fa800693          	li	a3,-88
    1a16:	04d78023          	sb	a3,64(a5)
E:\Project\tp78\mounriver_project\RF_CH582M\obj/../StdPeriphDriver/CH58x_clk.c:201
    SAFEOPERATE;
    1a1a:	0001                	nop
    1a1c:	0001                	nop
E:\Project\tp78\mounriver_project\RF_CH582M\obj/../StdPeriphDriver/CH58x_clk.c:202
    R8_OSC_CAL_CTRL &= ~RB_OSC_CNT_TOTAL;
    1a1e:	00074783          	lbu	a5,0(a4)
    1a22:	0f87f793          	andi	a5,a5,248
    1a26:	00f70023          	sb	a5,0(a4)
E:\Project\tp78\mounriver_project\RF_CH582M\obj/../StdPeriphDriver/CH58x_clk.c:203
    R8_OSC_CAL_CTRL |= cali_Lv;
    1a2a:	00074783          	lbu	a5,0(a4)
    1a2e:	8fc1                	or	a5,a5,s0
    1a30:	0ff7f793          	andi	a5,a5,255
    1a34:	00f70023          	sb	a5,0(a4)
E:\Project\tp78\mounriver_project\RF_CH582M\obj/../StdPeriphDriver/CH58x_clk.c:204
    while(R8_OSC_CAL_CTRL & RB_OSC_CNT_HALT);
    1a38:	40001737          	lui	a4,0x40001
E:\Project\tp78\mounriver_project\RF_CH582M\obj/../StdPeriphDriver/CH58x_clk.c:204 (discriminator 1)
    1a3c:	05374783          	lbu	a5,83(a4) # 40001053 <_eusrstack+0x1fff9053>
    1a40:	8ba1                	andi	a5,a5,8
    1a42:	ffed                	bnez	a5,1a3c <Calibration_LSI+0x1e6>
E:\Project\tp78\mounriver_project\RF_CH582M\obj/../StdPeriphDriver/CH58x_clk.c:205
    while(!(R8_OSC_CAL_CTRL & RB_OSC_CNT_HALT));
    1a44:	400017b7          	lui	a5,0x40001
E:\Project\tp78\mounriver_project\RF_CH582M\obj/../StdPeriphDriver/CH58x_clk.c:205 (discriminator 1)
    1a48:	0537c703          	lbu	a4,83(a5) # 40001053 <_eusrstack+0x1fff9053>
    1a4c:	8b21                	andi	a4,a4,8
    1a4e:	df6d                	beqz	a4,1a48 <Calibration_LSI+0x1f2>
E:\Project\tp78\mounriver_project\RF_CH582M\obj/../StdPeriphDriver/CH58x_clk.c:207
    i = R16_OSC_CAL_CNT; // 实时校准后采样值
    cnt_offset = (i & 0x3FFF) + R8_OSC_CAL_OV_CNT * 0x3FFF - 4000 * (1 << cali_Lv) * (freq_sys / 1000000) / CAB_LSIFQ * 1000;
    1a50:	000f4637          	lui	a2,0xf4
    1a54:	24060613          	addi	a2,a2,576 # f4240 <_data_lma+0xec954>
    1a58:	02c54533          	div	a0,a0,a2
E:\Project\tp78\mounriver_project\RF_CH582M\obj/../StdPeriphDriver/CH58x_clk.c:206
    i = R16_OSC_CAL_CNT; // 实时校准后采样值
    1a5c:	0507d683          	lhu	a3,80(a5)
E:\Project\tp78\mounriver_project\RF_CH582M\obj/../StdPeriphDriver/CH58x_clk.c:207
    cnt_offset = (i & 0x3FFF) + R8_OSC_CAL_OV_CNT * 0x3FFF - 4000 * (1 << cali_Lv) * (freq_sys / 1000000) / CAB_LSIFQ * 1000;
    1a60:	0527c783          	lbu	a5,82(a5)
    1a64:	6711                	lui	a4,0x4
    1a66:	177d                	addi	a4,a4,-1
    1a68:	8ef9                	and	a3,a3,a4
    1a6a:	6621                	lui	a2,0x8
    1a6c:	d0060613          	addi	a2,a2,-768 # 7d00 <_data_lma+0x414>
    1a70:	02f70733          	mul	a4,a4,a5
    1a74:	6785                	lui	a5,0x1
    1a76:	96ba                	add	a3,a3,a4
    1a78:	fa078713          	addi	a4,a5,-96 # fa0 <_einit+0xf9c>
    1a7c:	00871733          	sll	a4,a4,s0
    1a80:	02a70733          	mul	a4,a4,a0
    1a84:	3e800513          	li	a0,1000
    1a88:	c8078793          	addi	a5,a5,-896
    1a8c:	4087d7b3          	sra	a5,a5,s0
    1a90:	02c74733          	div	a4,a4,a2
    1a94:	02a70733          	mul	a4,a4,a0
    1a98:	40e68733          	sub	a4,a3,a4
E:\Project\tp78\mounriver_project\RF_CH582M\obj/../StdPeriphDriver/CH58x_clk.c:208
    cnt_offset = (cnt_offset > 0) ? ((((cnt_offset * (3200 / (1 << cali_Lv))) / (1366 * (freq_sys / 1000) / CAB_LSIFQ)) + 1) / 2) << 5 : ((((cnt_offset * (3200 / (1 << cali_Lv))) / (1366 * (freq_sys / 1000) / CAB_LSIFQ)) - 1) / 2) << 5;
    1a9c:	55600693          	li	a3,1366
    1aa0:	02d585b3          	mul	a1,a1,a3
    1aa4:	02c5c5b3          	div	a1,a1,a2
    1aa8:	02e787b3          	mul	a5,a5,a4
    1aac:	02b7c7b3          	div	a5,a5,a1
    1ab0:	04e05463          	blez	a4,1af8 <Calibration_LSI+0x2a2>
E:\Project\tp78\mounriver_project\RF_CH582M\obj/../StdPeriphDriver/CH58x_clk.c:208 (discriminator 1)
    1ab4:	0785                	addi	a5,a5,1
E:\Project\tp78\mounriver_project\RF_CH582M\obj/../StdPeriphDriver/CH58x_clk.c:208 (discriminator 2)
    1ab6:	4709                	li	a4,2
E:\Project\tp78\mounriver_project\RF_CH582M\obj/../StdPeriphDriver/CH58x_clk.c:209 (discriminator 2)
    R8_SAFE_ACCESS_SIG = SAFE_ACCESS_SIG1;
    1ab8:	05700693          	li	a3,87
E:\Project\tp78\mounriver_project\RF_CH582M\obj/../StdPeriphDriver/CH58x_clk.c:208 (discriminator 2)
    cnt_offset = (cnt_offset > 0) ? ((((cnt_offset * (3200 / (1 << cali_Lv))) / (1366 * (freq_sys / 1000) / CAB_LSIFQ)) + 1) / 2) << 5 : ((((cnt_offset * (3200 / (1 << cali_Lv))) / (1366 * (freq_sys / 1000) / CAB_LSIFQ)) - 1) / 2) << 5;
    1abc:	02e7c7b3          	div	a5,a5,a4
E:\Project\tp78\mounriver_project\RF_CH582M\obj/../StdPeriphDriver/CH58x_clk.c:209 (discriminator 2)
    R8_SAFE_ACCESS_SIG = SAFE_ACCESS_SIG1;
    1ac0:	40001737          	lui	a4,0x40001
    1ac4:	04d70023          	sb	a3,64(a4) # 40001040 <_eusrstack+0x1fff9040>
E:\Project\tp78\mounriver_project\RF_CH582M\obj/../StdPeriphDriver/CH58x_clk.c:210 (discriminator 2)
    R8_SAFE_ACCESS_SIG = SAFE_ACCESS_SIG2;
    1ac8:	fa800693          	li	a3,-88
    1acc:	04d70023          	sb	a3,64(a4)
E:\Project\tp78\mounriver_project\RF_CH582M\obj/../StdPeriphDriver/CH58x_clk.c:208 (discriminator 2)
    cnt_offset = (cnt_offset > 0) ? ((((cnt_offset * (3200 / (1 << cali_Lv))) / (1366 * (freq_sys / 1000) / CAB_LSIFQ)) + 1) / 2) << 5 : ((((cnt_offset * (3200 / (1 << cali_Lv))) / (1366 * (freq_sys / 1000) / CAB_LSIFQ)) - 1) / 2) << 5;
    1ad0:	0796                	slli	a5,a5,0x5
E:\Project\tp78\mounriver_project\RF_CH582M\obj/../StdPeriphDriver/CH58x_clk.c:211 (discriminator 2)
    SAFEOPERATE;
    1ad2:	0001                	nop
    1ad4:	0001                	nop
E:\Project\tp78\mounriver_project\RF_CH582M\obj/../StdPeriphDriver/CH58x_clk.c:212 (discriminator 2)
    R16_INT32K_TUNE += cnt_offset;
    1ad6:	02c75683          	lhu	a3,44(a4)
    1ada:	97b6                	add	a5,a5,a3
    1adc:	07c2                	slli	a5,a5,0x10
    1ade:	83c1                	srli	a5,a5,0x10
    1ae0:	02f71623          	sh	a5,44(a4)
E:\Project\tp78\mounriver_project\RF_CH582M\obj/../StdPeriphDriver/CH58x_clk.c:213 (discriminator 2)
    R8_OSC_CAL_CTRL &= ~RB_OSC_CNT_EN;
    1ae4:	05374783          	lbu	a5,83(a4)
    1ae8:	0df7f793          	andi	a5,a5,223
    1aec:	04f709a3          	sb	a5,83(a4)
E:\Project\tp78\mounriver_project\RF_CH582M\obj/../StdPeriphDriver/CH58x_clk.c:214 (discriminator 2)
}
    1af0:	40b2                	lw	ra,12(sp)
    1af2:	4422                	lw	s0,8(sp)
    1af4:	0141                	addi	sp,sp,16
    1af6:	8082                	ret
E:\Project\tp78\mounriver_project\RF_CH582M\obj/../StdPeriphDriver/CH58x_clk.c:208 (discriminator 2)
    cnt_offset = (cnt_offset > 0) ? ((((cnt_offset * (3200 / (1 << cali_Lv))) / (1366 * (freq_sys / 1000) / CAB_LSIFQ)) + 1) / 2) << 5 : ((((cnt_offset * (3200 / (1 << cali_Lv))) / (1366 * (freq_sys / 1000) / CAB_LSIFQ)) - 1) / 2) << 5;
    1af8:	17fd                	addi	a5,a5,-1
    1afa:	bf75                	j	1ab6 <Calibration_LSI+0x260>

00001afc <RTC_InitTime>:
RTC_InitTime():
E:\Project\tp78\mounriver_project\RF_CH582M\obj/../StdPeriphDriver/CH58x_clk.c:231
 * @param   s       - 配置秒，MAX_S = 59
 *
 * @return  none
 */
void RTC_InitTime(uint16_t y, uint16_t mon, uint16_t d, uint16_t h, uint16_t m, uint16_t s)
{
    1afc:	1141                	addi	sp,sp,-16
    1afe:	832a                	mv	t1,a0
E:\Project\tp78\mounriver_project\RF_CH582M\obj/../StdPeriphDriver/CH58x_clk.c:238
    uint16_t         year, month, day, sec2, t32k;
    volatile uint8_t clk_pin;

    year = y;
    month = mon;
    day = 0;
    1b00:	4e01                	li	t3,0
E:\Project\tp78\mounriver_project\RF_CH582M\obj/../StdPeriphDriver/CH58x_clk.c:239
    while(year > BEGYEAR)
    1b02:	7e400e93          	li	t4,2020
E:\Project\tp78\mounriver_project\RF_CH582M\obj/../StdPeriphDriver/CH58x_clk.c:241
    {
        day += YearLength(year - 1);
    1b06:	19000f13          	li	t5,400
    1b0a:	06400f93          	li	t6,100
E:\Project\tp78\mounriver_project\RF_CH582M\obj/../StdPeriphDriver/CH58x_clk.c:239
    while(year > BEGYEAR)
    1b0e:	0e6ee463          	bltu	t4,t1,1bf6 <RTC_InitTime+0xfa>
E:\Project\tp78\mounriver_project\RF_CH582M\obj/../StdPeriphDriver/CH58x_clk.c:246
        year--;
    }
    while(month > 1)
    {
        day += monthLength(IsLeapYear(y), month - 2);
    1b12:	19000893          	li	a7,400
    1b16:	06400313          	li	t1,100
    1b1a:	031578b3          	remu	a7,a0,a7
E:\Project\tp78\mounriver_project\RF_CH582M\obj/../StdPeriphDriver/CH58x_clk.c:244
    while(month > 1)
    1b1e:	4e85                	li	t4,1
E:\Project\tp78\mounriver_project\RF_CH582M\obj/../StdPeriphDriver/CH58x_clk.c:246
        day += monthLength(IsLeapYear(y), month - 2);
    1b20:	4f0d                	li	t5,3
    1b22:	4fa1                	li	t6,8
    1b24:	02657333          	remu	t1,a0,t1
    1b28:	890d                	andi	a0,a0,3
    1b2a:	00153513          	seqz	a0,a0
E:\Project\tp78\mounriver_project\RF_CH582M\obj/../StdPeriphDriver/CH58x_clk.c:244
    while(month > 1)
    1b2e:	0ebeee63          	bltu	t4,a1,1c2a <RTC_InitTime+0x12e>
E:\Project\tp78\mounriver_project\RF_CH582M\obj/../StdPeriphDriver/CH58x_clk.c:250
        month--;
    }

    day += d - 1;
    1b32:	fff60813          	addi	a6,a2,-1
E:\Project\tp78\mounriver_project\RF_CH582M\obj/../StdPeriphDriver/CH58x_clk.c:251
    sec2 = (h % 24) * 1800 + m * 30 + s / 2;
    1b36:	4679                	li	a2,30
E:\Project\tp78\mounriver_project\RF_CH582M\obj/../StdPeriphDriver/CH58x_clk.c:250
    day += d - 1;
    1b38:	9872                	add	a6,a6,t3
    1b3a:	0842                	slli	a6,a6,0x10
    1b3c:	01085813          	srli	a6,a6,0x10
E:\Project\tp78\mounriver_project\RF_CH582M\obj/../StdPeriphDriver/CH58x_clk.c:251
    sec2 = (h % 24) * 1800 + m * 30 + s / 2;
    1b40:	02c70733          	mul	a4,a4,a2
    1b44:	0017d613          	srli	a2,a5,0x1
E:\Project\tp78\mounriver_project\RF_CH582M\obj/../StdPeriphDriver/CH58x_clk.c:252
    t32k = (s & 1) ? (0x8000) : (0);
    1b48:	07be                	slli	a5,a5,0xf
E:\Project\tp78\mounriver_project\RF_CH582M\obj/../StdPeriphDriver/CH58x_clk.c:251
    sec2 = (h % 24) * 1800 + m * 30 + s / 2;
    1b4a:	9732                	add	a4,a4,a2
    1b4c:	4661                	li	a2,24
    1b4e:	02c6f6b3          	remu	a3,a3,a2
    1b52:	70800613          	li	a2,1800
    1b56:	02c686b3          	mul	a3,a3,a2
    1b5a:	9736                	add	a4,a4,a3
E:\Project\tp78\mounriver_project\RF_CH582M\obj/../StdPeriphDriver/CH58x_clk.c:254
    t = sec2;
    t = t << 16 | t32k;
    1b5c:	66a1                	lui	a3,0x8
    1b5e:	8ff5                	and	a5,a5,a3
    1b60:	0742                	slli	a4,a4,0x10
    1b62:	8f5d                	or	a4,a4,a5
E:\Project\tp78\mounriver_project\RF_CH582M\obj/../StdPeriphDriver/CH58x_clk.c:258

    do
    {
        clk_pin = (R8_CK32K_CONFIG & RB_32K_CLK_PIN);
    1b64:	400016b7          	lui	a3,0x40001
E:\Project\tp78\mounriver_project\RF_CH582M\obj/../StdPeriphDriver/CH58x_clk.c:258 (discriminator 1)
    1b68:	02f6c783          	lbu	a5,47(a3) # 4000102f <_eusrstack+0x1fff902f>
    1b6c:	0807f793          	andi	a5,a5,128
    1b70:	00f107a3          	sb	a5,15(sp)
E:\Project\tp78\mounriver_project\RF_CH582M\obj/../StdPeriphDriver/CH58x_clk.c:259 (discriminator 1)
    } while(clk_pin != (R8_CK32K_CONFIG & RB_32K_CLK_PIN));
    1b74:	00f14603          	lbu	a2,15(sp)
    1b78:	02f6c783          	lbu	a5,47(a3)
    1b7c:	0807f793          	andi	a5,a5,128
    1b80:	fec794e3          	bne	a5,a2,1b68 <RTC_InitTime+0x6c>
E:\Project\tp78\mounriver_project\RF_CH582M\obj/../StdPeriphDriver/CH58x_clk.c:260
    if(!clk_pin)
    1b84:	00f14783          	lbu	a5,15(sp)
E:\Project\tp78\mounriver_project\RF_CH582M\obj/../StdPeriphDriver/CH58x_clk.c:266
    {
        while(!clk_pin)
        {
            do
            {
                clk_pin = (R8_CK32K_CONFIG & RB_32K_CLK_PIN);
    1b88:	400016b7          	lui	a3,0x40001
E:\Project\tp78\mounriver_project\RF_CH582M\obj/../StdPeriphDriver/CH58x_clk.c:260
    if(!clk_pin)
    1b8c:	0ff7f793          	andi	a5,a5,255
    1b90:	c7fd                	beqz	a5,1c7e <RTC_InitTime+0x182>
E:\Project\tp78\mounriver_project\RF_CH582M\obj/../StdPeriphDriver/CH58x_clk.c:271
            } while(clk_pin != (R8_CK32K_CONFIG & RB_32K_CLK_PIN));
        }
    }

    R8_SAFE_ACCESS_SIG = SAFE_ACCESS_SIG1;
    1b92:	400017b7          	lui	a5,0x40001
    1b96:	05700693          	li	a3,87
    1b9a:	04d78023          	sb	a3,64(a5) # 40001040 <_eusrstack+0x1fff9040>
E:\Project\tp78\mounriver_project\RF_CH582M\obj/../StdPeriphDriver/CH58x_clk.c:272
    R8_SAFE_ACCESS_SIG = SAFE_ACCESS_SIG2;
    1b9e:	fa800693          	li	a3,-88
    1ba2:	04d78023          	sb	a3,64(a5)
E:\Project\tp78\mounriver_project\RF_CH582M\obj/../StdPeriphDriver/CH58x_clk.c:273
    SAFEOPERATE;
    1ba6:	0001                	nop
    1ba8:	0001                	nop
E:\Project\tp78\mounriver_project\RF_CH582M\obj/../StdPeriphDriver/CH58x_clk.c:274
    R32_RTC_TRIG = day;
    1baa:	0307aa23          	sw	a6,52(a5)
E:\Project\tp78\mounriver_project\RF_CH582M\obj/../StdPeriphDriver/CH58x_clk.c:275
    R8_RTC_MODE_CTRL |= RB_RTC_LOAD_HI;
    1bae:	0317c683          	lbu	a3,49(a5)
E:\Project\tp78\mounriver_project\RF_CH582M\obj/../StdPeriphDriver/CH58x_clk.c:276
    while((R32_RTC_TRIG & 0x3FFF) != (R32_RTC_CNT_DAY & 0x3FFF));
    1bb2:	6611                	lui	a2,0x4
    1bb4:	167d                	addi	a2,a2,-1
E:\Project\tp78\mounriver_project\RF_CH582M\obj/../StdPeriphDriver/CH58x_clk.c:275
    R8_RTC_MODE_CTRL |= RB_RTC_LOAD_HI;
    1bb6:	0806e693          	ori	a3,a3,128
    1bba:	02d788a3          	sb	a3,49(a5)
E:\Project\tp78\mounriver_project\RF_CH582M\obj/../StdPeriphDriver/CH58x_clk.c:276 (discriminator 1)
    while((R32_RTC_TRIG & 0x3FFF) != (R32_RTC_CNT_DAY & 0x3FFF));
    1bbe:	5bd4                	lw	a3,52(a5)
    1bc0:	5fc8                	lw	a0,60(a5)
    1bc2:	03478593          	addi	a1,a5,52
    1bc6:	8ea9                	xor	a3,a3,a0
    1bc8:	8ef1                	and	a3,a3,a2
    1bca:	faf5                	bnez	a3,1bbe <RTC_InitTime+0xc2>
E:\Project\tp78\mounriver_project\RF_CH582M\obj/../StdPeriphDriver/CH58x_clk.c:277
    R8_SAFE_ACCESS_SIG = SAFE_ACCESS_SIG1;
    1bcc:	05700693          	li	a3,87
    1bd0:	04d78023          	sb	a3,64(a5)
E:\Project\tp78\mounriver_project\RF_CH582M\obj/../StdPeriphDriver/CH58x_clk.c:278
    R8_SAFE_ACCESS_SIG = SAFE_ACCESS_SIG2;
    1bd4:	fa800693          	li	a3,-88
    1bd8:	04d78023          	sb	a3,64(a5)
E:\Project\tp78\mounriver_project\RF_CH582M\obj/../StdPeriphDriver/CH58x_clk.c:279
    SAFEOPERATE;
    1bdc:	0001                	nop
    1bde:	0001                	nop
E:\Project\tp78\mounriver_project\RF_CH582M\obj/../StdPeriphDriver/CH58x_clk.c:280
    R32_RTC_TRIG = t;
    1be0:	c198                	sw	a4,0(a1)
E:\Project\tp78\mounriver_project\RF_CH582M\obj/../StdPeriphDriver/CH58x_clk.c:281
    R8_RTC_MODE_CTRL |= RB_RTC_LOAD_LO;
    1be2:	0317c703          	lbu	a4,49(a5)
    1be6:	04076713          	ori	a4,a4,64
    1bea:	02e788a3          	sb	a4,49(a5)
E:\Project\tp78\mounriver_project\RF_CH582M\obj/../StdPeriphDriver/CH58x_clk.c:282
    R8_SAFE_ACCESS_SIG = 0;
    1bee:	04078023          	sb	zero,64(a5)
E:\Project\tp78\mounriver_project\RF_CH582M\obj/../StdPeriphDriver/CH58x_clk.c:283
}
    1bf2:	0141                	addi	sp,sp,16
    1bf4:	8082                	ret
E:\Project\tp78\mounriver_project\RF_CH582M\obj/../StdPeriphDriver/CH58x_clk.c:241
        day += YearLength(year - 1);
    1bf6:	137d                	addi	t1,t1,-1
    1bf8:	03e36833          	rem	a6,t1,t5
    1bfc:	16e00893          	li	a7,366
    1c00:	00080e63          	beqz	a6,1c1c <RTC_InitTime+0x120>
E:\Project\tp78\mounriver_project\RF_CH582M\obj/../StdPeriphDriver/CH58x_clk.c:241 (discriminator 2)
    1c04:	03f36833          	rem	a6,t1,t6
    1c08:	16d00893          	li	a7,365
    1c0c:	00080863          	beqz	a6,1c1c <RTC_InitTime+0x120>
E:\Project\tp78\mounriver_project\RF_CH582M\obj/../StdPeriphDriver/CH58x_clk.c:241 (discriminator 3)
    1c10:	00337893          	andi	a7,t1,3
    1c14:	0018b893          	seqz	a7,a7
    1c18:	16d88893          	addi	a7,a7,365
E:\Project\tp78\mounriver_project\RF_CH582M\obj/../StdPeriphDriver/CH58x_clk.c:241 (discriminator 8)
    1c1c:	011e0833          	add	a6,t3,a7
    1c20:	01081e13          	slli	t3,a6,0x10
    1c24:	010e5e13          	srli	t3,t3,0x10
E:\Project\tp78\mounriver_project\RF_CH582M\obj/../StdPeriphDriver/CH58x_clk.c:242 (discriminator 8)
        year--;
    1c28:	b5dd                	j	1b0e <RTC_InitTime+0x12>
E:\Project\tp78\mounriver_project\RF_CH582M\obj/../StdPeriphDriver/CH58x_clk.c:246
        day += monthLength(IsLeapYear(y), month - 2);
    1c2a:	03e59363          	bne	a1,t5,1c50 <RTC_InitTime+0x154>
E:\Project\tp78\mounriver_project\RF_CH582M\obj/../StdPeriphDriver/CH58x_clk.c:246 (discriminator 1)
    1c2e:	4805                	li	a6,1
    1c30:	00088663          	beqz	a7,1c3c <RTC_InitTime+0x140>
E:\Project\tp78\mounriver_project\RF_CH582M\obj/../StdPeriphDriver/CH58x_clk.c:246 (discriminator 4)
    1c34:	4801                	li	a6,0
    1c36:	00030363          	beqz	t1,1c3c <RTC_InitTime+0x140>
E:\Project\tp78\mounriver_project\RF_CH582M\obj/../StdPeriphDriver/CH58x_clk.c:246 (discriminator 5)
    1c3a:	882a                	mv	a6,a0
E:\Project\tp78\mounriver_project\RF_CH582M\obj/../StdPeriphDriver/CH58x_clk.c:246 (discriminator 10)
    1c3c:	0871                	addi	a6,a6,28
E:\Project\tp78\mounriver_project\RF_CH582M\obj/../StdPeriphDriver/CH58x_clk.c:246 (discriminator 24)
    1c3e:	9872                	add	a6,a6,t3
E:\Project\tp78\mounriver_project\RF_CH582M\obj/../StdPeriphDriver/CH58x_clk.c:247 (discriminator 24)
        month--;
    1c40:	15fd                	addi	a1,a1,-1
E:\Project\tp78\mounriver_project\RF_CH582M\obj/../StdPeriphDriver/CH58x_clk.c:246 (discriminator 24)
        day += monthLength(IsLeapYear(y), month - 2);
    1c42:	01081e13          	slli	t3,a6,0x10
E:\Project\tp78\mounriver_project\RF_CH582M\obj/../StdPeriphDriver/CH58x_clk.c:247 (discriminator 24)
        month--;
    1c46:	05c2                	slli	a1,a1,0x10
E:\Project\tp78\mounriver_project\RF_CH582M\obj/../StdPeriphDriver/CH58x_clk.c:246 (discriminator 24)
        day += monthLength(IsLeapYear(y), month - 2);
    1c48:	010e5e13          	srli	t3,t3,0x10
E:\Project\tp78\mounriver_project\RF_CH582M\obj/../StdPeriphDriver/CH58x_clk.c:247 (discriminator 24)
        month--;
    1c4c:	81c1                	srli	a1,a1,0x10
    1c4e:	b5c5                	j	1b2e <RTC_InitTime+0x32>
    1c50:	0015f813          	andi	a6,a1,1
E:\Project\tp78\mounriver_project\RF_CH582M\obj/../StdPeriphDriver/CH58x_clk.c:246 (discriminator 2)
        day += monthLength(IsLeapYear(y), month - 2);
    1c54:	00bff463          	bgeu	t6,a1,1c5c <RTC_InitTime+0x160>
E:\Project\tp78\mounriver_project\RF_CH582M\obj/../StdPeriphDriver/CH58x_clk.c:246 (discriminator 13)
    1c58:	0879                	addi	a6,a6,30
    1c5a:	b7d5                	j	1c3e <RTC_InitTime+0x142>
    1c5c:	00183813          	seqz	a6,a6
    1c60:	bfe5                	j	1c58 <RTC_InitTime+0x15c>
E:\Project\tp78\mounriver_project\RF_CH582M\obj/../StdPeriphDriver/CH58x_clk.c:266 (discriminator 1)
                clk_pin = (R8_CK32K_CONFIG & RB_32K_CLK_PIN);
    1c62:	02f6c783          	lbu	a5,47(a3) # 4000102f <_eusrstack+0x1fff902f>
    1c66:	0807f793          	andi	a5,a5,128
    1c6a:	00f107a3          	sb	a5,15(sp)
E:\Project\tp78\mounriver_project\RF_CH582M\obj/../StdPeriphDriver/CH58x_clk.c:267 (discriminator 1)
            } while(clk_pin != (R8_CK32K_CONFIG & RB_32K_CLK_PIN));
    1c6e:	00f14603          	lbu	a2,15(sp)
    1c72:	02f6c783          	lbu	a5,47(a3)
    1c76:	0807f793          	andi	a5,a5,128
    1c7a:	fec794e3          	bne	a5,a2,1c62 <RTC_InitTime+0x166>
E:\Project\tp78\mounriver_project\RF_CH582M\obj/../StdPeriphDriver/CH58x_clk.c:262
        while(!clk_pin)
    1c7e:	00f14783          	lbu	a5,15(sp)
    1c82:	0ff7f793          	andi	a5,a5,255
    1c86:	dff1                	beqz	a5,1c62 <RTC_InitTime+0x166>
    1c88:	b729                	j	1b92 <RTC_InitTime+0x96>

00001c8a <GPIOA_ModeCfg>:
GPIOA_ModeCfg():
E:\Project\tp78\mounriver_project\RF_CH582M\obj/../StdPeriphDriver/CH58x_gpio.c:25
 *
 * @return  none
 */
void GPIOA_ModeCfg(uint32_t pin, GPIOModeTypeDef mode)
{
    switch(mode)
    1c8a:	4791                	li	a5,4
    1c8c:	02b7ee63          	bltu	a5,a1,1cc8 <GPIOA_ModeCfg+0x3e>
    1c90:	00006717          	auipc	a4,0x6
    1c94:	94470713          	addi	a4,a4,-1724 # 75d4 <_sbrk+0x26>
    1c98:	058a                	slli	a1,a1,0x2
    1c9a:	95ba                	add	a1,a1,a4
    1c9c:	419c                	lw	a5,0(a1)
    1c9e:	97ba                	add	a5,a5,a4
    1ca0:	8782                	jr	a5
E:\Project\tp78\mounriver_project\RF_CH582M\obj/../StdPeriphDriver/CH58x_gpio.c:28
    {
        case GPIO_ModeIN_Floating:
            R32_PA_PD_DRV &= ~pin;
    1ca2:	400017b7          	lui	a5,0x40001
    1ca6:	0b47a703          	lw	a4,180(a5) # 400010b4 <_eusrstack+0x1fff90b4>
    1caa:	fff54513          	not	a0,a0
    1cae:	8f69                	and	a4,a4,a0
    1cb0:	0ae7aa23          	sw	a4,180(a5)
E:\Project\tp78\mounriver_project\RF_CH582M\obj/../StdPeriphDriver/CH58x_gpio.c:29
            R32_PA_PU &= ~pin;
    1cb4:	0b07a703          	lw	a4,176(a5)
E:\Project\tp78\mounriver_project\RF_CH582M\obj/../StdPeriphDriver/CH58x_gpio.c:41
            R32_PA_DIR &= ~pin;
            break;

        case GPIO_ModeIN_PD:
            R32_PA_PD_DRV |= pin;
            R32_PA_PU &= ~pin;
    1cb8:	8f69                	and	a4,a4,a0
    1cba:	0ae7a823          	sw	a4,176(a5)
E:\Project\tp78\mounriver_project\RF_CH582M\obj/../StdPeriphDriver/CH58x_gpio.c:42
            R32_PA_DIR &= ~pin;
    1cbe:	0a07a703          	lw	a4,160(a5)
    1cc2:	8d79                	and	a0,a0,a4
E:\Project\tp78\mounriver_project\RF_CH582M\obj/../StdPeriphDriver/CH58x_gpio.c:52
            R32_PA_DIR |= pin;
            break;

        case GPIO_ModeOut_PP_20mA:
            R32_PA_PD_DRV |= pin;
            R32_PA_DIR |= pin;
    1cc4:	0aa7a023          	sw	a0,160(a5)
E:\Project\tp78\mounriver_project\RF_CH582M\obj/../StdPeriphDriver/CH58x_gpio.c:58
            break;

        default:
            break;
    }
}
    1cc8:	8082                	ret
E:\Project\tp78\mounriver_project\RF_CH582M\obj/../StdPeriphDriver/CH58x_gpio.c:34
            R32_PA_PD_DRV &= ~pin;
    1cca:	400017b7          	lui	a5,0x40001
    1cce:	0b47a683          	lw	a3,180(a5) # 400010b4 <_eusrstack+0x1fff90b4>
    1cd2:	fff54713          	not	a4,a0
    1cd6:	8ef9                	and	a3,a3,a4
    1cd8:	0ad7aa23          	sw	a3,180(a5)
E:\Project\tp78\mounriver_project\RF_CH582M\obj/../StdPeriphDriver/CH58x_gpio.c:35
            R32_PA_PU |= pin;
    1cdc:	0b07a683          	lw	a3,176(a5)
    1ce0:	8d55                	or	a0,a0,a3
    1ce2:	0aa7a823          	sw	a0,176(a5)
E:\Project\tp78\mounriver_project\RF_CH582M\obj/../StdPeriphDriver/CH58x_gpio.c:36
            R32_PA_DIR &= ~pin;
    1ce6:	0a07a683          	lw	a3,160(a5)
    1cea:	8f75                	and	a4,a4,a3
    1cec:	0ae7a023          	sw	a4,160(a5)
E:\Project\tp78\mounriver_project\RF_CH582M\obj/../StdPeriphDriver/CH58x_gpio.c:37
            break;
    1cf0:	8082                	ret
E:\Project\tp78\mounriver_project\RF_CH582M\obj/../StdPeriphDriver/CH58x_gpio.c:40
            R32_PA_PD_DRV |= pin;
    1cf2:	400017b7          	lui	a5,0x40001
    1cf6:	0b47a703          	lw	a4,180(a5) # 400010b4 <_eusrstack+0x1fff90b4>
    1cfa:	8f49                	or	a4,a4,a0
    1cfc:	0ae7aa23          	sw	a4,180(a5)
E:\Project\tp78\mounriver_project\RF_CH582M\obj/../StdPeriphDriver/CH58x_gpio.c:41
            R32_PA_PU &= ~pin;
    1d00:	0b07a703          	lw	a4,176(a5)
    1d04:	fff54513          	not	a0,a0
    1d08:	bf45                	j	1cb8 <GPIOA_ModeCfg+0x2e>
E:\Project\tp78\mounriver_project\RF_CH582M\obj/../StdPeriphDriver/CH58x_gpio.c:46
            R32_PA_PD_DRV &= ~pin;
    1d0a:	400017b7          	lui	a5,0x40001
    1d0e:	0b47a683          	lw	a3,180(a5) # 400010b4 <_eusrstack+0x1fff90b4>
    1d12:	fff54713          	not	a4,a0
    1d16:	8f75                	and	a4,a4,a3
E:\Project\tp78\mounriver_project\RF_CH582M\obj/../StdPeriphDriver/CH58x_gpio.c:51
            R32_PA_PD_DRV |= pin;
    1d18:	0ae7aa23          	sw	a4,180(a5)
E:\Project\tp78\mounriver_project\RF_CH582M\obj/../StdPeriphDriver/CH58x_gpio.c:52
            R32_PA_DIR |= pin;
    1d1c:	0a07a703          	lw	a4,160(a5)
    1d20:	8d59                	or	a0,a0,a4
    1d22:	b74d                	j	1cc4 <GPIOA_ModeCfg+0x3a>
E:\Project\tp78\mounriver_project\RF_CH582M\obj/../StdPeriphDriver/CH58x_gpio.c:51
            R32_PA_PD_DRV |= pin;
    1d24:	400017b7          	lui	a5,0x40001
    1d28:	0b47a703          	lw	a4,180(a5) # 400010b4 <_eusrstack+0x1fff90b4>
    1d2c:	8f49                	or	a4,a4,a0
    1d2e:	b7ed                	j	1d18 <GPIOA_ModeCfg+0x8e>

00001d30 <GetSysClock>:
GetSysClock():
E:\Project\tp78\mounriver_project\RF_CH582M\obj/../StdPeriphDriver/CH58x_sys.c:130
    rev = R16_CLK_SYS_CFG & 0xff;
    1d30:	400017b7          	lui	a5,0x40001
    1d34:	0087d503          	lhu	a0,8(a5) # 40001008 <_eusrstack+0x1fff9008>
    1d38:	0542                	slli	a0,a0,0x10
    1d3a:	8141                	srli	a0,a0,0x10
E:\Project\tp78\mounriver_project\RF_CH582M\obj/../StdPeriphDriver/CH58x_sys.c:131
    if((rev & 0x40) == (0 << 6))
    1d3c:	04057793          	andi	a5,a0,64
    1d40:	eb91                	bnez	a5,1d54 <GetSysClock+0x24>
E:\Project\tp78\mounriver_project\RF_CH582M\obj/../StdPeriphDriver/CH58x_sys.c:133
        return (32000000 / (rev & 0x1f));
    1d42:	01f57793          	andi	a5,a0,31
    1d46:	01e85537          	lui	a0,0x1e85
E:\Project\tp78\mounriver_project\RF_CH582M\obj/../StdPeriphDriver/CH58x_sys.c:137
        return (480000000 / (rev & 0x1f));
    1d4a:	80050513          	addi	a0,a0,-2048 # 1e84800 <_data_lma+0x1e7cf14>
    1d4e:	02f54533          	div	a0,a0,a5
    1d52:	8082                	ret
E:\Project\tp78\mounriver_project\RF_CH582M\obj/../StdPeriphDriver/CH58x_sys.c:135
    else if((rev & RB_CLK_SYS_MOD) == (1 << 6))
    1d54:	0c057793          	andi	a5,a0,192
    1d58:	04000713          	li	a4,64
    1d5c:	00e79763          	bne	a5,a4,1d6a <GetSysClock+0x3a>
E:\Project\tp78\mounriver_project\RF_CH582M\obj/../StdPeriphDriver/CH58x_sys.c:137
        return (480000000 / (rev & 0x1f));
    1d60:	01f57793          	andi	a5,a0,31
    1d64:	1c9c4537          	lui	a0,0x1c9c4
    1d68:	b7cd                	j	1d4a <GetSysClock+0x1a>
E:\Project\tp78\mounriver_project\RF_CH582M\obj/../StdPeriphDriver/CH58x_sys.c:141
        return (32000);
    1d6a:	6521                	lui	a0,0x8
    1d6c:	d0050513          	addi	a0,a0,-768 # 7d00 <_data_lma+0x414>
E:\Project\tp78\mounriver_project\RF_CH582M\obj/../StdPeriphDriver/CH58x_sys.c:143
}
    1d70:	8082                	ret

00001d72 <SYS_GetSysTickCnt>:
SYS_GetSysTickCnt():
E:\Project\tp78\mounriver_project\RF_CH582M\obj/../StdPeriphDriver/CH58x_sys.c:230
    val = SysTick->CNT;
    1d72:	e000f7b7          	lui	a5,0xe000f
    1d76:	4788                	lw	a0,8(a5)
    1d78:	47cc                	lw	a1,12(a5)
E:\Project\tp78\mounriver_project\RF_CH582M\obj/../StdPeriphDriver/CH58x_sys.c:232
}
    1d7a:	8082                	ret

00001d7c <_write>:
_write():
E:\Project\tp78\mounriver_project\RF_CH582M\obj/../StdPeriphDriver/CH58x_sys.c:390

#ifdef DEBUG
int _write(int fd, char *buf, int size)
{
    int i;
    for(i = 0; i < size; i++)
    1d7c:	4781                	li	a5,0
E:\Project\tp78\mounriver_project\RF_CH582M\obj/../StdPeriphDriver/CH58x_sys.c:396
    {
#if DEBUG == Debug_UART0
        while(R8_UART0_TFC == UART_FIFO_SIZE);                  /* 等待数据发送 */
        R8_UART0_THR = *buf++; /* 发送数据 */
#elif DEBUG == Debug_UART1
        while(R8_UART1_TFC == UART_FIFO_SIZE);                  /* 等待数据发送 */
    1d7e:	40003737          	lui	a4,0x40003
    1d82:	46a1                	li	a3,8
E:\Project\tp78\mounriver_project\RF_CH582M\obj/../StdPeriphDriver/CH58x_sys.c:390 (discriminator 1)
    for(i = 0; i < size; i++)
    1d84:	00c7c463          	blt	a5,a2,1d8c <_write+0x10>
E:\Project\tp78\mounriver_project\RF_CH582M\obj/../StdPeriphDriver/CH58x_sys.c:407
        while(R8_UART3_TFC == UART_FIFO_SIZE);                  /* 等待数据发送 */
        R8_UART3_THR = *buf++; /* 发送数据 */
#endif
    }
    return size;
}
    1d88:	8532                	mv	a0,a2
    1d8a:	8082                	ret
E:\Project\tp78\mounriver_project\RF_CH582M\obj/../StdPeriphDriver/CH58x_sys.c:396 (discriminator 1)
        while(R8_UART1_TFC == UART_FIFO_SIZE);                  /* 等待数据发送 */
    1d8c:	40b74503          	lbu	a0,1035(a4) # 4000340b <_eusrstack+0x1fffb40b>
    1d90:	fea68ee3          	beq	a3,a0,1d8c <_write+0x10>
E:\Project\tp78\mounriver_project\RF_CH582M\obj/../StdPeriphDriver/CH58x_sys.c:397 (discriminator 2)
        R8_UART1_THR = *buf++; /* 发送数据 */
    1d94:	00f58533          	add	a0,a1,a5
    1d98:	00054503          	lbu	a0,0(a0)
E:\Project\tp78\mounriver_project\RF_CH582M\obj/../StdPeriphDriver/CH58x_sys.c:390 (discriminator 2)
    for(i = 0; i < size; i++)
    1d9c:	0785                	addi	a5,a5,1
E:\Project\tp78\mounriver_project\RF_CH582M\obj/../StdPeriphDriver/CH58x_sys.c:397 (discriminator 2)
        R8_UART1_THR = *buf++; /* 发送数据 */
    1d9e:	40a70423          	sb	a0,1032(a4)
    1da2:	b7cd                	j	1d84 <_write+0x8>

00001da4 <UART1_BaudRateCfg>:
UART1_BaudRateCfg():
E:\Project\tp78\mounriver_project\RF_CH582M\obj/../StdPeriphDriver/CH58x_uart1.c:41
 * @param   baudrate    - 波特率
 *
 * @return  none
 */
void UART1_BaudRateCfg(uint32_t baudrate)
{
    1da4:	1141                	addi	sp,sp,-16
    1da6:	c422                	sw	s0,8(sp)
    1da8:	c606                	sw	ra,12(sp)
    1daa:	842a                	mv	s0,a0
E:\Project\tp78\mounriver_project\RF_CH582M\obj/../StdPeriphDriver/CH58x_uart1.c:44
    uint32_t x;

    x = 10 * GetSysClock() / 8 / baudrate;
    1dac:	3751                	jal	1d30 <GetSysClock>
    1dae:	4729                	li	a4,10
    1db0:	02e507b3          	mul	a5,a0,a4
E:\Project\tp78\mounriver_project\RF_CH582M\obj/../StdPeriphDriver/CH58x_uart1.c:47
    x = (x + 5) / 10;
    R16_UART1_DL = (uint16_t)x;
}
    1db4:	40b2                	lw	ra,12(sp)
E:\Project\tp78\mounriver_project\RF_CH582M\obj/../StdPeriphDriver/CH58x_uart1.c:44
    x = 10 * GetSysClock() / 8 / baudrate;
    1db6:	838d                	srli	a5,a5,0x3
    1db8:	0287d7b3          	divu	a5,a5,s0
E:\Project\tp78\mounriver_project\RF_CH582M\obj/../StdPeriphDriver/CH58x_uart1.c:47
}
    1dbc:	4422                	lw	s0,8(sp)
E:\Project\tp78\mounriver_project\RF_CH582M\obj/../StdPeriphDriver/CH58x_uart1.c:45
    x = (x + 5) / 10;
    1dbe:	0795                	addi	a5,a5,5
    1dc0:	02e7d7b3          	divu	a5,a5,a4
E:\Project\tp78\mounriver_project\RF_CH582M\obj/../StdPeriphDriver/CH58x_uart1.c:46
    R16_UART1_DL = (uint16_t)x;
    1dc4:	40003737          	lui	a4,0x40003
    1dc8:	07c2                	slli	a5,a5,0x10
    1dca:	83c1                	srli	a5,a5,0x10
    1dcc:	40f71623          	sh	a5,1036(a4) # 4000340c <_eusrstack+0x1fffb40c>
E:\Project\tp78\mounriver_project\RF_CH582M\obj/../StdPeriphDriver/CH58x_uart1.c:47
}
    1dd0:	0141                	addi	sp,sp,16
    1dd2:	8082                	ret

00001dd4 <UART1_DefInit>:
UART1_DefInit():
E:\Project\tp78\mounriver_project\RF_CH582M\obj/../StdPeriphDriver/CH58x_uart1.c:24
    UART1_BaudRateCfg(115200);
    1dd4:	6571                	lui	a0,0x1c
E:\Project\tp78\mounriver_project\RF_CH582M\obj/../StdPeriphDriver/CH58x_uart1.c:23
{
    1dd6:	1141                	addi	sp,sp,-16
E:\Project\tp78\mounriver_project\RF_CH582M\obj/../StdPeriphDriver/CH58x_uart1.c:24
    UART1_BaudRateCfg(115200);
    1dd8:	20050513          	addi	a0,a0,512 # 1c200 <_data_lma+0x14914>
E:\Project\tp78\mounriver_project\RF_CH582M\obj/../StdPeriphDriver/CH58x_uart1.c:23
{
    1ddc:	c606                	sw	ra,12(sp)
E:\Project\tp78\mounriver_project\RF_CH582M\obj/../StdPeriphDriver/CH58x_uart1.c:24
    UART1_BaudRateCfg(115200);
    1dde:	37d9                	jal	1da4 <UART1_BaudRateCfg>
E:\Project\tp78\mounriver_project\RF_CH582M\obj/../StdPeriphDriver/CH58x_uart1.c:25
    R8_UART1_FCR = (2 << 6) | RB_FCR_TX_FIFO_CLR | RB_FCR_RX_FIFO_CLR | RB_FCR_FIFO_EN; // FIFO打开，触发点4字节
    1de0:	400037b7          	lui	a5,0x40003
    1de4:	f8700713          	li	a4,-121
    1de8:	40e78123          	sb	a4,1026(a5) # 40003402 <_eusrstack+0x1fffb402>
E:\Project\tp78\mounriver_project\RF_CH582M\obj/../StdPeriphDriver/CH58x_uart1.c:26
    R8_UART1_LCR = RB_LCR_WORD_SZ;
    1dec:	470d                	li	a4,3
    1dee:	40e781a3          	sb	a4,1027(a5)
E:\Project\tp78\mounriver_project\RF_CH582M\obj/../StdPeriphDriver/CH58x_uart1.c:27
    R8_UART1_IER = RB_IER_TXD_EN;
    1df2:	04000713          	li	a4,64
    1df6:	40e780a3          	sb	a4,1025(a5)
E:\Project\tp78\mounriver_project\RF_CH582M\obj/../StdPeriphDriver/CH58x_uart1.c:28
    R8_UART1_DIV = 1;
    1dfa:	4705                	li	a4,1
    1dfc:	40e78723          	sb	a4,1038(a5)
E:\Project\tp78\mounriver_project\RF_CH582M\obj/../StdPeriphDriver/CH58x_uart1.c:29
}
    1e00:	40b2                	lw	ra,12(sp)
    1e02:	0141                	addi	sp,sp,16
    1e04:	8082                	ret

00001e06 <USB_DeviceInit>:
USB_DeviceInit():
E:\Project\tp78\mounriver_project\RF_CH582M\obj/../StdPeriphDriver/CH58x_usbdev.c:29
 *
 * @return  none
 */
void USB_DeviceInit(void)
{
    R8_USB_CTRL = 0x00; // 先设定模式,取消 RB_UC_CLR_ALL
    1e06:	400087b7          	lui	a5,0x40008
    1e0a:	00078023          	sb	zero,0(a5) # 40008000 <_eusrstack+0x20000000>
E:\Project\tp78\mounriver_project\RF_CH582M\obj/../StdPeriphDriver/CH58x_usbdev.c:31

    R8_UEP4_1_MOD = RB_UEP4_RX_EN | RB_UEP4_TX_EN | RB_UEP1_RX_EN | RB_UEP1_TX_EN; // 端点4 OUT+IN,端点1 OUT+IN
    1e0e:	fcc00713          	li	a4,-52
    1e12:	00e78623          	sb	a4,12(a5)
E:\Project\tp78\mounriver_project\RF_CH582M\obj/../StdPeriphDriver/CH58x_usbdev.c:32
    R8_UEP2_3_MOD = RB_UEP2_RX_EN | RB_UEP2_TX_EN | RB_UEP3_RX_EN | RB_UEP3_TX_EN; // 端点2 OUT+IN,端点3 OUT+IN
    1e16:	00e786a3          	sb	a4,13(a5)
E:\Project\tp78\mounriver_project\RF_CH582M\obj/../StdPeriphDriver/CH58x_usbdev.c:34

    R16_UEP0_DMA = (uint16_t)(uint32_t)pEP0_RAM_Addr;
    1e1a:	82c1d703          	lhu	a4,-2004(gp) # 20001764 <pEP0_RAM_Addr>
    1e1e:	00e79823          	sh	a4,16(a5)
E:\Project\tp78\mounriver_project\RF_CH582M\obj/../StdPeriphDriver/CH58x_usbdev.c:35
    R16_UEP1_DMA = (uint16_t)(uint32_t)pEP1_RAM_Addr;
    1e22:	8301d703          	lhu	a4,-2000(gp) # 20001768 <pEP1_RAM_Addr>
    1e26:	00e79a23          	sh	a4,20(a5)
E:\Project\tp78\mounriver_project\RF_CH582M\obj/../StdPeriphDriver/CH58x_usbdev.c:36
    R16_UEP2_DMA = (uint16_t)(uint32_t)pEP2_RAM_Addr;
    1e2a:	8241d703          	lhu	a4,-2012(gp) # 2000175c <pEP2_RAM_Addr>
    1e2e:	00e79c23          	sh	a4,24(a5)
E:\Project\tp78\mounriver_project\RF_CH582M\obj/../StdPeriphDriver/CH58x_usbdev.c:37
    R16_UEP3_DMA = (uint16_t)(uint32_t)pEP3_RAM_Addr;
    1e32:	8281d703          	lhu	a4,-2008(gp) # 20001760 <pEP3_RAM_Addr>
    1e36:	00e79e23          	sh	a4,28(a5)
E:\Project\tp78\mounriver_project\RF_CH582M\obj/../StdPeriphDriver/CH58x_usbdev.c:39

    R8_UEP0_CTRL = UEP_R_RES_ACK | UEP_T_RES_NAK;
    1e3a:	4689                	li	a3,2
    1e3c:	02d78123          	sb	a3,34(a5)
E:\Project\tp78\mounriver_project\RF_CH582M\obj/../StdPeriphDriver/CH58x_usbdev.c:40
    R8_UEP1_CTRL = UEP_R_RES_ACK | UEP_T_RES_NAK | RB_UEP_AUTO_TOG;
    1e40:	4749                	li	a4,18
    1e42:	02e78323          	sb	a4,38(a5)
E:\Project\tp78\mounriver_project\RF_CH582M\obj/../StdPeriphDriver/CH58x_usbdev.c:41
    R8_UEP2_CTRL = UEP_R_RES_ACK | UEP_T_RES_NAK | RB_UEP_AUTO_TOG;
    1e46:	02e78523          	sb	a4,42(a5)
E:\Project\tp78\mounriver_project\RF_CH582M\obj/../StdPeriphDriver/CH58x_usbdev.c:42
    R8_UEP3_CTRL = UEP_R_RES_ACK | UEP_T_RES_NAK | RB_UEP_AUTO_TOG;
    1e4a:	02e78723          	sb	a4,46(a5)
E:\Project\tp78\mounriver_project\RF_CH582M\obj/../StdPeriphDriver/CH58x_usbdev.c:43
    R8_UEP4_CTRL = UEP_R_RES_ACK | UEP_T_RES_NAK;
    1e4e:	02d78923          	sb	a3,50(a5)
E:\Project\tp78\mounriver_project\RF_CH582M\obj/../StdPeriphDriver/CH58x_usbdev.c:45

    R8_USB_DEV_AD = 0x00;
    1e52:	000781a3          	sb	zero,3(a5)
E:\Project\tp78\mounriver_project\RF_CH582M\obj/../StdPeriphDriver/CH58x_usbdev.c:46
    R8_USB_CTRL = RB_UC_DEV_PU_EN | RB_UC_INT_BUSY | RB_UC_DMA_EN; // 启动USB设备及DMA，在中断期间中断标志未清除前自动返回NAK
    1e56:	02900713          	li	a4,41
    1e5a:	00e78023          	sb	a4,0(a5)
E:\Project\tp78\mounriver_project\RF_CH582M\obj/../StdPeriphDriver/CH58x_usbdev.c:47
    R16_PIN_ANALOG_IE |= RB_PIN_USB_IE | RB_PIN_USB_DP_PU;         // 防止USB端口浮空及上拉电阻
    1e5e:	400016b7          	lui	a3,0x40001
    1e62:	01a6d703          	lhu	a4,26(a3) # 4000101a <_eusrstack+0x1fff901a>
    1e66:	0c076713          	ori	a4,a4,192
    1e6a:	00e69d23          	sh	a4,26(a3)
E:\Project\tp78\mounriver_project\RF_CH582M\obj/../StdPeriphDriver/CH58x_usbdev.c:48
    R8_USB_INT_FG = 0xFF;                                          // 清中断标志
    1e6e:	577d                	li	a4,-1
    1e70:	00e78323          	sb	a4,6(a5)
E:\Project\tp78\mounriver_project\RF_CH582M\obj/../StdPeriphDriver/CH58x_usbdev.c:49
    R8_UDEV_CTRL = RB_UD_PD_DIS | RB_UD_PORT_EN;                   // 允许USB端口
    1e74:	f8100713          	li	a4,-127
    1e78:	00e780a3          	sb	a4,1(a5)
E:\Project\tp78\mounriver_project\RF_CH582M\obj/../StdPeriphDriver/CH58x_usbdev.c:50
    R8_USB_INT_EN = RB_UIE_SUSPEND | RB_UIE_BUS_RST | RB_UIE_TRANSFER;
    1e7c:	471d                	li	a4,7
    1e7e:	00e78123          	sb	a4,2(a5)
E:\Project\tp78\mounriver_project\RF_CH582M\obj/../StdPeriphDriver/CH58x_usbdev.c:51
}
    1e82:	8082                	ret

00001e84 <DevEP1_IN_Deal>:
DevEP1_IN_Deal():
E:\Project\tp78\mounriver_project\RF_CH582M\obj/../StdPeriphDriver/CH58x_usbdev.c:64
 *
 * @return  none
 */
void DevEP1_IN_Deal(uint8_t l)
{
    R8_UEP1_T_LEN = l;
    1e84:	400087b7          	lui	a5,0x40008
    1e88:	02a78223          	sb	a0,36(a5) # 40008024 <_eusrstack+0x20000024>
E:\Project\tp78\mounriver_project\RF_CH582M\obj/../StdPeriphDriver/CH58x_usbdev.c:65
    R8_UEP1_CTRL = (R8_UEP1_CTRL & ~MASK_UEP_T_RES) | UEP_T_RES_ACK;
    1e8c:	0267c703          	lbu	a4,38(a5)
    1e90:	0fc77713          	andi	a4,a4,252
    1e94:	02e78323          	sb	a4,38(a5)
E:\Project\tp78\mounriver_project\RF_CH582M\obj/../StdPeriphDriver/CH58x_usbdev.c:66
}
    1e98:	8082                	ret

00001e9a <DevEP2_IN_Deal>:
DevEP2_IN_Deal():
E:\Project\tp78\mounriver_project\RF_CH582M\obj/../StdPeriphDriver/CH58x_usbdev.c:79
 *
 * @return  none
 */
void DevEP2_IN_Deal(uint8_t l)
{
    R8_UEP2_T_LEN = l;
    1e9a:	400087b7          	lui	a5,0x40008
    1e9e:	02a78423          	sb	a0,40(a5) # 40008028 <_eusrstack+0x20000028>
E:\Project\tp78\mounriver_project\RF_CH582M\obj/../StdPeriphDriver/CH58x_usbdev.c:80
    R8_UEP2_CTRL = (R8_UEP2_CTRL & ~MASK_UEP_T_RES) | UEP_T_RES_ACK;
    1ea2:	02a7c703          	lbu	a4,42(a5)
    1ea6:	0fc77713          	andi	a4,a4,252
    1eaa:	02e78523          	sb	a4,42(a5)
E:\Project\tp78\mounriver_project\RF_CH582M\obj/../StdPeriphDriver/CH58x_usbdev.c:81
}
    1eae:	8082                	ret

00001eb0 <DevEP3_IN_Deal>:
DevEP3_IN_Deal():
E:\Project\tp78\mounriver_project\RF_CH582M\obj/../StdPeriphDriver/CH58x_usbdev.c:94
 *
 * @return  none
 */
void DevEP3_IN_Deal(uint8_t l)
{
    R8_UEP3_T_LEN = l;
    1eb0:	400087b7          	lui	a5,0x40008
    1eb4:	02a78623          	sb	a0,44(a5) # 4000802c <_eusrstack+0x2000002c>
E:\Project\tp78\mounriver_project\RF_CH582M\obj/../StdPeriphDriver/CH58x_usbdev.c:95
    R8_UEP3_CTRL = (R8_UEP3_CTRL & ~MASK_UEP_T_RES) | UEP_T_RES_ACK;
    1eb8:	02e7c703          	lbu	a4,46(a5)
    1ebc:	0fc77713          	andi	a4,a4,252
    1ec0:	02e78723          	sb	a4,46(a5)
E:\Project\tp78\mounriver_project\RF_CH582M\obj/../StdPeriphDriver/CH58x_usbdev.c:96
}
    1ec4:	8082                	ret

00001ec6 <DevEP4_IN_Deal>:
DevEP4_IN_Deal():
E:\Project\tp78\mounriver_project\RF_CH582M\obj/../StdPeriphDriver/CH58x_usbdev.c:109
 *
 * @return  none
 */
void DevEP4_IN_Deal(uint8_t l)
{
    R8_UEP4_T_LEN = l;
    1ec6:	400087b7          	lui	a5,0x40008
    1eca:	02a78823          	sb	a0,48(a5) # 40008030 <_eusrstack+0x20000030>
E:\Project\tp78\mounriver_project\RF_CH582M\obj/../StdPeriphDriver/CH58x_usbdev.c:110
    R8_UEP4_CTRL = (R8_UEP4_CTRL & ~MASK_UEP_T_RES) | UEP_T_RES_ACK;
    1ece:	0327c703          	lbu	a4,50(a5)
    1ed2:	0fc77713          	andi	a4,a4,252
    1ed6:	02e78923          	sb	a4,50(a5)
E:\Project\tp78\mounriver_project\RF_CH582M\obj/../StdPeriphDriver/CH58x_usbdev.c:111
}
    1eda:	8082                	ret

00001edc <Lib_Calibration_LSI>:
Lib_Calibration_LSI():
E:\Project\tp78\mounriver_project\RF_CH582M\obj/../HAL/MCU.c:28
 *
 * @return  None.
 */
void Lib_Calibration_LSI(void)
{
    Calibration_LSI(Level_64);
    1edc:	4511                	li	a0,4
    1ede:	baa5                	j	1856 <Calibration_LSI>

00001ee0 <Lib_Read_Flash>:
Lib_Read_Flash():
E:\Project\tp78\mounriver_project\RF_CH582M\obj/../HAL/MCU.c:44
 * @param   pBuf - Buffer to store read data
 *
 * @return  None.
 */
uint32_t Lib_Read_Flash(uint32_t addr, uint32_t num, uint32_t *pBuf)
{
    1ee0:	1141                	addi	sp,sp,-16
E:\Project\tp78\mounriver_project\RF_CH582M\obj/../HAL/MCU.c:45
    EEPROM_READ(addr, pBuf, num * 4);
    1ee2:	00259693          	slli	a3,a1,0x2
    1ee6:	85aa                	mv	a1,a0
    1ee8:	452d                	li	a0,11
E:\Project\tp78\mounriver_project\RF_CH582M\obj/../HAL/MCU.c:44
{
    1eea:	c606                	sw	ra,12(sp)
E:\Project\tp78\mounriver_project\RF_CH582M\obj/../HAL/MCU.c:45
    EEPROM_READ(addr, pBuf, num * 4);
    1eec:	1fffe097          	auipc	ra,0x1fffe
    1ef0:	4dc080e7          	jalr	1244(ra) # 200003c8 <FLASH_EEPROM_CMD>
E:\Project\tp78\mounriver_project\RF_CH582M\obj/../HAL/MCU.c:47
    return 0;
}
    1ef4:	40b2                	lw	ra,12(sp)
    1ef6:	4501                	li	a0,0
    1ef8:	0141                	addi	sp,sp,16
    1efa:	8082                	ret

00001efc <Lib_Write_Flash>:
Lib_Write_Flash():
E:\Project\tp78\mounriver_project\RF_CH582M\obj/../HAL/MCU.c:61
 * @param   pBuf - Buffer with data to be written
 *
 * @return  None.
 */
uint32_t Lib_Write_Flash(uint32_t addr, uint32_t num, uint32_t *pBuf)
{
    1efc:	1141                	addi	sp,sp,-16
    1efe:	c226                	sw	s1,4(sp)
E:\Project\tp78\mounriver_project\RF_CH582M\obj/../HAL/MCU.c:62
    EEPROM_ERASE(addr, num * 4);
    1f00:	00259493          	slli	s1,a1,0x2
E:\Project\tp78\mounriver_project\RF_CH582M\obj/../HAL/MCU.c:61
{
    1f04:	c422                	sw	s0,8(sp)
    1f06:	c04a                	sw	s2,0(sp)
    1f08:	842a                	mv	s0,a0
    1f0a:	8932                	mv	s2,a2
E:\Project\tp78\mounriver_project\RF_CH582M\obj/../HAL/MCU.c:62
    EEPROM_ERASE(addr, num * 4);
    1f0c:	86a6                	mv	a3,s1
    1f0e:	85aa                	mv	a1,a0
    1f10:	4601                	li	a2,0
    1f12:	4525                	li	a0,9
E:\Project\tp78\mounriver_project\RF_CH582M\obj/../HAL/MCU.c:61
{
    1f14:	c606                	sw	ra,12(sp)
E:\Project\tp78\mounriver_project\RF_CH582M\obj/../HAL/MCU.c:62
    EEPROM_ERASE(addr, num * 4);
    1f16:	1fffe097          	auipc	ra,0x1fffe
    1f1a:	4b2080e7          	jalr	1202(ra) # 200003c8 <FLASH_EEPROM_CMD>
E:\Project\tp78\mounriver_project\RF_CH582M\obj/../HAL/MCU.c:63
    EEPROM_WRITE(addr, pBuf, num * 4);
    1f1e:	86a6                	mv	a3,s1
    1f20:	864a                	mv	a2,s2
    1f22:	85a2                	mv	a1,s0
    1f24:	4529                	li	a0,10
    1f26:	1fffe097          	auipc	ra,0x1fffe
    1f2a:	4a2080e7          	jalr	1186(ra) # 200003c8 <FLASH_EEPROM_CMD>
E:\Project\tp78\mounriver_project\RF_CH582M\obj/../HAL/MCU.c:65
    return 0;
}
    1f2e:	40b2                	lw	ra,12(sp)
    1f30:	4422                	lw	s0,8(sp)
    1f32:	4492                	lw	s1,4(sp)
    1f34:	4902                	lw	s2,0(sp)
    1f36:	4501                	li	a0,0
    1f38:	0141                	addi	sp,sp,16
    1f3a:	8082                	ret

00001f3c <HAL_GetInterTempValue>:
HAL_GetInterTempValue():
E:\Project\tp78\mounriver_project\RF_CH582M\obj/../HAL/MCU.c:239
 * @brief   获取内部温感采样值，如果使用了ADC中断采样，需在此函数中暂时屏蔽中断.
 *
 * @return  内部温感采样值.
 */
uint16_t HAL_GetInterTempValue(void)
{
    1f3c:	1101                	addi	sp,sp,-32
    1f3e:	cc22                	sw	s0,24(sp)
    1f40:	ce06                	sw	ra,28(sp)
E:\Project\tp78\mounriver_project\RF_CH582M\obj/../HAL/MCU.c:243
    uint8_t  sensor, channel, config, tkey_cfg;
    uint16_t adc_data;

    tkey_cfg = R8_TKEY_CFG;
    1f42:	40001437          	lui	s0,0x40001
E:\Project\tp78\mounriver_project\RF_CH582M\obj/../HAL/MCU.c:239
{
    1f46:	ca26                	sw	s1,20(sp)
    1f48:	c84a                	sw	s2,16(sp)
    1f4a:	c64e                	sw	s3,12(sp)
    1f4c:	c452                	sw	s4,8(sp)
E:\Project\tp78\mounriver_project\RF_CH582M\obj/../HAL/MCU.c:243
    tkey_cfg = R8_TKEY_CFG;
    1f4e:	05744483          	lbu	s1,87(s0) # 40001057 <_eusrstack+0x1fff9057>
E:\Project\tp78\mounriver_project\RF_CH582M\obj/../HAL/MCU.c:244
    sensor = R8_TEM_SENSOR;
    1f52:	05b44a03          	lbu	s4,91(s0)
E:\Project\tp78\mounriver_project\RF_CH582M\obj/../HAL/MCU.c:245
    channel = R8_ADC_CHANNEL;
    1f56:	05844983          	lbu	s3,88(s0)
E:\Project\tp78\mounriver_project\RF_CH582M\obj/../HAL/MCU.c:246
    config = R8_ADC_CFG;
    1f5a:	05944903          	lbu	s2,89(s0)
E:\Project\tp78\mounriver_project\RF_CH582M\obj/../HAL/MCU.c:247
    ADC_InterTSSampInit();
    1f5e:	38c1                	jal	182e <ADC_InterTSSampInit>
E:\Project\tp78\mounriver_project\RF_CH582M\obj/../HAL/MCU.c:248
    R8_ADC_CONVERT |= RB_ADC_START;
    1f60:	05a44783          	lbu	a5,90(s0)
E:\Project\tp78\mounriver_project\RF_CH582M\obj/../HAL/MCU.c:243
    tkey_cfg = R8_TKEY_CFG;
    1f64:	0ff4f493          	andi	s1,s1,255
E:\Project\tp78\mounriver_project\RF_CH582M\obj/../HAL/MCU.c:244
    sensor = R8_TEM_SENSOR;
    1f68:	0ffa7a13          	andi	s4,s4,255
E:\Project\tp78\mounriver_project\RF_CH582M\obj/../HAL/MCU.c:248
    R8_ADC_CONVERT |= RB_ADC_START;
    1f6c:	0017e793          	ori	a5,a5,1
    1f70:	04f40d23          	sb	a5,90(s0)
E:\Project\tp78\mounriver_project\RF_CH582M\obj/../HAL/MCU.c:245
    channel = R8_ADC_CHANNEL;
    1f74:	0ff9f993          	andi	s3,s3,255
E:\Project\tp78\mounriver_project\RF_CH582M\obj/../HAL/MCU.c:246
    config = R8_ADC_CFG;
    1f78:	0ff97913          	andi	s2,s2,255
E:\Project\tp78\mounriver_project\RF_CH582M\obj/../HAL/MCU.c:249
    while(R8_ADC_CONVERT & RB_ADC_START);
    1f7c:	400017b7          	lui	a5,0x40001
E:\Project\tp78\mounriver_project\RF_CH582M\obj/../HAL/MCU.c:249 (discriminator 1)
    1f80:	05a7c703          	lbu	a4,90(a5) # 4000105a <_eusrstack+0x1fff905a>
    1f84:	8b05                	andi	a4,a4,1
    1f86:	ff6d                	bnez	a4,1f80 <HAL_GetInterTempValue+0x44>
E:\Project\tp78\mounriver_project\RF_CH582M\obj/../HAL/MCU.c:250
    adc_data = R16_ADC_DATA;
    1f88:	05c7d503          	lhu	a0,92(a5)
E:\Project\tp78\mounriver_project\RF_CH582M\obj/../HAL/MCU.c:251
    R8_TEM_SENSOR = sensor;
    1f8c:	05478da3          	sb	s4,91(a5)
E:\Project\tp78\mounriver_project\RF_CH582M\obj/../HAL/MCU.c:252
    R8_ADC_CHANNEL = channel;
    1f90:	05378c23          	sb	s3,88(a5)
E:\Project\tp78\mounriver_project\RF_CH582M\obj/../HAL/MCU.c:253
    R8_ADC_CFG = config;
    1f94:	05278ca3          	sb	s2,89(a5)
E:\Project\tp78\mounriver_project\RF_CH582M\obj/../HAL/MCU.c:254
    R8_TKEY_CFG = tkey_cfg;
    1f98:	04978ba3          	sb	s1,87(a5)
E:\Project\tp78\mounriver_project\RF_CH582M\obj/../HAL/MCU.c:256
    return (adc_data);
}
    1f9c:	40f2                	lw	ra,28(sp)
    1f9e:	4462                	lw	s0,24(sp)
    1fa0:	44d2                	lw	s1,20(sp)
    1fa2:	4942                	lw	s2,16(sp)
    1fa4:	49b2                	lw	s3,12(sp)
    1fa6:	4a22                	lw	s4,8(sp)
    1fa8:	6105                	addi	sp,sp,32
    1faa:	8082                	ret

00001fac <HAL_ProcessEvent>:
HAL_ProcessEvent():
E:\Project\tp78\mounriver_project\RF_CH582M\obj/../HAL/MCU.c:155
{
    1fac:	1141                	addi	sp,sp,-16
E:\Project\tp78\mounriver_project\RF_CH582M\obj/../HAL/MCU.c:158
    if(events & SYS_EVENT_MSG)
    1fae:	01059793          	slli	a5,a1,0x10
E:\Project\tp78\mounriver_project\RF_CH582M\obj/../HAL/MCU.c:155
{
    1fb2:	c422                	sw	s0,8(sp)
    1fb4:	c606                	sw	ra,12(sp)
E:\Project\tp78\mounriver_project\RF_CH582M\obj/../HAL/MCU.c:158
    if(events & SYS_EVENT_MSG)
    1fb6:	87c1                	srai	a5,a5,0x10
E:\Project\tp78\mounriver_project\RF_CH582M\obj/../HAL/MCU.c:155
{
    1fb8:	842e                	mv	s0,a1
E:\Project\tp78\mounriver_project\RF_CH582M\obj/../HAL/MCU.c:158
    if(events & SYS_EVENT_MSG)
    1fba:	0007dd63          	bgez	a5,1fd4 <HAL_ProcessEvent+0x28>
E:\Project\tp78\mounriver_project\RF_CH582M\obj/../HAL/MCU.c:160
        msgPtr = tmos_msg_receive(task_id);
    1fbe:	43b000ef          	jal	ra,2bf8 <tmos_msg_receive>
E:\Project\tp78\mounriver_project\RF_CH582M\obj/../HAL/MCU.c:161
        if(msgPtr)
    1fc2:	c119                	beqz	a0,1fc8 <HAL_ProcessEvent+0x1c>
E:\Project\tp78\mounriver_project\RF_CH582M\obj/../HAL/MCU.c:164
            tmos_msg_deallocate(msgPtr);
    1fc4:	409000ef          	jal	ra,2bcc <tmos_msg_deallocate>
E:\Project\tp78\mounriver_project\RF_CH582M\obj/../HAL/MCU.c:166
        return events ^ SYS_EVENT_MSG;
    1fc8:	6521                	lui	a0,0x8
E:\Project\tp78\mounriver_project\RF_CH582M\obj/../HAL/MCU.c:198
        return events ^ HAL_TEST_EVENT;
    1fca:	8d21                	xor	a0,a0,s0
E:\Project\tp78\mounriver_project\RF_CH582M\obj/../HAL/MCU.c:201
}
    1fcc:	40b2                	lw	ra,12(sp)
    1fce:	4422                	lw	s0,8(sp)
    1fd0:	0141                	addi	sp,sp,16
    1fd2:	8082                	ret
E:\Project\tp78\mounriver_project\RF_CH582M\obj/../HAL/MCU.c:168
    if(events & LED_BLINK_EVENT)
    1fd4:	0015f793          	andi	a5,a1,1
E:\Project\tp78\mounriver_project\RF_CH582M\obj/../HAL/MCU.c:173
        return events ^ LED_BLINK_EVENT;
    1fd8:	0015c513          	xori	a0,a1,1
E:\Project\tp78\mounriver_project\RF_CH582M\obj/../HAL/MCU.c:168
    if(events & LED_BLINK_EVENT)
    1fdc:	fbe5                	bnez	a5,1fcc <HAL_ProcessEvent+0x20>
E:\Project\tp78\mounriver_project\RF_CH582M\obj/../HAL/MCU.c:183
    if(events & HAL_REG_INIT_EVENT)
    1fde:	01259793          	slli	a5,a1,0x12
    1fe2:	0207d063          	bgez	a5,2002 <HAL_ProcessEvent+0x56>
E:\Project\tp78\mounriver_project\RF_CH582M\obj/../HAL/MCU.c:186
        BLE_RegInit();                                                  // 校准RF
    1fe6:	4c5010ef          	jal	ra,3caa <BLE_RegInit>
E:\Project\tp78\mounriver_project\RF_CH582M\obj/../HAL/MCU.c:188
        Lib_Calibration_LSI(); // 校准内部RC
    1fea:	3dcd                	jal	1edc <Lib_Calibration_LSI>
E:\Project\tp78\mounriver_project\RF_CH582M\obj/../HAL/MCU.c:190
        tmos_start_task(halTaskID, HAL_REG_INIT_EVENT, MS1_TO_SYSTEM_TIME(BLE_CALIBRATION_PERIOD));
    1fec:	0002f637          	lui	a2,0x2f
    1ff0:	e0060613          	addi	a2,a2,-512 # 2ee00 <_data_lma+0x27514>
    1ff4:	6589                	lui	a1,0x2
    1ff6:	8341c503          	lbu	a0,-1996(gp) # 2000176c <halTaskID>
    1ffa:	735000ef          	jal	ra,2f2e <tmos_start_task>
E:\Project\tp78\mounriver_project\RF_CH582M\obj/../HAL/MCU.c:191
        return events ^ HAL_REG_INIT_EVENT;
    1ffe:	6509                	lui	a0,0x2
    2000:	b7e9                	j	1fca <HAL_ProcessEvent+0x1e>
E:\Project\tp78\mounriver_project\RF_CH582M\obj/../HAL/MCU.c:194
    if(events & HAL_TEST_EVENT)
    2002:	01159793          	slli	a5,a1,0x11
E:\Project\tp78\mounriver_project\RF_CH582M\obj/../HAL/MCU.c:200
    return 0;
    2006:	4501                	li	a0,0
E:\Project\tp78\mounriver_project\RF_CH582M\obj/../HAL/MCU.c:194
    if(events & HAL_TEST_EVENT)
    2008:	fc07d2e3          	bgez	a5,1fcc <HAL_ProcessEvent+0x20>
E:\Project\tp78\mounriver_project\RF_CH582M\obj/../HAL/MCU.c:196
        PRINT("* \n");
    200c:	00005517          	auipc	a0,0x5
    2010:	62450513          	addi	a0,a0,1572 # 7630 <_sbrk+0x82>
    2014:	3b2040ef          	jal	ra,63c6 <puts>
E:\Project\tp78\mounriver_project\RF_CH582M\obj/../HAL/MCU.c:197
        tmos_start_task(halTaskID, HAL_TEST_EVENT, MS1_TO_SYSTEM_TIME(1000));
    2018:	64000613          	li	a2,1600
    201c:	6591                	lui	a1,0x4
    201e:	8341c503          	lbu	a0,-1996(gp) # 2000176c <halTaskID>
    2022:	70d000ef          	jal	ra,2f2e <tmos_start_task>
E:\Project\tp78\mounriver_project\RF_CH582M\obj/../HAL/MCU.c:198
        return events ^ HAL_TEST_EVENT;
    2026:	6511                	lui	a0,0x4
    2028:	b74d                	j	1fca <HAL_ProcessEvent+0x1e>

0000202a <CH58X_BLEInit>:
CH58X_BLEInit():
E:\Project\tp78\mounriver_project\RF_CH582M\obj/../HAL/MCU.c:78
{
    202a:	711d                	addi	sp,sp,-96
E:\Project\tp78\mounriver_project\RF_CH582M\obj/../HAL/MCU.c:81
    if(tmos_memcmp(VER_LIB, VER_FILE, strlen(VER_FILE)) == FALSE)
    202c:	4649                	li	a2,18
    202e:	00005597          	auipc	a1,0x5
    2032:	5ba58593          	addi	a1,a1,1466 # 75e8 <_sbrk+0x3a>
    2036:	00005517          	auipc	a0,0x5
    203a:	7fe50513          	addi	a0,a0,2046 # 7834 <VER_LIB>
E:\Project\tp78\mounriver_project\RF_CH582M\obj/../HAL/MCU.c:78
{
    203e:	ce86                	sw	ra,92(sp)
E:\Project\tp78\mounriver_project\RF_CH582M\obj/../HAL/MCU.c:81
    if(tmos_memcmp(VER_LIB, VER_FILE, strlen(VER_FILE)) == FALSE)
    2040:	1fffe097          	auipc	ra,0x1fffe
    2044:	782080e7          	jalr	1922(ra) # 200007c2 <tmos_memcmp>
    2048:	e901                	bnez	a0,2058 <CH58X_BLEInit+0x2e>
E:\Project\tp78\mounriver_project\RF_CH582M\obj/../HAL/MCU.c:83
        PRINT("head file error...\n");
    204a:	00005517          	auipc	a0,0x5
    204e:	5b250513          	addi	a0,a0,1458 # 75fc <_sbrk+0x4e>
    2052:	374040ef          	jal	ra,63c6 <puts>
E:\Project\tp78\mounriver_project\RF_CH582M\obj/../HAL/MCU.c:84 (discriminator 1)
        while(1);
    2056:	a001                	j	2056 <CH58X_BLEInit+0x2c>
SysTick_Config():
E:\Project\tp78\mounriver_project\RF_CH582M\RVMSIS/core_riscv.h:365
RV_STATIC_INLINE uint32_t SysTick_Config(uint64_t ticks)
{
    if((ticks - 1) > SysTick_LOAD_RELOAD_Msk)
        return (1); /* Reload value impossible */

    SysTick->CMP = ticks - 1; /* set reload register */
    2058:	e000f6b7          	lui	a3,0xe000f
    205c:	5779                	li	a4,-2
    205e:	ca98                	sw	a4,16(a3)
    2060:	57fd                	li	a5,-1
    2062:	cadc                	sw	a5,20(a3)
PFIC_EnableIRQ():
E:\Project\tp78\mounriver_project\RF_CH582M\RVMSIS/core_riscv.h:110
    PFIC->IENR[((uint32_t)(IRQn) >> 5)] = (1 << ((uint32_t)(IRQn)&0x1F));
    2064:	6705                	lui	a4,0x1
    2066:	e000e7b7          	lui	a5,0xe000e
    206a:	10e7a023          	sw	a4,256(a5) # e000e100 <_eusrstack+0xc0006100>
SysTick_Config():
E:\Project\tp78\mounriver_project\RF_CH582M\RVMSIS/core_riscv.h:367
    PFIC_EnableIRQ(SysTick_IRQn);
    SysTick->CTLR = SysTick_CTLR_INIT |
    206e:	02f00613          	li	a2,47
    2072:	c290                	sw	a2,0(a3)
PFIC_DisableIRQ():
E:\Project\tp78\mounriver_project\RF_CH582M\RVMSIS/core_riscv.h:122
    PFIC->IRER[((uint32_t)(IRQn) >> 5)] = (1 << ((uint32_t)(IRQn)&0x1F));
    2074:	18e7a023          	sw	a4,384(a5)
E:\Project\tp78\mounriver_project\RF_CH582M\RVMSIS/core_riscv.h:123
    __nop();
    2078:	0001                	nop
E:\Project\tp78\mounriver_project\RF_CH582M\RVMSIS/core_riscv.h:124
    __nop();
    207a:	0001                	nop
CH58X_BLEInit():
E:\Project\tp78\mounriver_project\RF_CH582M\obj/../HAL/MCU.c:89
    tmos_memset(&cfg, 0, sizeof(bleConfig_t));
    207c:	03c00613          	li	a2,60
    2080:	4581                	li	a1,0
    2082:	0848                	addi	a0,sp,20
    2084:	1fffe097          	auipc	ra,0x1fffe
    2088:	6e6080e7          	jalr	1766(ra) # 2000076a <tmos_memset>
E:\Project\tp78\mounriver_project\RF_CH582M\obj/../HAL/MCU.c:90
    cfg.MEMAddr = (uint32_t)MEM_BUF;
    208c:	20000797          	auipc	a5,0x20000
    2090:	94478793          	addi	a5,a5,-1724 # 200019d0 <MEM_BUF>
    2094:	ca3e                	sw	a5,20(sp)
E:\Project\tp78\mounriver_project\RF_CH582M\obj/../HAL/MCU.c:91
    cfg.MEMLen = (uint32_t)BLE_MEMHEAP_SIZE;
    2096:	6789                	lui	a5,0x2
    2098:	80078793          	addi	a5,a5,-2048 # 1800 <memset+0x7a>
    209c:	00f11c23          	sh	a5,24(sp)
E:\Project\tp78\mounriver_project\RF_CH582M\obj/../HAL/MCU.c:92
    cfg.BufMaxLen = (uint32_t)BLE_BUFF_MAX_LEN;
    20a0:	47ed                	li	a5,27
    20a2:	02f11223          	sh	a5,36(sp)
E:\Project\tp78\mounriver_project\RF_CH582M\obj/../HAL/MCU.c:93
    cfg.BufNumber = (uint32_t)BLE_BUFF_NUM;
    20a6:	4795                	li	a5,5
    20a8:	02f101a3          	sb	a5,35(sp)
E:\Project\tp78\mounriver_project\RF_CH582M\obj/../HAL/MCU.c:94
    cfg.TxNumEvent = (uint32_t)BLE_TX_NUM_EVENT;
    20ac:	4785                	li	a5,1
    20ae:	02f10323          	sb	a5,38(sp)
E:\Project\tp78\mounriver_project\RF_CH582M\obj/../HAL/MCU.c:95
    cfg.TxPower = (uint32_t)BLE_TX_POWER;
    20b2:	47b5                	li	a5,13
    20b4:	02f10423          	sb	a5,40(sp)
E:\Project\tp78\mounriver_project\RF_CH582M\obj/../HAL/MCU.c:97
    cfg.SNVAddr = (uint32_t)BLE_SNV_ADDR;
    20b8:	67a1                	lui	a5,0x8
    20ba:	e0078793          	addi	a5,a5,-512 # 7e00 <_data_lma+0x514>
    20be:	ce3e                	sw	a5,28(sp)
E:\Project\tp78\mounriver_project\RF_CH582M\obj/../HAL/MCU.c:98
    cfg.readFlashCB = Lib_Read_Flash;
    20c0:	00000797          	auipc	a5,0x0
    20c4:	e2078793          	addi	a5,a5,-480 # 1ee0 <Lib_Read_Flash>
    20c8:	c4be                	sw	a5,72(sp)
E:\Project\tp78\mounriver_project\RF_CH582M\obj/../HAL/MCU.c:99
    cfg.writeFlashCB = Lib_Write_Flash;
    20ca:	00000797          	auipc	a5,0x0
    20ce:	e3278793          	addi	a5,a5,-462 # 1efc <Lib_Write_Flash>
    20d2:	c6be                	sw	a5,76(sp)
E:\Project\tp78\mounriver_project\RF_CH582M\obj/../HAL/MCU.c:102
    cfg.SelRTCClock = (uint32_t)CLK_OSC32K;
    20d4:	6785                	lui	a5,0x1
    20d6:	d0178793          	addi	a5,a5,-767 # d01 <_einit+0xcfd>
    20da:	02f11523          	sh	a5,42(sp)
E:\Project\tp78\mounriver_project\RF_CH582M\obj/../HAL/MCU.c:105
    cfg.srandCB = SYS_GetSysTickCnt;
    20de:	00000797          	auipc	a5,0x0
    20e2:	c9478793          	addi	a5,a5,-876 # 1d72 <SYS_GetSysTickCnt>
    20e6:	da3e                	sw	a5,52(sp)
E:\Project\tp78\mounriver_project\RF_CH582M\obj/../HAL/MCU.c:124
        GetMACAddress(MacAddr);
    20e8:	0007f5b7          	lui	a1,0x7f
E:\Project\tp78\mounriver_project\RF_CH582M\obj/../HAL/MCU.c:107
    cfg.tsCB = HAL_GetInterTempValue; // 根据温度变化校准RF和内部RC( 大于7摄氏度 )
    20ec:	00000797          	auipc	a5,0x0
    20f0:	e5078793          	addi	a5,a5,-432 # 1f3c <HAL_GetInterTempValue>
    20f4:	de3e                	sw	a5,60(sp)
E:\Project\tp78\mounriver_project\RF_CH582M\obj/../HAL/MCU.c:124
        GetMACAddress(MacAddr);
    20f6:	4681                	li	a3,0
E:\Project\tp78\mounriver_project\RF_CH582M\obj/../HAL/MCU.c:109
    cfg.rcCB = Lib_Calibration_LSI; // 内部32K时钟校准
    20f8:	00000797          	auipc	a5,0x0
    20fc:	de478793          	addi	a5,a5,-540 # 1edc <Lib_Calibration_LSI>
E:\Project\tp78\mounriver_project\RF_CH582M\obj/../HAL/MCU.c:124
        GetMACAddress(MacAddr);
    2100:	0070                	addi	a2,sp,12
    2102:	05e1                	addi	a1,a1,24
    2104:	4519                	li	a0,6
E:\Project\tp78\mounriver_project\RF_CH582M\obj/../HAL/MCU.c:109
    cfg.rcCB = Lib_Calibration_LSI; // 内部32K时钟校准
    2106:	c0be                	sw	a5,64(sp)
E:\Project\tp78\mounriver_project\RF_CH582M\obj/../HAL/MCU.c:124
        GetMACAddress(MacAddr);
    2108:	1fffe097          	auipc	ra,0x1fffe
    210c:	2c0080e7          	jalr	704(ra) # 200003c8 <FLASH_EEPROM_CMD>
E:\Project\tp78\mounriver_project\RF_CH582M\obj/../HAL/MCU.c:125
        for(i = 0; i < 6; i++)
    2110:	0858                	addi	a4,sp,20
E:\Project\tp78\mounriver_project\RF_CH582M\obj/../HAL/MCU.c:124
        GetMACAddress(MacAddr);
    2112:	4781                	li	a5,0
E:\Project\tp78\mounriver_project\RF_CH582M\obj/../HAL/MCU.c:125
        for(i = 0; i < 6; i++)
    2114:	4699                	li	a3,6
E:\Project\tp78\mounriver_project\RF_CH582M\obj/../HAL/MCU.c:127 (discriminator 3)
            cfg.MacAddr[i] = MacAddr[i]; // 使用芯片mac地址
    2116:	0070                	addi	a2,sp,12
    2118:	963e                	add	a2,a2,a5
    211a:	00064603          	lbu	a2,0(a2)
    211e:	0785                	addi	a5,a5,1
    2120:	0705                	addi	a4,a4,1
    2122:	00c70ca3          	sb	a2,25(a4) # 1019 <_einit+0x1015>
E:\Project\tp78\mounriver_project\RF_CH582M\obj/../HAL/MCU.c:125 (discriminator 3)
        for(i = 0; i < 6; i++)
    2126:	fed798e3          	bne	a5,a3,2116 <CH58X_BLEInit+0xec>
E:\Project\tp78\mounriver_project\RF_CH582M\obj/../HAL/MCU.c:131
    if(!cfg.MEMAddr || cfg.MEMLen < 4 * 1024)
    212a:	47d2                	lw	a5,20(sp)
    212c:	c791                	beqz	a5,2138 <CH58X_BLEInit+0x10e>
E:\Project\tp78\mounriver_project\RF_CH582M\obj/../HAL/MCU.c:131 (discriminator 1)
    212e:	01815703          	lhu	a4,24(sp)
    2132:	6785                	lui	a5,0x1
    2134:	00f77363          	bgeu	a4,a5,213a <CH58X_BLEInit+0x110>
E:\Project\tp78\mounriver_project\RF_CH582M\obj/../HAL/MCU.c:133 (discriminator 2)
        while(1);
    2138:	a001                	j	2138 <CH58X_BLEInit+0x10e>
E:\Project\tp78\mounriver_project\RF_CH582M\obj/../HAL/MCU.c:135
    i = BLE_LibInit(&cfg);
    213a:	0848                	addi	a0,sp,20
    213c:	086010ef          	jal	ra,31c2 <BLE_LibInit>
    2140:	85aa                	mv	a1,a0
E:\Project\tp78\mounriver_project\RF_CH582M\obj/../HAL/MCU.c:136
    if(i)
    2142:	c901                	beqz	a0,2152 <CH58X_BLEInit+0x128>
E:\Project\tp78\mounriver_project\RF_CH582M\obj/../HAL/MCU.c:138
        PRINT("LIB init error code: %x ...\n", i);
    2144:	00005517          	auipc	a0,0x5
    2148:	4cc50513          	addi	a0,a0,1228 # 7610 <_sbrk+0x62>
    214c:	136040ef          	jal	ra,6282 <iprintf>
E:\Project\tp78\mounriver_project\RF_CH582M\obj/../HAL/MCU.c:139 (discriminator 3)
        while(1);
    2150:	a001                	j	2150 <CH58X_BLEInit+0x126>
E:\Project\tp78\mounriver_project\RF_CH582M\obj/../HAL/MCU.c:141
}
    2152:	40f6                	lw	ra,92(sp)
    2154:	6125                	addi	sp,sp,96
    2156:	8082                	ret

00002158 <HAL_Init>:
HAL_Init():
E:\Project\tp78\mounriver_project\RF_CH582M\obj/../HAL/MCU.c:213
{
    2158:	1141                	addi	sp,sp,-16
E:\Project\tp78\mounriver_project\RF_CH582M\obj/../HAL/MCU.c:214
    halTaskID = TMOS_ProcessEventRegister(HAL_ProcessEvent);
    215a:	00000517          	auipc	a0,0x0
    215e:	e5250513          	addi	a0,a0,-430 # 1fac <HAL_ProcessEvent>
E:\Project\tp78\mounriver_project\RF_CH582M\obj/../HAL/MCU.c:213
{
    2162:	c606                	sw	ra,12(sp)
    2164:	c422                	sw	s0,8(sp)
E:\Project\tp78\mounriver_project\RF_CH582M\obj/../HAL/MCU.c:214
    halTaskID = TMOS_ProcessEventRegister(HAL_ProcessEvent);
    2166:	020010ef          	jal	ra,3186 <TMOS_ProcessEventRegister>
    216a:	83418413          	addi	s0,gp,-1996 # 2000176c <halTaskID>
    216e:	00a40023          	sb	a0,0(s0)
E:\Project\tp78\mounriver_project\RF_CH582M\obj/../HAL/MCU.c:215
    HAL_TimeInit();
    2172:	2829                	jal	218c <HAL_TimeInit>
E:\Project\tp78\mounriver_project\RF_CH582M\obj/../HAL/MCU.c:226
    tmos_start_task(halTaskID, HAL_REG_INIT_EVENT, MS1_TO_SYSTEM_TIME(BLE_CALIBRATION_PERIOD)); // 添加校准任务，单次校准耗时小于10ms
    2174:	00044503          	lbu	a0,0(s0)
E:\Project\tp78\mounriver_project\RF_CH582M\obj/../HAL/MCU.c:229
}
    2178:	4422                	lw	s0,8(sp)
    217a:	40b2                	lw	ra,12(sp)
E:\Project\tp78\mounriver_project\RF_CH582M\obj/../HAL/MCU.c:226
    tmos_start_task(halTaskID, HAL_REG_INIT_EVENT, MS1_TO_SYSTEM_TIME(BLE_CALIBRATION_PERIOD)); // 添加校准任务，单次校准耗时小于10ms
    217c:	0002f637          	lui	a2,0x2f
    2180:	e0060613          	addi	a2,a2,-512 # 2ee00 <_data_lma+0x27514>
    2184:	6589                	lui	a1,0x2
E:\Project\tp78\mounriver_project\RF_CH582M\obj/../HAL/MCU.c:229
}
    2186:	0141                	addi	sp,sp,16
E:\Project\tp78\mounriver_project\RF_CH582M\obj/../HAL/MCU.c:226
    tmos_start_task(halTaskID, HAL_REG_INIT_EVENT, MS1_TO_SYSTEM_TIME(BLE_CALIBRATION_PERIOD)); // 添加校准任务，单次校准耗时小于10ms
    2188:	5a70006f          	j	2f2e <tmos_start_task>

0000218c <HAL_TimeInit>:
HAL_TimeInit():
E:\Project\tp78\mounriver_project\RF_CH582M\obj/../HAL/RTC.c:72
 * @param   None.
 *
 * @return  None.
 */
void HAL_TimeInit(void)
{
    218c:	1141                	addi	sp,sp,-16
    218e:	c606                	sw	ra,12(sp)
E:\Project\tp78\mounriver_project\RF_CH582M\obj/../HAL/RTC.c:74
#if(CLK_OSC32K)
    R8_SAFE_ACCESS_SIG = SAFE_ACCESS_SIG1;
    2190:	400017b7          	lui	a5,0x40001
    2194:	05700713          	li	a4,87
    2198:	04e78023          	sb	a4,64(a5) # 40001040 <_eusrstack+0x1fff9040>
E:\Project\tp78\mounriver_project\RF_CH582M\obj/../HAL/RTC.c:75
    R8_SAFE_ACCESS_SIG = SAFE_ACCESS_SIG2;
    219c:	fa800713          	li	a4,-88
    21a0:	04e78023          	sb	a4,64(a5)
E:\Project\tp78\mounriver_project\RF_CH582M\obj/../HAL/RTC.c:76
    SAFEOPERATE;
    21a4:	0001                	nop
    21a6:	0001                	nop
E:\Project\tp78\mounriver_project\RF_CH582M\obj/../HAL/RTC.c:77
    R8_CK32K_CONFIG &= ~(RB_CLK_OSC32K_XT | RB_CLK_XT32K_PON);
    21a8:	02f7c703          	lbu	a4,47(a5)
    21ac:	0fa77713          	andi	a4,a4,250
    21b0:	02e787a3          	sb	a4,47(a5)
E:\Project\tp78\mounriver_project\RF_CH582M\obj/../HAL/RTC.c:78
    R8_CK32K_CONFIG |= RB_CLK_INT32K_PON;
    21b4:	02f7c703          	lbu	a4,47(a5)
    21b8:	00276713          	ori	a4,a4,2
    21bc:	02e787a3          	sb	a4,47(a5)
E:\Project\tp78\mounriver_project\RF_CH582M\obj/../HAL/RTC.c:79
    R8_SAFE_ACCESS_SIG = 0;
    21c0:	04078023          	sb	zero,64(a5)
E:\Project\tp78\mounriver_project\RF_CH582M\obj/../HAL/RTC.c:80
    Lib_Calibration_LSI();
    21c4:	3b21                	jal	1edc <Lib_Calibration_LSI>
E:\Project\tp78\mounriver_project\RF_CH582M\obj/../HAL/RTC.c:88
    R8_SAFE_ACCESS_SIG = SAFE_ACCESS_SIG2;
    SAFEOPERATE;
    R8_CK32K_CONFIG |= RB_CLK_OSC32K_XT | RB_CLK_INT32K_PON | RB_CLK_XT32K_PON;
    R8_SAFE_ACCESS_SIG = 0;
#endif
    RTC_InitTime(2020, 1, 1, 0, 0, 0); //RTC时钟初始化当前时间
    21c6:	7e400513          	li	a0,2020
    21ca:	4781                	li	a5,0
    21cc:	4701                	li	a4,0
    21ce:	4681                	li	a3,0
    21d0:	4605                	li	a2,1
    21d2:	4585                	li	a1,1
    21d4:	3225                	jal	1afc <RTC_InitTime>
E:\Project\tp78\mounriver_project\RF_CH582M\obj/../HAL/RTC.c:90
    TMOS_TimerInit(0);
}
    21d6:	40b2                	lw	ra,12(sp)
E:\Project\tp78\mounriver_project\RF_CH582M\obj/../HAL/RTC.c:89
    TMOS_TimerInit(0);
    21d8:	4501                	li	a0,0
E:\Project\tp78\mounriver_project\RF_CH582M\obj/../HAL/RTC.c:90
}
    21da:	0141                	addi	sp,sp,16
E:\Project\tp78\mounriver_project\RF_CH582M\obj/../HAL/RTC.c:89
    TMOS_TimerInit(0);
    21dc:	2140106f          	j	33f0 <TMOS_TimerInit>

000021e0 <USB_ProcessEvent>:
USB_ProcessEvent():
E:\Project\tp78\mounriver_project\RF_CH582M\obj/../HAL/USB.c:85
  if ( events & START_USB_EVENT )
    21e0:	0085f793          	andi	a5,a1,8
    21e4:	cb91                	beqz	a5,21f8 <USB_ProcessEvent+0x18>
PFIC_EnableIRQ():
E:\Project\tp78\mounriver_project\RF_CH582M\RVMSIS/core_riscv.h:110
    PFIC->IENR[((uint32_t)(IRQn) >> 5)] = (1 << ((uint32_t)(IRQn)&0x1F));
    21e6:	e000e7b7          	lui	a5,0xe000e
    21ea:	00400737          	lui	a4,0x400
    21ee:	10e7a023          	sw	a4,256(a5) # e000e100 <_eusrstack+0xc0006100>
USB_ProcessEvent():
E:\Project\tp78\mounriver_project\RF_CH582M\obj/../HAL/USB.c:88
    return events ^ START_USB_EVENT;
    21f2:	0085c513          	xori	a0,a1,8
E:\Project\tp78\mounriver_project\RF_CH582M\obj/../HAL/USB.c:123
}
    21f6:	8082                	ret
E:\Project\tp78\mounriver_project\RF_CH582M\obj/../HAL/USB.c:84
{
    21f8:	1141                	addi	sp,sp,-16
    21fa:	c422                	sw	s0,8(sp)
    21fc:	c606                	sw	ra,12(sp)
E:\Project\tp78\mounriver_project\RF_CH582M\obj/../HAL/USB.c:91
  if ( events & USB_MOUSE_EVENT )
    21fe:	0015f793          	andi	a5,a1,1
    2202:	842e                	mv	s0,a1
    2204:	c39d                	beqz	a5,222a <USB_ProcessEvent+0x4a>
E:\Project\tp78\mounriver_project\RF_CH582M\obj/../HAL/USB.c:93
    memcpy(pEP2_IN_DataBuf, &HID_dat.Mouse[0], 4);
    2206:	82418793          	addi	a5,gp,-2012 # 2000175c <pEP2_RAM_Addr>
    220a:	4388                	lw	a0,0(a5)
    220c:	4611                	li	a2,4
    220e:	98918593          	addi	a1,gp,-1655 # 200018c1 <HID_dat+0x1>
    2212:	04050513          	addi	a0,a0,64
    2216:	7b7030ef          	jal	ra,61cc <memcpy>
E:\Project\tp78\mounriver_project\RF_CH582M\obj/../HAL/USB.c:94
    DevEP2_IN_Deal( 4 );
    221a:	4511                	li	a0,4
    221c:	39bd                	jal	1e9a <DevEP2_IN_Deal>
E:\Project\tp78\mounriver_project\RF_CH582M\obj/../HAL/USB.c:95
    return events ^ USB_MOUSE_EVENT;
    221e:	00144513          	xori	a0,s0,1
E:\Project\tp78\mounriver_project\RF_CH582M\obj/../HAL/USB.c:123
}
    2222:	40b2                	lw	ra,12(sp)
    2224:	4422                	lw	s0,8(sp)
    2226:	0141                	addi	sp,sp,16
    2228:	8082                	ret
E:\Project\tp78\mounriver_project\RF_CH582M\obj/../HAL/USB.c:98
  if ( events & USB_KEYBOARD_EVENT )
    222a:	0025f793          	andi	a5,a1,2
    222e:	c385                	beqz	a5,224e <USB_ProcessEvent+0x6e>
E:\Project\tp78\mounriver_project\RF_CH582M\obj/../HAL/USB.c:100
    memcpy(pEP1_IN_DataBuf, &HID_dat.Keyboard[0], 8);
    2230:	83018793          	addi	a5,gp,-2000 # 20001768 <pEP1_RAM_Addr>
    2234:	4388                	lw	a0,0(a5)
    2236:	4621                	li	a2,8
    2238:	98918593          	addi	a1,gp,-1655 # 200018c1 <HID_dat+0x1>
    223c:	04050513          	addi	a0,a0,64
    2240:	78d030ef          	jal	ra,61cc <memcpy>
E:\Project\tp78\mounriver_project\RF_CH582M\obj/../HAL/USB.c:101
    DevEP1_IN_Deal( 8 );
    2244:	4521                	li	a0,8
    2246:	393d                	jal	1e84 <DevEP1_IN_Deal>
E:\Project\tp78\mounriver_project\RF_CH582M\obj/../HAL/USB.c:102
    return events ^ USB_KEYBOARD_EVENT;
    2248:	00244513          	xori	a0,s0,2
    224c:	bfd9                	j	2222 <USB_ProcessEvent+0x42>
E:\Project\tp78\mounriver_project\RF_CH582M\obj/../HAL/USB.c:105
  if ( events & USB_VOL_EVENT )
    224e:	0045f793          	andi	a5,a1,4
    2252:	cf99                	beqz	a5,2270 <USB_ProcessEvent+0x90>
E:\Project\tp78\mounriver_project\RF_CH582M\obj/../HAL/USB.c:107
    memcpy(pEP3_IN_DataBuf, &HID_dat.Volume[0], 1);
    2254:	82818793          	addi	a5,gp,-2008 # 20001760 <pEP3_RAM_Addr>
    2258:	98818713          	addi	a4,gp,-1656 # 200018c0 <HID_dat>
    225c:	439c                	lw	a5,0(a5)
    225e:	00174703          	lbu	a4,1(a4) # 400001 <_data_lma+0x3f8715>
E:\Project\tp78\mounriver_project\RF_CH582M\obj/../HAL/USB.c:108
    DevEP3_IN_Deal( 1 );
    2262:	4505                	li	a0,1
E:\Project\tp78\mounriver_project\RF_CH582M\obj/../HAL/USB.c:107
    memcpy(pEP3_IN_DataBuf, &HID_dat.Volume[0], 1);
    2264:	04e78023          	sb	a4,64(a5)
E:\Project\tp78\mounriver_project\RF_CH582M\obj/../HAL/USB.c:108
    DevEP3_IN_Deal( 1 );
    2268:	31a1                	jal	1eb0 <DevEP3_IN_Deal>
E:\Project\tp78\mounriver_project\RF_CH582M\obj/../HAL/USB.c:109
    return events ^ USB_VOL_EVENT;
    226a:	00444513          	xori	a0,s0,4
    226e:	bf55                	j	2222 <USB_ProcessEvent+0x42>
E:\Project\tp78\mounriver_project\RF_CH582M\obj/../HAL/USB.c:112
  if ( events & USB_TEST_EVENT )
    2270:	01359793          	slli	a5,a1,0x13
E:\Project\tp78\mounriver_project\RF_CH582M\obj/../HAL/USB.c:122
  return 0;
    2274:	4501                	li	a0,0
E:\Project\tp78\mounriver_project\RF_CH582M\obj/../HAL/USB.c:112
  if ( events & USB_TEST_EVENT )
    2276:	fa07d6e3          	bgez	a5,2222 <USB_ProcessEvent+0x42>
E:\Project\tp78\mounriver_project\RF_CH582M\obj/../HAL/USB.c:114
    HID_dat.Mouse[1] = 2;
    227a:	4789                	li	a5,2
    227c:	98f18523          	sb	a5,-1654(gp) # 200018c2 <HID_dat+0x2>
E:\Project\tp78\mounriver_project\RF_CH582M\obj/../HAL/USB.c:115
    HID_dat.Mouse[2] = 2;
    2280:	98f185a3          	sb	a5,-1653(gp) # 200018c3 <HID_dat+0x3>
E:\Project\tp78\mounriver_project\RF_CH582M\obj/../HAL/USB.c:116
    memcpy(pEP2_IN_DataBuf, &HID_dat.Mouse[0], 4);
    2284:	82418793          	addi	a5,gp,-2012 # 2000175c <pEP2_RAM_Addr>
    2288:	4388                	lw	a0,0(a5)
    228a:	4611                	li	a2,4
    228c:	98918593          	addi	a1,gp,-1655 # 200018c1 <HID_dat+0x1>
    2290:	04050513          	addi	a0,a0,64
    2294:	739030ef          	jal	ra,61cc <memcpy>
E:\Project\tp78\mounriver_project\RF_CH582M\obj/../HAL/USB.c:117
    DevEP2_IN_Deal( 4 );
    2298:	4511                	li	a0,4
    229a:	3101                	jal	1e9a <DevEP2_IN_Deal>
E:\Project\tp78\mounriver_project\RF_CH582M\obj/../HAL/USB.c:118
    tmos_start_task(usbTaskID, USB_TEST_EVENT, MS1_TO_SYSTEM_TIME(500));
    229c:	6585                	lui	a1,0x1
    229e:	32000613          	li	a2,800
    22a2:	1ffff517          	auipc	a0,0x1ffff
    22a6:	49654503          	lbu	a0,1174(a0) # 20001738 <usbTaskID>
    22aa:	485000ef          	jal	ra,2f2e <tmos_start_task>
E:\Project\tp78\mounriver_project\RF_CH582M\obj/../HAL/USB.c:119
    return events ^ USB_TEST_EVENT;
    22ae:	6585                	lui	a1,0x1
    22b0:	00b44533          	xor	a0,s0,a1
    22b4:	b7bd                	j	2222 <USB_ProcessEvent+0x42>

000022b6 <HAL_USBInit>:
HAL_USBInit():
E:\Project\tp78\mounriver_project\RF_CH582M\obj/../HAL/USB.c:132
{
    22b6:	1141                	addi	sp,sp,-16
E:\Project\tp78\mounriver_project\RF_CH582M\obj/../HAL/USB.c:133
  usbTaskID = TMOS_ProcessEventRegister( USB_ProcessEvent );
    22b8:	00000517          	auipc	a0,0x0
    22bc:	f2850513          	addi	a0,a0,-216 # 21e0 <USB_ProcessEvent>
E:\Project\tp78\mounriver_project\RF_CH582M\obj/../HAL/USB.c:132
{
    22c0:	c606                	sw	ra,12(sp)
    22c2:	c422                	sw	s0,8(sp)
E:\Project\tp78\mounriver_project\RF_CH582M\obj/../HAL/USB.c:133
  usbTaskID = TMOS_ProcessEventRegister( USB_ProcessEvent );
    22c4:	6c3000ef          	jal	ra,3186 <TMOS_ProcessEventRegister>
E:\Project\tp78\mounriver_project\RF_CH582M\obj/../HAL/USB.c:134
  pEP0_RAM_Addr = EP0_Databuf;
    22c8:	1ffff797          	auipc	a5,0x1ffff
    22cc:	4b878793          	addi	a5,a5,1208 # 20001780 <EP0_Databuf>
    22d0:	82f1a623          	sw	a5,-2004(gp) # 20001764 <pEP0_RAM_Addr>
E:\Project\tp78\mounriver_project\RF_CH582M\obj/../HAL/USB.c:135
  pEP1_RAM_Addr = EP1_Databuf;
    22d4:	90818793          	addi	a5,gp,-1784 # 20001840 <EP1_Databuf>
    22d8:	82f1a823          	sw	a5,-2000(gp) # 20001768 <pEP1_RAM_Addr>
E:\Project\tp78\mounriver_project\RF_CH582M\obj/../HAL/USB.c:136
  pEP2_RAM_Addr = EP2_Databuf;
    22dc:	99418793          	addi	a5,gp,-1644 # 200018cc <EP2_Databuf>
E:\Project\tp78\mounriver_project\RF_CH582M\obj/../HAL/USB.c:133
  usbTaskID = TMOS_ProcessEventRegister( USB_ProcessEvent );
    22e0:	1ffff417          	auipc	s0,0x1ffff
    22e4:	45840413          	addi	s0,s0,1112 # 20001738 <usbTaskID>
E:\Project\tp78\mounriver_project\RF_CH582M\obj/../HAL/USB.c:136
  pEP2_RAM_Addr = EP2_Databuf;
    22e8:	82f1a223          	sw	a5,-2012(gp) # 2000175c <pEP2_RAM_Addr>
E:\Project\tp78\mounriver_project\RF_CH582M\obj/../HAL/USB.c:137
  pEP3_RAM_Addr = EP3_Databuf;
    22ec:	a1418793          	addi	a5,gp,-1516 # 2000194c <EP3_Databuf>
E:\Project\tp78\mounriver_project\RF_CH582M\obj/../HAL/USB.c:133
  usbTaskID = TMOS_ProcessEventRegister( USB_ProcessEvent );
    22f0:	00a40023          	sb	a0,0(s0)
E:\Project\tp78\mounriver_project\RF_CH582M\obj/../HAL/USB.c:137
  pEP3_RAM_Addr = EP3_Databuf;
    22f4:	82f1a423          	sw	a5,-2008(gp) # 20001760 <pEP3_RAM_Addr>
E:\Project\tp78\mounriver_project\RF_CH582M\obj/../HAL/USB.c:138
  USB_DeviceInit();
    22f8:	3639                	jal	1e06 <USB_DeviceInit>
E:\Project\tp78\mounriver_project\RF_CH582M\obj/../HAL/USB.c:139
  tmos_start_task( usbTaskID, START_USB_EVENT, 0 );
    22fa:	00044503          	lbu	a0,0(s0)
E:\Project\tp78\mounriver_project\RF_CH582M\obj/../HAL/USB.c:140
}
    22fe:	4422                	lw	s0,8(sp)
    2300:	40b2                	lw	ra,12(sp)
E:\Project\tp78\mounriver_project\RF_CH582M\obj/../HAL/USB.c:139
  tmos_start_task( usbTaskID, START_USB_EVENT, 0 );
    2302:	4601                	li	a2,0
    2304:	45a1                	li	a1,8
E:\Project\tp78\mounriver_project\RF_CH582M\obj/../HAL/USB.c:140
}
    2306:	0141                	addi	sp,sp,16
E:\Project\tp78\mounriver_project\RF_CH582M\obj/../HAL/USB.c:139
  tmos_start_task( usbTaskID, START_USB_EVENT, 0 );
    2308:	4270006f          	j	2f2e <tmos_start_task>

0000230c <DevEP1_OUT_Deal>:
DevEP1_OUT_Deal():
E:\Project\tp78\mounriver_project\RF_CH582M\obj/../HAL/USB.c:489
  for ( i = 0; i < l; i++ )
    230c:	4781                	li	a5,0
E:\Project\tp78\mounriver_project\RF_CH582M\obj/../HAL/USB.c:491
    pEP1_IN_DataBuf[i] = ~pEP1_OUT_DataBuf[i];
    230e:	83018613          	addi	a2,gp,-2000 # 20001768 <pEP1_RAM_Addr>
E:\Project\tp78\mounriver_project\RF_CH582M\obj/../HAL/USB.c:489 (discriminator 1)
  for ( i = 0; i < l; i++ )
    2312:	0ff7f713          	andi	a4,a5,255
    2316:	00a76363          	bltu	a4,a0,231c <DevEP1_OUT_Deal+0x10>
E:\Project\tp78\mounriver_project\RF_CH582M\obj/../HAL/USB.c:493
  DevEP1_IN_Deal( l );
    231a:	b6ad                	j	1e84 <DevEP1_IN_Deal>
E:\Project\tp78\mounriver_project\RF_CH582M\obj/../HAL/USB.c:491 (discriminator 3)
    pEP1_IN_DataBuf[i] = ~pEP1_OUT_DataBuf[i];
    231c:	4218                	lw	a4,0(a2)
    231e:	973e                	add	a4,a4,a5
    2320:	00074683          	lbu	a3,0(a4)
    2324:	0785                	addi	a5,a5,1
    2326:	fff6c693          	not	a3,a3
    232a:	04d70023          	sb	a3,64(a4)
    232e:	b7d5                	j	2312 <DevEP1_OUT_Deal+0x6>

00002330 <DevEP2_OUT_Deal>:
DevEP2_OUT_Deal():
E:\Project\tp78\mounriver_project\RF_CH582M\obj/../HAL/USB.c:506
  for ( i = 0; i < l; i++ )
    2330:	4781                	li	a5,0
E:\Project\tp78\mounriver_project\RF_CH582M\obj/../HAL/USB.c:508
    pEP2_IN_DataBuf[i] = ~pEP2_OUT_DataBuf[i];
    2332:	82418613          	addi	a2,gp,-2012 # 2000175c <pEP2_RAM_Addr>
E:\Project\tp78\mounriver_project\RF_CH582M\obj/../HAL/USB.c:506 (discriminator 1)
  for ( i = 0; i < l; i++ )
    2336:	0ff7f713          	andi	a4,a5,255
    233a:	00a76363          	bltu	a4,a0,2340 <DevEP2_OUT_Deal+0x10>
E:\Project\tp78\mounriver_project\RF_CH582M\obj/../HAL/USB.c:510
  DevEP2_IN_Deal( l );
    233e:	beb1                	j	1e9a <DevEP2_IN_Deal>
E:\Project\tp78\mounriver_project\RF_CH582M\obj/../HAL/USB.c:508 (discriminator 3)
    pEP2_IN_DataBuf[i] = ~pEP2_OUT_DataBuf[i];
    2340:	4218                	lw	a4,0(a2)
    2342:	973e                	add	a4,a4,a5
    2344:	00074683          	lbu	a3,0(a4)
    2348:	0785                	addi	a5,a5,1
    234a:	fff6c693          	not	a3,a3
    234e:	04d70023          	sb	a3,64(a4)
    2352:	b7d5                	j	2336 <DevEP2_OUT_Deal+0x6>

00002354 <DevEP3_OUT_Deal>:
DevEP3_OUT_Deal():
E:\Project\tp78\mounriver_project\RF_CH582M\obj/../HAL/USB.c:523
  for ( i = 0; i < l; i++ )
    2354:	4781                	li	a5,0
E:\Project\tp78\mounriver_project\RF_CH582M\obj/../HAL/USB.c:525
    pEP3_IN_DataBuf[i] = ~pEP3_OUT_DataBuf[i];
    2356:	82818613          	addi	a2,gp,-2008 # 20001760 <pEP3_RAM_Addr>
E:\Project\tp78\mounriver_project\RF_CH582M\obj/../HAL/USB.c:523 (discriminator 1)
  for ( i = 0; i < l; i++ )
    235a:	0ff7f713          	andi	a4,a5,255
    235e:	00a76363          	bltu	a4,a0,2364 <DevEP3_OUT_Deal+0x10>
E:\Project\tp78\mounriver_project\RF_CH582M\obj/../HAL/USB.c:527
  DevEP3_IN_Deal( l );
    2362:	b6b9                	j	1eb0 <DevEP3_IN_Deal>
E:\Project\tp78\mounriver_project\RF_CH582M\obj/../HAL/USB.c:525 (discriminator 3)
    pEP3_IN_DataBuf[i] = ~pEP3_OUT_DataBuf[i];
    2364:	4218                	lw	a4,0(a2)
    2366:	973e                	add	a4,a4,a5
    2368:	00074683          	lbu	a3,0(a4)
    236c:	0785                	addi	a5,a5,1
    236e:	fff6c693          	not	a3,a3
    2372:	04d70023          	sb	a3,64(a4)
    2376:	b7d5                	j	235a <DevEP3_OUT_Deal+0x6>

00002378 <DevEP4_OUT_Deal>:
DevEP4_OUT_Deal():
E:\Project\tp78\mounriver_project\RF_CH582M\obj/../HAL/USB.c:540
  for ( i = 0; i < l; i++ )
    2378:	4781                	li	a5,0
E:\Project\tp78\mounriver_project\RF_CH582M\obj/../HAL/USB.c:542
    pEP4_IN_DataBuf[i] = ~pEP4_OUT_DataBuf[i];
    237a:	82c18613          	addi	a2,gp,-2004 # 20001764 <pEP0_RAM_Addr>
E:\Project\tp78\mounriver_project\RF_CH582M\obj/../HAL/USB.c:540 (discriminator 1)
  for ( i = 0; i < l; i++ )
    237e:	0ff7f713          	andi	a4,a5,255
    2382:	00a76363          	bltu	a4,a0,2388 <DevEP4_OUT_Deal+0x10>
E:\Project\tp78\mounriver_project\RF_CH582M\obj/../HAL/USB.c:544
  DevEP4_IN_Deal( l );
    2386:	b681                	j	1ec6 <DevEP4_IN_Deal>
E:\Project\tp78\mounriver_project\RF_CH582M\obj/../HAL/USB.c:542 (discriminator 3)
    pEP4_IN_DataBuf[i] = ~pEP4_OUT_DataBuf[i];
    2388:	4218                	lw	a4,0(a2)
    238a:	973e                	add	a4,a4,a5
    238c:	04074683          	lbu	a3,64(a4)
    2390:	0785                	addi	a5,a5,1
    2392:	fff6c693          	not	a3,a3
    2396:	08d70023          	sb	a3,128(a4)
    239a:	b7d5                	j	237e <DevEP4_OUT_Deal+0x6>

0000239c <USB_DevTransProcess>:
USB_DevTransProcess():
E:\Project\tp78\mounriver_project\RF_CH582M\obj/../HAL/USB.c:153
  intflag = R8_USB_INT_FG;
    239c:	400087b7          	lui	a5,0x40008
    23a0:	0067c703          	lbu	a4,6(a5) # 40008006 <_eusrstack+0x20000006>
    23a4:	0ff77713          	andi	a4,a4,255
E:\Project\tp78\mounriver_project\RF_CH582M\obj/../HAL/USB.c:154
  if ( intflag & RB_UIF_TRANSFER )
    23a8:	00277693          	andi	a3,a4,2
    23ac:	48068e63          	beqz	a3,2848 <USB_DevTransProcess+0x4ac>
E:\Project\tp78\mounriver_project\RF_CH582M\obj/../HAL/USB.c:149
{
    23b0:	1101                	addi	sp,sp,-32
    23b2:	ce06                	sw	ra,28(sp)
    23b4:	cc22                	sw	s0,24(sp)
    23b6:	ca26                	sw	s1,20(sp)
    23b8:	c84a                	sw	s2,16(sp)
    23ba:	c64e                	sw	s3,12(sp)
E:\Project\tp78\mounriver_project\RF_CH582M\obj/../HAL/USB.c:156
    if ( ( R8_USB_INT_ST & MASK_UIS_TOKEN ) != MASK_UIS_TOKEN )    // 非空闲
    23bc:	0077c703          	lbu	a4,7(a5)
    23c0:	03000693          	li	a3,48
    23c4:	03077713          	andi	a4,a4,48
    23c8:	02d70b63          	beq	a4,a3,23fe <USB_DevTransProcess+0x62>
E:\Project\tp78\mounriver_project\RF_CH582M\obj/../HAL/USB.c:158
      switch ( R8_USB_INT_ST & ( MASK_UIS_TOKEN | MASK_UIS_ENDP ) )
    23cc:	0077c703          	lbu	a4,7(a5)
    23d0:	4691                	li	a3,4
    23d2:	03f77713          	andi	a4,a4,63
    23d6:	22d70163          	beq	a4,a3,25f8 <USB_DevTransProcess+0x25c>
    23da:	0ae6e463          	bltu	a3,a4,2482 <USB_DevTransProcess+0xe6>
    23de:	4685                	li	a3,1
    23e0:	1ad70c63          	beq	a4,a3,2598 <USB_DevTransProcess+0x1fc>
    23e4:	18070163          	beqz	a4,2566 <USB_DevTransProcess+0x1ca>
    23e8:	4689                	li	a3,2
    23ea:	1cd70163          	beq	a4,a3,25ac <USB_DevTransProcess+0x210>
    23ee:	468d                	li	a3,3
    23f0:	1ed70163          	beq	a4,a3,25d2 <USB_DevTransProcess+0x236>
E:\Project\tp78\mounriver_project\RF_CH582M\obj/../HAL/USB.c:264
      R8_USB_INT_FG = RB_UIF_TRANSFER;
    23f4:	400087b7          	lui	a5,0x40008
    23f8:	4709                	li	a4,2
    23fa:	00e78323          	sb	a4,6(a5) # 40008006 <_eusrstack+0x20000006>
E:\Project\tp78\mounriver_project\RF_CH582M\obj/../HAL/USB.c:266
    if ( R8_USB_INT_ST & RB_UIS_SETUP_ACT )                  // Setup包处理
    23fe:	40008737          	lui	a4,0x40008
    2402:	00774783          	lbu	a5,7(a4) # 40008007 <_eusrstack+0x20000007>
    2406:	07e2                	slli	a5,a5,0x18
    2408:	87e1                	srai	a5,a5,0x18
    240a:	2e07d163          	bgez	a5,26ec <USB_DevTransProcess+0x350>
E:\Project\tp78\mounriver_project\RF_CH582M\obj/../HAL/USB.c:268
      R8_UEP0_CTRL = RB_UEP_R_TOG | RB_UEP_T_TOG | UEP_R_RES_ACK | UEP_T_RES_NAK;
    240e:	fc200793          	li	a5,-62
    2412:	02f70123          	sb	a5,34(a4)
E:\Project\tp78\mounriver_project\RF_CH582M\obj/../HAL/USB.c:269
      SetupReqLen = pSetupReqPak->wLength;
    2416:	82c18693          	addi	a3,gp,-2004 # 20001764 <pEP0_RAM_Addr>
    241a:	4288                	lw	a0,0(a3)
    241c:	00754703          	lbu	a4,7(a0)
    2420:	00654783          	lbu	a5,6(a0)
    2424:	0722                	slli	a4,a4,0x8
    2426:	8f5d                	or	a4,a4,a5
    2428:	82e19f23          	sh	a4,-1986(gp) # 20001776 <SetupReqLen>
E:\Project\tp78\mounriver_project\RF_CH582M\obj/../HAL/USB.c:270
      SetupReqCode = pSetupReqPak->bRequest;
    242c:	00154783          	lbu	a5,1(a0)
    2430:	84f18023          	sb	a5,-1984(gp) # 20001778 <SetupReqCode>
E:\Project\tp78\mounriver_project\RF_CH582M\obj/../HAL/USB.c:271
      chtype = pSetupReqPak->bRequestType;
    2434:	00054903          	lbu	s2,0(a0)
E:\Project\tp78\mounriver_project\RF_CH582M\obj/../HAL/USB.c:275
      if ( ( pSetupReqPak->bRequestType & USB_REQ_TYP_MASK ) != USB_REQ_TYP_STANDARD )
    2438:	06097613          	andi	a2,s2,96
    243c:	1c060e63          	beqz	a2,2618 <USB_DevTransProcess+0x27c>
E:\Project\tp78\mounriver_project\RF_CH582M\obj/../HAL/USB.c:277
        switch ( SetupReqCode )
    2440:	17dd                	addi	a5,a5,-9
    2442:	4705                	li	a4,1
    2444:	28f76963          	bltu	a4,a5,26d6 <USB_DevTransProcess+0x33a>
E:\Project\tp78\mounriver_project\RF_CH582M\obj/../HAL/USB.c:437
        if ( chtype & 0x80 )     // 上传
    2448:	0962                	slli	s2,s2,0x18
    244a:	41895913          	srai	s2,s2,0x18
E:\Project\tp78\mounriver_project\RF_CH582M\obj/../HAL/USB.c:444
          len = 0;        // 下传
    244e:	4681                	li	a3,0
E:\Project\tp78\mounriver_project\RF_CH582M\obj/../HAL/USB.c:437
        if ( chtype & 0x80 )     // 上传
    2450:	02095263          	bgez	s2,2474 <USB_DevTransProcess+0xd8>
E:\Project\tp78\mounriver_project\RF_CH582M\obj/../HAL/USB.c:440
              DevEP0SIZE : SetupReqLen;
    2454:	83e1d783          	lhu	a5,-1986(gp) # 20001776 <SetupReqLen>
    2458:	04000693          	li	a3,64
    245c:	873e                	mv	a4,a5
    245e:	00f6f463          	bgeu	a3,a5,2466 <USB_DevTransProcess+0xca>
    2462:	04000713          	li	a4,64
    2466:	0742                	slli	a4,a4,0x10
    2468:	8341                	srli	a4,a4,0x10
E:\Project\tp78\mounriver_project\RF_CH582M\obj/../HAL/USB.c:441
          SetupReqLen -= len;
    246a:	8f99                	sub	a5,a5,a4
E:\Project\tp78\mounriver_project\RF_CH582M\obj/../HAL/USB.c:439
          len = ( SetupReqLen > DevEP0SIZE ) ?
    246c:	0ff77693          	andi	a3,a4,255
E:\Project\tp78\mounriver_project\RF_CH582M\obj/../HAL/USB.c:441
          SetupReqLen -= len;
    2470:	82f19f23          	sh	a5,-1986(gp) # 20001776 <SetupReqLen>
E:\Project\tp78\mounriver_project\RF_CH582M\obj/../HAL/USB.c:445
        R8_UEP0_T_LEN = len;
    2474:	400087b7          	lui	a5,0x40008
    2478:	02d78023          	sb	a3,32(a5) # 40008020 <_eusrstack+0x20000020>
E:\Project\tp78\mounriver_project\RF_CH582M\obj/../HAL/USB.c:446
        R8_UEP0_CTRL = RB_UEP_R_TOG | RB_UEP_T_TOG | UEP_R_RES_ACK | UEP_T_RES_ACK;    // 默认数据包是DATA1
    247c:	fc000713          	li	a4,-64
    2480:	acb9                	j	26de <USB_DevTransProcess+0x342>
    2482:	02200693          	li	a3,34
    2486:	12d70d63          	beq	a4,a3,25c0 <USB_DevTransProcess+0x224>
    248a:	02e6e363          	bltu	a3,a4,24b0 <USB_DevTransProcess+0x114>
    248e:	02000693          	li	a3,32
    2492:	04d70663          	beq	a4,a3,24de <USB_DevTransProcess+0x142>
    2496:	02100693          	li	a3,33
    249a:	f4d71de3          	bne	a4,a3,23f4 <USB_DevTransProcess+0x58>
E:\Project\tp78\mounriver_project\RF_CH582M\obj/../HAL/USB.c:214
          R8_UEP1_CTRL = ( R8_UEP1_CTRL & ~MASK_UEP_T_RES ) | UEP_T_RES_NAK;
    249e:	0267c703          	lbu	a4,38(a5)
    24a2:	0fc77713          	andi	a4,a4,252
    24a6:	00276713          	ori	a4,a4,2
    24aa:	02e78323          	sb	a4,38(a5)
E:\Project\tp78\mounriver_project\RF_CH582M\obj/../HAL/USB.c:215
          break;
    24ae:	b799                	j	23f4 <USB_DevTransProcess+0x58>
    24b0:	02300693          	li	a3,35
    24b4:	12d70963          	beq	a4,a3,25e6 <USB_DevTransProcess+0x24a>
    24b8:	02400693          	li	a3,36
    24bc:	f2d71ce3          	bne	a4,a3,23f4 <USB_DevTransProcess+0x58>
E:\Project\tp78\mounriver_project\RF_CH582M\obj/../HAL/USB.c:257
          R8_UEP4_CTRL ^= RB_UEP_T_TOG;
    24c0:	0327c703          	lbu	a4,50(a5)
    24c4:	04074713          	xori	a4,a4,64
    24c8:	02e78923          	sb	a4,50(a5)
E:\Project\tp78\mounriver_project\RF_CH582M\obj/../HAL/USB.c:258
          R8_UEP4_CTRL = ( R8_UEP4_CTRL & ~MASK_UEP_T_RES ) | UEP_T_RES_NAK;
    24cc:	0327c703          	lbu	a4,50(a5)
    24d0:	0fc77713          	andi	a4,a4,252
    24d4:	00276713          	ori	a4,a4,2
    24d8:	02e78923          	sb	a4,50(a5)
E:\Project\tp78\mounriver_project\RF_CH582M\obj/../HAL/USB.c:259
          break;
    24dc:	bf21                	j	23f4 <USB_DevTransProcess+0x58>
E:\Project\tp78\mounriver_project\RF_CH582M\obj/../HAL/USB.c:163
          switch ( SetupReqCode )
    24de:	8401c703          	lbu	a4,-1984(gp) # 20001778 <SetupReqCode>
    24e2:	4695                	li	a3,5
    24e4:	06d70363          	beq	a4,a3,254a <USB_DevTransProcess+0x1ae>
    24e8:	4699                	li	a3,6
    24ea:	06d71b63          	bne	a4,a3,2560 <USB_DevTransProcess+0x1c4>
E:\Project\tp78\mounriver_project\RF_CH582M\obj/../HAL/USB.c:167
                  DevEP0SIZE : SetupReqLen;    // 本次传输长度
    24ee:	83e18793          	addi	a5,gp,-1986 # 20001776 <SetupReqLen>
    24f2:	0007d403          	lhu	s0,0(a5)
    24f6:	04000713          	li	a4,64
    24fa:	84be                	mv	s1,a5
    24fc:	00877463          	bgeu	a4,s0,2504 <USB_DevTransProcess+0x168>
    2500:	04000413          	li	s0,64
E:\Project\tp78\mounriver_project\RF_CH582M\obj/../HAL/USB.c:168
              memcpy( pEP0_DataBuf, pDescr, len ); /* 加载上传数据 */
    2504:	82c18793          	addi	a5,gp,-2004 # 20001764 <pEP0_RAM_Addr>
    2508:	84418913          	addi	s2,gp,-1980 # 2000177c <pDescr>
    250c:	4388                	lw	a0,0(a5)
E:\Project\tp78\mounriver_project\RF_CH582M\obj/../HAL/USB.c:167
                  DevEP0SIZE : SetupReqLen;    // 本次传输长度
    250e:	0442                	slli	s0,s0,0x10
E:\Project\tp78\mounriver_project\RF_CH582M\obj/../HAL/USB.c:168
              memcpy( pEP0_DataBuf, pDescr, len ); /* 加载上传数据 */
    2510:	00092583          	lw	a1,0(s2)
E:\Project\tp78\mounriver_project\RF_CH582M\obj/../HAL/USB.c:167
                  DevEP0SIZE : SetupReqLen;    // 本次传输长度
    2514:	8041                	srli	s0,s0,0x10
E:\Project\tp78\mounriver_project\RF_CH582M\obj/../HAL/USB.c:168
              memcpy( pEP0_DataBuf, pDescr, len ); /* 加载上传数据 */
    2516:	8622                	mv	a2,s0
    2518:	4b5030ef          	jal	ra,61cc <memcpy>
E:\Project\tp78\mounriver_project\RF_CH582M\obj/../HAL/USB.c:169
              SetupReqLen -= len;
    251c:	0004d783          	lhu	a5,0(s1)
E:\Project\tp78\mounriver_project\RF_CH582M\obj/../HAL/USB.c:166
              len = SetupReqLen >= DevEP0SIZE ?
    2520:	0ff47993          	andi	s3,s0,255
E:\Project\tp78\mounriver_project\RF_CH582M\obj/../HAL/USB.c:169
              SetupReqLen -= len;
    2524:	8f81                	sub	a5,a5,s0
    2526:	82f19f23          	sh	a5,-1986(gp) # 20001776 <SetupReqLen>
E:\Project\tp78\mounriver_project\RF_CH582M\obj/../HAL/USB.c:170
              pDescr += len;
    252a:	00092783          	lw	a5,0(s2)
    252e:	943e                	add	s0,s0,a5
    2530:	8481a223          	sw	s0,-1980(gp) # 2000177c <pDescr>
E:\Project\tp78\mounriver_project\RF_CH582M\obj/../HAL/USB.c:171
              R8_UEP0_T_LEN = len;
    2534:	400087b7          	lui	a5,0x40008
    2538:	03378023          	sb	s3,32(a5) # 40008020 <_eusrstack+0x20000020>
E:\Project\tp78\mounriver_project\RF_CH582M\obj/../HAL/USB.c:172
              R8_UEP0_CTRL ^= RB_UEP_T_TOG;                             // 翻转
    253c:	0227c703          	lbu	a4,34(a5)
    2540:	04074713          	xori	a4,a4,64
E:\Project\tp78\mounriver_project\RF_CH582M\obj/../HAL/USB.c:176
              R8_UEP0_CTRL = UEP_R_RES_ACK | UEP_T_RES_NAK;
    2544:	02e78123          	sb	a4,34(a5)
E:\Project\tp78\mounriver_project\RF_CH582M\obj/../HAL/USB.c:177
              break;
    2548:	b575                	j	23f4 <USB_DevTransProcess+0x58>
E:\Project\tp78\mounriver_project\RF_CH582M\obj/../HAL/USB.c:175
              R8_USB_DEV_AD = ( R8_USB_DEV_AD & RB_UDA_GP_BIT ) | SetupReqLen;
    254a:	0037c703          	lbu	a4,3(a5)
    254e:	83e1c683          	lbu	a3,-1986(gp) # 20001776 <SetupReqLen>
    2552:	08077713          	andi	a4,a4,128
    2556:	8f55                	or	a4,a4,a3
    2558:	00e781a3          	sb	a4,3(a5)
E:\Project\tp78\mounriver_project\RF_CH582M\obj/../HAL/USB.c:176
              R8_UEP0_CTRL = UEP_R_RES_ACK | UEP_T_RES_NAK;
    255c:	4709                	li	a4,2
    255e:	b7dd                	j	2544 <USB_DevTransProcess+0x1a8>
E:\Project\tp78\mounriver_project\RF_CH582M\obj/../HAL/USB.c:179
              R8_UEP0_T_LEN = 0;                                      // 状态阶段完成中断或者是强制上传0长度数据包结束控制传输
    2560:	02078023          	sb	zero,32(a5)
E:\Project\tp78\mounriver_project\RF_CH582M\obj/../HAL/USB.c:180
              R8_UEP0_CTRL = UEP_R_RES_ACK | UEP_T_RES_NAK;
    2564:	bfe5                	j	255c <USB_DevTransProcess+0x1c0>
E:\Project\tp78\mounriver_project\RF_CH582M\obj/../HAL/USB.c:188
          len = R8_USB_RX_LEN;
    2566:	0087c783          	lbu	a5,8(a5)
E:\Project\tp78\mounriver_project\RF_CH582M\obj/../HAL/USB.c:189
          if ( SetupReqCode == 0x09 )
    256a:	8401c703          	lbu	a4,-1984(gp) # 20001778 <SetupReqCode>
    256e:	47a5                	li	a5,9
    2570:	e8f712e3          	bne	a4,a5,23f4 <USB_DevTransProcess+0x58>
E:\Project\tp78\mounriver_project\RF_CH582M\obj/../HAL/USB.c:191
            if ( pEP0_DataBuf[1] ) {
    2574:	82c18793          	addi	a5,gp,-2004 # 20001764 <pEP0_RAM_Addr>
    2578:	439c                	lw	a5,0(a5)
    257a:	a941c503          	lbu	a0,-1388(gp) # 200019cc <RFtaskID>
    257e:	0017c783          	lbu	a5,1(a5)
    2582:	cb81                	beqz	a5,2592 <USB_DevTransProcess+0x1f6>
E:\Project\tp78\mounriver_project\RF_CH582M\obj/../HAL/USB.c:192
              USB_CapsLock_LEDOn = FALSE;    // Light off Caps Lock LED
    2584:	80018823          	sb	zero,-2032(gp) # 20001748 <_edata>
E:\Project\tp78\mounriver_project\RF_CH582M\obj/../HAL/USB.c:197
              tmos_start_task(RFtaskID, SBP_RF_TX_CAPSLOCK_EVT, 10);
    2588:	4629                	li	a2,10
    258a:	45a1                	li	a1,8
    258c:	1a3000ef          	jal	ra,2f2e <tmos_start_task>
    2590:	b595                	j	23f4 <USB_DevTransProcess+0x58>
E:\Project\tp78\mounriver_project\RF_CH582M\obj/../HAL/USB.c:196
              USB_CapsLock_LEDOn = TRUE;     // Light on Caps Lock LED
    2592:	80d18823          	sb	a3,-2032(gp) # 20001748 <_edata>
    2596:	bfcd                	j	2588 <USB_DevTransProcess+0x1ec>
E:\Project\tp78\mounriver_project\RF_CH582M\obj/../HAL/USB.c:205
          if ( R8_USB_INT_ST & RB_UIS_TOG_OK )
    2598:	0077c703          	lbu	a4,7(a5)
    259c:	04077713          	andi	a4,a4,64
    25a0:	e4070ae3          	beqz	a4,23f4 <USB_DevTransProcess+0x58>
E:\Project\tp78\mounriver_project\RF_CH582M\obj/../HAL/USB.c:207
            len = R8_USB_RX_LEN;
    25a4:	0087c503          	lbu	a0,8(a5)
E:\Project\tp78\mounriver_project\RF_CH582M\obj/../HAL/USB.c:208
            DevEP1_OUT_Deal( len );
    25a8:	3395                	jal	230c <DevEP1_OUT_Deal>
    25aa:	b5a9                	j	23f4 <USB_DevTransProcess+0x58>
E:\Project\tp78\mounriver_project\RF_CH582M\obj/../HAL/USB.c:219
          if ( R8_USB_INT_ST & RB_UIS_TOG_OK )
    25ac:	0077c703          	lbu	a4,7(a5)
    25b0:	04077713          	andi	a4,a4,64
    25b4:	e40700e3          	beqz	a4,23f4 <USB_DevTransProcess+0x58>
E:\Project\tp78\mounriver_project\RF_CH582M\obj/../HAL/USB.c:221
            len = R8_USB_RX_LEN;
    25b8:	0087c503          	lbu	a0,8(a5)
E:\Project\tp78\mounriver_project\RF_CH582M\obj/../HAL/USB.c:222
            DevEP2_OUT_Deal( len );
    25bc:	3b95                	jal	2330 <DevEP2_OUT_Deal>
    25be:	bd1d                	j	23f4 <USB_DevTransProcess+0x58>
E:\Project\tp78\mounriver_project\RF_CH582M\obj/../HAL/USB.c:228
          R8_UEP2_CTRL = ( R8_UEP2_CTRL & ~MASK_UEP_T_RES ) | UEP_T_RES_NAK;
    25c0:	02a7c703          	lbu	a4,42(a5)
    25c4:	0fc77713          	andi	a4,a4,252
    25c8:	00276713          	ori	a4,a4,2
    25cc:	02e78523          	sb	a4,42(a5)
E:\Project\tp78\mounriver_project\RF_CH582M\obj/../HAL/USB.c:229
          break;
    25d0:	b515                	j	23f4 <USB_DevTransProcess+0x58>
E:\Project\tp78\mounriver_project\RF_CH582M\obj/../HAL/USB.c:233
          if ( R8_USB_INT_ST & RB_UIS_TOG_OK )
    25d2:	0077c703          	lbu	a4,7(a5)
    25d6:	04077713          	andi	a4,a4,64
    25da:	e0070de3          	beqz	a4,23f4 <USB_DevTransProcess+0x58>
E:\Project\tp78\mounriver_project\RF_CH582M\obj/../HAL/USB.c:235
            len = R8_USB_RX_LEN;
    25de:	0087c503          	lbu	a0,8(a5)
E:\Project\tp78\mounriver_project\RF_CH582M\obj/../HAL/USB.c:236
            DevEP3_OUT_Deal( len );
    25e2:	3b8d                	jal	2354 <DevEP3_OUT_Deal>
    25e4:	bd01                	j	23f4 <USB_DevTransProcess+0x58>
E:\Project\tp78\mounriver_project\RF_CH582M\obj/../HAL/USB.c:242
          R8_UEP3_CTRL = ( R8_UEP3_CTRL & ~MASK_UEP_T_RES ) | UEP_T_RES_NAK;
    25e6:	02e7c703          	lbu	a4,46(a5)
    25ea:	0fc77713          	andi	a4,a4,252
    25ee:	00276713          	ori	a4,a4,2
    25f2:	02e78723          	sb	a4,46(a5)
E:\Project\tp78\mounriver_project\RF_CH582M\obj/../HAL/USB.c:243
          break;
    25f6:	bbfd                	j	23f4 <USB_DevTransProcess+0x58>
E:\Project\tp78\mounriver_project\RF_CH582M\obj/../HAL/USB.c:247
          if ( R8_USB_INT_ST & RB_UIS_TOG_OK )
    25f8:	0077c703          	lbu	a4,7(a5)
    25fc:	04077713          	andi	a4,a4,64
    2600:	de070ae3          	beqz	a4,23f4 <USB_DevTransProcess+0x58>
E:\Project\tp78\mounriver_project\RF_CH582M\obj/../HAL/USB.c:249
            R8_UEP4_CTRL ^= RB_UEP_R_TOG;
    2604:	0327c703          	lbu	a4,50(a5)
    2608:	08074713          	xori	a4,a4,128
    260c:	02e78923          	sb	a4,50(a5)
E:\Project\tp78\mounriver_project\RF_CH582M\obj/../HAL/USB.c:250
            len = R8_USB_RX_LEN;
    2610:	0087c503          	lbu	a0,8(a5)
E:\Project\tp78\mounriver_project\RF_CH582M\obj/../HAL/USB.c:251
            DevEP4_OUT_Deal( len );
    2614:	3395                	jal	2378 <DevEP4_OUT_Deal>
    2616:	bbf9                	j	23f4 <USB_DevTransProcess+0x58>
E:\Project\tp78\mounriver_project\RF_CH582M\obj/../HAL/USB.c:289
        switch ( SetupReqCode )
    2618:	4629                	li	a2,10
    261a:	0af66e63          	bltu	a2,a5,26d6 <USB_DevTransProcess+0x33a>
    261e:	00005617          	auipc	a2,0x5
    2622:	01660613          	addi	a2,a2,22 # 7634 <_sbrk+0x86>
    2626:	078a                	slli	a5,a5,0x2
    2628:	97b2                	add	a5,a5,a2
    262a:	439c                	lw	a5,0(a5)
    262c:	97b2                	add	a5,a5,a2
    262e:	8782                	jr	a5
E:\Project\tp78\mounriver_project\RF_CH582M\obj/../HAL/USB.c:293
            switch ( ( ( pSetupReqPak->wValue ) >> 8 ) )
    2630:	00354783          	lbu	a5,3(a0)
    2634:	00254683          	lbu	a3,2(a0)
    2638:	4609                	li	a2,2
    263a:	07a2                	slli	a5,a5,0x8
    263c:	8fd5                	or	a5,a5,a3
    263e:	0087d693          	srli	a3,a5,0x8
    2642:	0ac68c63          	beq	a3,a2,26fa <USB_DevTransProcess+0x35e>
    2646:	00d66963          	bltu	a2,a3,2658 <USB_DevTransProcess+0x2bc>
    264a:	4785                	li	a5,1
    264c:	02f68a63          	beq	a3,a5,2680 <USB_DevTransProcess+0x2e4>
E:\Project\tp78\mounriver_project\RF_CH582M\obj/../HAL/USB.c:358
                errflag = 0xff;
    2650:	0ff00413          	li	s0,255
E:\Project\tp78\mounriver_project\RF_CH582M\obj/../HAL/USB.c:273
      len = 0;
    2654:	4781                	li	a5,0
    2656:	a82d                	j	2690 <USB_DevTransProcess+0x2f4>
    2658:	458d                	li	a1,3
    265a:	0eb68363          	beq	a3,a1,2740 <USB_DevTransProcess+0x3a4>
    265e:	02200793          	li	a5,34
    2662:	fef697e3          	bne	a3,a5,2650 <USB_DevTransProcess+0x2b4>
E:\Project\tp78\mounriver_project\RF_CH582M\obj/../HAL/USB.c:311
                if ( ( ( pSetupReqPak->wIndex ) & 0xff ) == 0 )         //接口0报表描述符
    2666:	00454783          	lbu	a5,4(a0)
    266a:	e3d5                	bnez	a5,270e <USB_DevTransProcess+0x372>
E:\Project\tp78\mounriver_project\RF_CH582M\obj/../HAL/USB.c:313
                  pDescr = KeyRepDesc;                                  //数据准备上传
    266c:	00005797          	auipc	a5,0x5
    2670:	ff478793          	addi	a5,a5,-12 # 7660 <KeyRepDesc>
    2674:	84f1a223          	sw	a5,-1980(gp) # 2000177c <pDescr>
E:\Project\tp78\mounriver_project\RF_CH582M\obj/../HAL/USB.c:274
      errflag = 0;
    2678:	4401                	li	s0,0
E:\Project\tp78\mounriver_project\RF_CH582M\obj/../HAL/USB.c:314
                  len = sizeof( KeyRepDesc );
    267a:	03e00793          	li	a5,62
    267e:	a809                	j	2690 <USB_DevTransProcess+0x2f4>
E:\Project\tp78\mounriver_project\RF_CH582M\obj/../HAL/USB.c:297
                pDescr = MyDevDescr;
    2680:	00005797          	auipc	a5,0x5
    2684:	0c078793          	addi	a5,a5,192 # 7740 <MyDevDescr>
    2688:	84f1a223          	sw	a5,-1980(gp) # 2000177c <pDescr>
E:\Project\tp78\mounriver_project\RF_CH582M\obj/../HAL/USB.c:274
      errflag = 0;
    268c:	4401                	li	s0,0
E:\Project\tp78\mounriver_project\RF_CH582M\obj/../HAL/USB.c:298
                len = MyDevDescr[0];
    268e:	47c9                	li	a5,18
E:\Project\tp78\mounriver_project\RF_CH582M\obj/../HAL/USB.c:361
            if ( SetupReqLen > len )
    2690:	07c2                	slli	a5,a5,0x10
    2692:	83c1                	srli	a5,a5,0x10
    2694:	00e7f463          	bgeu	a5,a4,269c <USB_DevTransProcess+0x300>
E:\Project\tp78\mounriver_project\RF_CH582M\obj/../HAL/USB.c:362
              SetupReqLen = len;      //实际需上传总长度
    2698:	82f19f23          	sh	a5,-1986(gp) # 20001776 <SetupReqLen>
E:\Project\tp78\mounriver_project\RF_CH582M\obj/../HAL/USB.c:364
                DevEP0SIZE : SetupReqLen;
    269c:	83e18793          	addi	a5,gp,-1986 # 20001776 <SetupReqLen>
    26a0:	0007d603          	lhu	a2,0(a5)
    26a4:	04000793          	li	a5,64
    26a8:	00c7f463          	bgeu	a5,a2,26b0 <USB_DevTransProcess+0x314>
    26ac:	04000613          	li	a2,64
E:\Project\tp78\mounriver_project\RF_CH582M\obj/../HAL/USB.c:365
            memcpy( pEP0_DataBuf, pDescr, len );
    26b0:	84418993          	addi	s3,gp,-1980 # 2000177c <pDescr>
    26b4:	01061493          	slli	s1,a2,0x10
    26b8:	0009a583          	lw	a1,0(s3)
    26bc:	80c1                	srli	s1,s1,0x10
    26be:	8626                	mv	a2,s1
    26c0:	30d030ef          	jal	ra,61cc <memcpy>
E:\Project\tp78\mounriver_project\RF_CH582M\obj/../HAL/USB.c:366
            pDescr += len;
    26c4:	0009a603          	lw	a2,0(s3)
    26c8:	9626                	add	a2,a2,s1
    26ca:	84c1a223          	sw	a2,-1980(gp) # 2000177c <pDescr>
E:\Project\tp78\mounriver_project\RF_CH582M\obj/../HAL/USB.c:430
      if ( errflag == 0xff )        // 错误或不支持
    26ce:	0ff00793          	li	a5,255
    26d2:	d6f41be3          	bne	s0,a5,2448 <USB_DevTransProcess+0xac>
E:\Project\tp78\mounriver_project\RF_CH582M\obj/../HAL/USB.c:433
        R8_UEP0_CTRL = RB_UEP_R_TOG | RB_UEP_T_TOG | UEP_R_RES_STALL | UEP_T_RES_STALL;    // STALL
    26d6:	400087b7          	lui	a5,0x40008
    26da:	fcf00713          	li	a4,-49
E:\Project\tp78\mounriver_project\RF_CH582M\obj/../HAL/USB.c:446
        R8_UEP0_CTRL = RB_UEP_R_TOG | RB_UEP_T_TOG | UEP_R_RES_ACK | UEP_T_RES_ACK;    // 默认数据包是DATA1
    26de:	02e78123          	sb	a4,34(a5) # 40008022 <_eusrstack+0x20000022>
E:\Project\tp78\mounriver_project\RF_CH582M\obj/../HAL/USB.c:449
      R8_USB_INT_FG = RB_UIF_TRANSFER;
    26e2:	400087b7          	lui	a5,0x40008
    26e6:	4709                	li	a4,2
    26e8:	00e78323          	sb	a4,6(a5) # 40008006 <_eusrstack+0x20000006>
E:\Project\tp78\mounriver_project\RF_CH582M\obj/../HAL/USB.c:477
}
    26ec:	40f2                	lw	ra,28(sp)
    26ee:	4462                	lw	s0,24(sp)
    26f0:	44d2                	lw	s1,20(sp)
    26f2:	4942                	lw	s2,16(sp)
    26f4:	49b2                	lw	s3,12(sp)
    26f6:	6105                	addi	sp,sp,32
    26f8:	8082                	ret
E:\Project\tp78\mounriver_project\RF_CH582M\obj/../HAL/USB.c:304
                pDescr = MyCfgDescr;
    26fa:	00005797          	auipc	a5,0x5
    26fe:	fda78793          	addi	a5,a5,-38 # 76d4 <MyCfgDescr>
    2702:	84f1a223          	sw	a5,-1980(gp) # 2000177c <pDescr>
E:\Project\tp78\mounriver_project\RF_CH582M\obj/../HAL/USB.c:274
      errflag = 0;
    2706:	4401                	li	s0,0
E:\Project\tp78\mounriver_project\RF_CH582M\obj/../HAL/USB.c:305
                len = MyCfgDescr[2];
    2708:	06b00793          	li	a5,107
    270c:	b751                	j	2690 <USB_DevTransProcess+0x2f4>
E:\Project\tp78\mounriver_project\RF_CH582M\obj/../HAL/USB.c:316
                else if ( ( ( pSetupReqPak->wIndex ) & 0xff ) == 1 )    //接口1报表描述符
    270e:	4685                	li	a3,1
    2710:	00d79c63          	bne	a5,a3,2728 <USB_DevTransProcess+0x38c>
E:\Project\tp78\mounriver_project\RF_CH582M\obj/../HAL/USB.c:318
                  pDescr = MouseRepDesc;                                //数据准备上传
    2714:	00005797          	auipc	a5,0x5
    2718:	f8c78793          	addi	a5,a5,-116 # 76a0 <MouseRepDesc>
    271c:	84f1a223          	sw	a5,-1980(gp) # 2000177c <pDescr>
E:\Project\tp78\mounriver_project\RF_CH582M\obj/../HAL/USB.c:274
      errflag = 0;
    2720:	4401                	li	s0,0
E:\Project\tp78\mounriver_project\RF_CH582M\obj/../HAL/USB.c:319
                  len = sizeof( MouseRepDesc );
    2722:	03400793          	li	a5,52
    2726:	b7ad                	j	2690 <USB_DevTransProcess+0x2f4>
E:\Project\tp78\mounriver_project\RF_CH582M\obj/../HAL/USB.c:321
                else if ( ( ( pSetupReqPak->wIndex ) & 0xff ) == 2 )    //接口2报表描述符
    2728:	04c79f63          	bne	a5,a2,2786 <USB_DevTransProcess+0x3ea>
E:\Project\tp78\mounriver_project\RF_CH582M\obj/../HAL/USB.c:323
                  pDescr = VolumeRepDesc;                               //数据准备上传
    272c:	00005797          	auipc	a5,0x5
    2730:	04478793          	addi	a5,a5,68 # 7770 <VolumeRepDesc>
    2734:	84f1a223          	sw	a5,-1980(gp) # 2000177c <pDescr>
E:\Project\tp78\mounriver_project\RF_CH582M\obj/../HAL/USB.c:274
      errflag = 0;
    2738:	4401                	li	s0,0
E:\Project\tp78\mounriver_project\RF_CH582M\obj/../HAL/USB.c:324
                  len = sizeof( VolumeRepDesc );                        //如果有更多接口，该标准位应该在最后一个接口配置完成后有效
    273a:	02100793          	li	a5,33
    273e:	bf89                	j	2690 <USB_DevTransProcess+0x2f4>
E:\Project\tp78\mounriver_project\RF_CH582M\obj/../HAL/USB.c:336
                switch ( ( pSetupReqPak->wValue ) & 0xff )
    2740:	0ff7f793          	andi	a5,a5,255
    2744:	4685                	li	a3,1
    2746:	00d78e63          	beq	a5,a3,2762 <USB_DevTransProcess+0x3c6>
    274a:	c78d                	beqz	a5,2774 <USB_DevTransProcess+0x3d8>
    274c:	f0c792e3          	bne	a5,a2,2650 <USB_DevTransProcess+0x2b4>
E:\Project\tp78\mounriver_project\RF_CH582M\obj/../HAL/USB.c:343
                    pDescr = MyProdInfo;
    2750:	00005797          	auipc	a5,0x5
    2754:	01478793          	addi	a5,a5,20 # 7764 <MyProdInfo>
    2758:	84f1a223          	sw	a5,-1980(gp) # 2000177c <pDescr>
E:\Project\tp78\mounriver_project\RF_CH582M\obj/../HAL/USB.c:274
      errflag = 0;
    275c:	4401                	li	s0,0
E:\Project\tp78\mounriver_project\RF_CH582M\obj/../HAL/USB.c:344
                    len = MyProdInfo[0];
    275e:	47a9                	li	a5,10
    2760:	bf05                	j	2690 <USB_DevTransProcess+0x2f4>
E:\Project\tp78\mounriver_project\RF_CH582M\obj/../HAL/USB.c:339
                    pDescr = MyManuInfo;
    2762:	00005797          	auipc	a5,0x5
    2766:	ff278793          	addi	a5,a5,-14 # 7754 <MyManuInfo>
    276a:	84f1a223          	sw	a5,-1980(gp) # 2000177c <pDescr>
E:\Project\tp78\mounriver_project\RF_CH582M\obj/../HAL/USB.c:274
      errflag = 0;
    276e:	4401                	li	s0,0
E:\Project\tp78\mounriver_project\RF_CH582M\obj/../HAL/USB.c:340
                    len = MyManuInfo[0];
    2770:	47b9                	li	a5,14
    2772:	bf39                	j	2690 <USB_DevTransProcess+0x2f4>
E:\Project\tp78\mounriver_project\RF_CH582M\obj/../HAL/USB.c:347
                    pDescr = MyLangDescr;
    2774:	00005797          	auipc	a5,0x5
    2778:	17078793          	addi	a5,a5,368 # 78e4 <MyLangDescr>
    277c:	84f1a223          	sw	a5,-1980(gp) # 2000177c <pDescr>
E:\Project\tp78\mounriver_project\RF_CH582M\obj/../HAL/USB.c:274
      errflag = 0;
    2780:	4401                	li	s0,0
E:\Project\tp78\mounriver_project\RF_CH582M\obj/../HAL/USB.c:348
                    len = MyLangDescr[0];
    2782:	4791                	li	a5,4
    2784:	b731                	j	2690 <USB_DevTransProcess+0x2f4>
E:\Project\tp78\mounriver_project\RF_CH582M\obj/../HAL/USB.c:274
      errflag = 0;
    2786:	4401                	li	s0,0
E:\Project\tp78\mounriver_project\RF_CH582M\obj/../HAL/USB.c:329
                  len = 0xff;                                           //本程序只有4个接口，这句话正常不可能执行
    2788:	0ff00793          	li	a5,255
    278c:	b711                	j	2690 <USB_DevTransProcess+0x2f4>
E:\Project\tp78\mounriver_project\RF_CH582M\obj/../HAL/USB.c:371
            SetupReqLen = ( pSetupReqPak->wValue ) & 0xff;
    278e:	00254783          	lbu	a5,2(a0)
E:\Project\tp78\mounriver_project\RF_CH582M\obj/../HAL/USB.c:422
              SetupReqLen = 2;
    2792:	82f19f23          	sh	a5,-1986(gp) # 20001776 <SetupReqLen>
E:\Project\tp78\mounriver_project\RF_CH582M\obj/../HAL/USB.c:430
      if ( errflag == 0xff )        // 错误或不支持
    2796:	b94d                	j	2448 <USB_DevTransProcess+0xac>
E:\Project\tp78\mounriver_project\RF_CH582M\obj/../HAL/USB.c:375
            pEP0_DataBuf[0] = DevConfig;
    2798:	83c1c783          	lbu	a5,-1988(gp) # 20001774 <DevConfig>
    279c:	00f50023          	sb	a5,0(a0)
E:\Project\tp78\mounriver_project\RF_CH582M\obj/../HAL/USB.c:376
            if ( SetupReqLen > 1 )
    27a0:	83e1d703          	lhu	a4,-1986(gp) # 20001776 <SetupReqLen>
    27a4:	4785                	li	a5,1
    27a6:	cae7f1e3          	bgeu	a5,a4,2448 <USB_DevTransProcess+0xac>
E:\Project\tp78\mounriver_project\RF_CH582M\obj/../HAL/USB.c:377
              SetupReqLen = 1;
    27aa:	4785                	li	a5,1
    27ac:	b7dd                	j	2792 <USB_DevTransProcess+0x3f6>
E:\Project\tp78\mounriver_project\RF_CH582M\obj/../HAL/USB.c:381
            DevConfig = ( pSetupReqPak->wValue ) & 0xff;
    27ae:	00254783          	lbu	a5,2(a0)
    27b2:	82f18e23          	sb	a5,-1988(gp) # 20001774 <DevConfig>
E:\Project\tp78\mounriver_project\RF_CH582M\obj/../HAL/USB.c:430
      if ( errflag == 0xff )        // 错误或不支持
    27b6:	b949                	j	2448 <USB_DevTransProcess+0xac>
E:\Project\tp78\mounriver_project\RF_CH582M\obj/../HAL/USB.c:386
            if ( ( pSetupReqPak->bRequestType & USB_REQ_RECIP_MASK ) == USB_REQ_RECIP_ENDP )    // 端点
    27b8:	01f97713          	andi	a4,s2,31
    27bc:	4789                	li	a5,2
    27be:	f0f71ce3          	bne	a4,a5,26d6 <USB_DevTransProcess+0x33a>
E:\Project\tp78\mounriver_project\RF_CH582M\obj/../HAL/USB.c:388
              switch ( ( pSetupReqPak->wIndex ) & 0xff )
    27c2:	00454783          	lbu	a5,4(a0)
    27c6:	04e78163          	beq	a5,a4,2808 <USB_DevTransProcess+0x46c>
    27ca:	00f76c63          	bltu	a4,a5,27e2 <USB_DevTransProcess+0x446>
    27ce:	4705                	li	a4,1
    27d0:	f0e793e3          	bne	a5,a4,26d6 <USB_DevTransProcess+0x33a>
E:\Project\tp78\mounriver_project\RF_CH582M\obj/../HAL/USB.c:400
                  R8_UEP1_CTRL = ( R8_UEP1_CTRL & ~( RB_UEP_R_TOG | MASK_UEP_R_RES ) ) | UEP_R_RES_ACK;
    27d4:	40008737          	lui	a4,0x40008
    27d8:	02674783          	lbu	a5,38(a4) # 40008026 <_eusrstack+0x20000026>
    27dc:	0737f793          	andi	a5,a5,115
    27e0:	a099                	j	2826 <USB_DevTransProcess+0x48a>
    27e2:	08100713          	li	a4,129
    27e6:	02e78863          	beq	a5,a4,2816 <USB_DevTransProcess+0x47a>
    27ea:	08200713          	li	a4,130
    27ee:	eee794e3          	bne	a5,a4,26d6 <USB_DevTransProcess+0x33a>
E:\Project\tp78\mounriver_project\RF_CH582M\obj/../HAL/USB.c:391
                  R8_UEP2_CTRL = ( R8_UEP2_CTRL & ~( RB_UEP_T_TOG | MASK_UEP_T_RES ) ) | UEP_T_RES_NAK;
    27f2:	40008737          	lui	a4,0x40008
    27f6:	02a74783          	lbu	a5,42(a4) # 4000802a <_eusrstack+0x2000002a>
    27fa:	0bc7f793          	andi	a5,a5,188
    27fe:	0027e793          	ori	a5,a5,2
E:\Project\tp78\mounriver_project\RF_CH582M\obj/../HAL/USB.c:394
                  R8_UEP2_CTRL = ( R8_UEP2_CTRL & ~( RB_UEP_R_TOG | MASK_UEP_R_RES ) ) | UEP_R_RES_ACK;
    2802:	02f70523          	sb	a5,42(a4)
E:\Project\tp78\mounriver_project\RF_CH582M\obj/../HAL/USB.c:430
      if ( errflag == 0xff )        // 错误或不支持
    2806:	b189                	j	2448 <USB_DevTransProcess+0xac>
E:\Project\tp78\mounriver_project\RF_CH582M\obj/../HAL/USB.c:394
                  R8_UEP2_CTRL = ( R8_UEP2_CTRL & ~( RB_UEP_R_TOG | MASK_UEP_R_RES ) ) | UEP_R_RES_ACK;
    2808:	40008737          	lui	a4,0x40008
    280c:	02a74783          	lbu	a5,42(a4) # 4000802a <_eusrstack+0x2000002a>
    2810:	0737f793          	andi	a5,a5,115
    2814:	b7fd                	j	2802 <USB_DevTransProcess+0x466>
E:\Project\tp78\mounriver_project\RF_CH582M\obj/../HAL/USB.c:397
                  R8_UEP1_CTRL = ( R8_UEP1_CTRL & ~( RB_UEP_T_TOG | MASK_UEP_T_RES ) ) | UEP_T_RES_NAK;
    2816:	40008737          	lui	a4,0x40008
    281a:	02674783          	lbu	a5,38(a4) # 40008026 <_eusrstack+0x20000026>
    281e:	0bc7f793          	andi	a5,a5,188
    2822:	0027e793          	ori	a5,a5,2
E:\Project\tp78\mounriver_project\RF_CH582M\obj/../HAL/USB.c:400
                  R8_UEP1_CTRL = ( R8_UEP1_CTRL & ~( RB_UEP_R_TOG | MASK_UEP_R_RES ) ) | UEP_R_RES_ACK;
    2826:	02f70323          	sb	a5,38(a4)
E:\Project\tp78\mounriver_project\RF_CH582M\obj/../HAL/USB.c:430
      if ( errflag == 0xff )        // 错误或不支持
    282a:	b939                	j	2448 <USB_DevTransProcess+0xac>
E:\Project\tp78\mounriver_project\RF_CH582M\obj/../HAL/USB.c:413
            pEP0_DataBuf[0] = 0x00;
    282c:	00050023          	sb	zero,0(a0)
E:\Project\tp78\mounriver_project\RF_CH582M\obj/../HAL/USB.c:414
            if ( SetupReqLen > 1 )
    2830:	bf85                	j	27a0 <USB_DevTransProcess+0x404>
E:\Project\tp78\mounriver_project\RF_CH582M\obj/../HAL/USB.c:419
            pEP0_DataBuf[0] = 0x00;
    2832:	00050023          	sb	zero,0(a0)
E:\Project\tp78\mounriver_project\RF_CH582M\obj/../HAL/USB.c:420
            pEP0_DataBuf[1] = 0x00;
    2836:	429c                	lw	a5,0(a3)
    2838:	000780a3          	sb	zero,1(a5)
E:\Project\tp78\mounriver_project\RF_CH582M\obj/../HAL/USB.c:421
            if ( SetupReqLen > 2 )
    283c:	83e1d703          	lhu	a4,-1986(gp) # 20001776 <SetupReqLen>
    2840:	4789                	li	a5,2
    2842:	c0e7f3e3          	bgeu	a5,a4,2448 <USB_DevTransProcess+0xac>
    2846:	b7b1                	j	2792 <USB_DevTransProcess+0x3f6>
E:\Project\tp78\mounriver_project\RF_CH582M\obj/../HAL/USB.c:452
  else if ( intflag & RB_UIF_BUS_RST )
    2848:	00177693          	andi	a3,a4,1
    284c:	c28d                	beqz	a3,286e <USB_DevTransProcess+0x4d2>
E:\Project\tp78\mounriver_project\RF_CH582M\obj/../HAL/USB.c:454
    R8_USB_DEV_AD = 0;
    284e:	000781a3          	sb	zero,3(a5)
E:\Project\tp78\mounriver_project\RF_CH582M\obj/../HAL/USB.c:455
    R8_UEP0_CTRL = UEP_R_RES_ACK | UEP_T_RES_NAK;
    2852:	4709                	li	a4,2
    2854:	02e78123          	sb	a4,34(a5)
E:\Project\tp78\mounriver_project\RF_CH582M\obj/../HAL/USB.c:456
    R8_UEP1_CTRL = UEP_R_RES_ACK | UEP_T_RES_NAK | RB_UEP_AUTO_TOG;
    2858:	4749                	li	a4,18
    285a:	02e78323          	sb	a4,38(a5)
E:\Project\tp78\mounriver_project\RF_CH582M\obj/../HAL/USB.c:457
    R8_UEP2_CTRL = UEP_R_RES_ACK | UEP_T_RES_NAK | RB_UEP_AUTO_TOG;
    285e:	02e78523          	sb	a4,42(a5)
E:\Project\tp78\mounriver_project\RF_CH582M\obj/../HAL/USB.c:458
    R8_UEP3_CTRL = UEP_R_RES_ACK | UEP_T_RES_NAK | RB_UEP_AUTO_TOG;
    2862:	02e78723          	sb	a4,46(a5)
E:\Project\tp78\mounriver_project\RF_CH582M\obj/../HAL/USB.c:459
    R8_USB_INT_FG = RB_UIF_BUS_RST;
    2866:	4705                	li	a4,1
E:\Project\tp78\mounriver_project\RF_CH582M\obj/../HAL/USB.c:475
    R8_USB_INT_FG = intflag;
    2868:	00e78323          	sb	a4,6(a5)
    286c:	8082                	ret
E:\Project\tp78\mounriver_project\RF_CH582M\obj/../HAL/USB.c:461
  else if ( intflag & RB_UIF_SUSPEND )
    286e:	00477693          	andi	a3,a4,4
    2872:	dafd                	beqz	a3,2868 <USB_DevTransProcess+0x4cc>
E:\Project\tp78\mounriver_project\RF_CH582M\obj/../HAL/USB.c:463
    if ( R8_USB_MIS_ST & RB_UMS_SUSPEND )
    2874:	0057c703          	lbu	a4,5(a5)
    2878:	8309                	srli	a4,a4,0x2
    287a:	00174713          	xori	a4,a4,1
    287e:	8b05                	andi	a4,a4,1
    2880:	80e188a3          	sb	a4,-2031(gp) # 20001749 <USB_Ready>
E:\Project\tp78\mounriver_project\RF_CH582M\obj/../HAL/USB.c:471
    R8_USB_INT_FG = RB_UIF_SUSPEND;
    2884:	4711                	li	a4,4
    2886:	b7cd                	j	2868 <USB_DevTransProcess+0x4cc>

00002888 <RF_2G4StatusCallBack>:
RF_2G4StatusCallBack():
E:\Project\tp78\mounriver_project\RF_CH582M\obj/../APP/RF_PHY.c:35
 * @param   rxBuf   - 数据buf指针
 *
 * @return  none
 */
void RF_2G4StatusCallBack(uint8_t sta, uint8_t crc, uint8_t *rxBuf)
{
    2888:	7179                	addi	sp,sp,-48
    288a:	d422                	sw	s0,40(sp)
    288c:	d04a                	sw	s2,32(sp)
    288e:	d606                	sw	ra,44(sp)
    2890:	d226                	sw	s1,36(sp)
    2892:	ce4e                	sw	s3,28(sp)
    2894:	cc52                	sw	s4,24(sp)
    2896:	ca56                	sw	s5,20(sp)
    2898:	478d                	li	a5,3
    289a:	892a                	mv	s2,a0
    289c:	8432                	mv	s0,a2
    289e:	0ef50563          	beq	a0,a5,2988 <RF_2G4StatusCallBack+0x100>
    28a2:	4791                	li	a5,4
    28a4:	16f50363          	beq	a0,a5,2a0a <RF_2G4StatusCallBack+0x182>
    28a8:	4789                	li	a5,2
    28aa:	02f51563          	bne	a0,a5,28d4 <RF_2G4StatusCallBack+0x4c>
    28ae:	c62e                	sw	a1,12(sp)
E:\Project\tp78\mounriver_project\RF_CH582M\obj/../APP/RF_PHY.c:48
        {
            break;
        }
        case TX_MODE_RX_DATA:
        {
            RF_Shut();
    28b0:	3e0020ef          	jal	ra,4c90 <RF_Shut>
E:\Project\tp78\mounriver_project\RF_CH582M\obj/../APP/RF_PHY.c:49
            if(crc == 1)
    28b4:	45b2                	lw	a1,12(sp)
    28b6:	4785                	li	a5,1
E:\Project\tp78\mounriver_project\RF_CH582M\obj/../APP/RF_PHY.c:51
            {
                PRINT("crc error\n");
    28b8:	00005517          	auipc	a0,0x5
    28bc:	edc50513          	addi	a0,a0,-292 # 7794 <VolumeRepDesc+0x24>
E:\Project\tp78\mounriver_project\RF_CH582M\obj/../APP/RF_PHY.c:49
            if(crc == 1)
    28c0:	00f58863          	beq	a1,a5,28d0 <RF_2G4StatusCallBack+0x48>
E:\Project\tp78\mounriver_project\RF_CH582M\obj/../APP/RF_PHY.c:53
            }
            else if(crc == 2)
    28c4:	03259763          	bne	a1,s2,28f2 <RF_2G4StatusCallBack+0x6a>
E:\Project\tp78\mounriver_project\RF_CH582M\obj/../APP/RF_PHY.c:55
            {
                PRINT("match type error\n");
    28c8:	00005517          	auipc	a0,0x5
    28cc:	ed850513          	addi	a0,a0,-296 # 77a0 <VolumeRepDesc+0x30>
    28d0:	2f7030ef          	jal	ra,63c6 <puts>
E:\Project\tp78\mounriver_project\RF_CH582M\obj/../APP/RF_PHY.c:123
        {
            break;
        }
    }
    PRINT("STA: %x\n", sta);
}
    28d4:	5422                	lw	s0,40(sp)
    28d6:	50b2                	lw	ra,44(sp)
    28d8:	5492                	lw	s1,36(sp)
    28da:	49f2                	lw	s3,28(sp)
    28dc:	4a62                	lw	s4,24(sp)
    28de:	4ad2                	lw	s5,20(sp)
E:\Project\tp78\mounriver_project\RF_CH582M\obj/../APP/RF_PHY.c:122
    PRINT("STA: %x\n", sta);
    28e0:	85ca                	mv	a1,s2
E:\Project\tp78\mounriver_project\RF_CH582M\obj/../APP/RF_PHY.c:123
}
    28e2:	5902                	lw	s2,32(sp)
E:\Project\tp78\mounriver_project\RF_CH582M\obj/../APP/RF_PHY.c:122
    PRINT("STA: %x\n", sta);
    28e4:	00005517          	auipc	a0,0x5
    28e8:	f1450513          	addi	a0,a0,-236 # 77f8 <VolumeRepDesc+0x88>
E:\Project\tp78\mounriver_project\RF_CH582M\obj/../APP/RF_PHY.c:123
}
    28ec:	6145                	addi	sp,sp,48
E:\Project\tp78\mounriver_project\RF_CH582M\obj/../APP/RF_PHY.c:122
    PRINT("STA: %x\n", sta);
    28ee:	1950306f          	j	6282 <iprintf>
E:\Project\tp78\mounriver_project\RF_CH582M\obj/../APP/RF_PHY.c:60
                PRINT("tx recv,rssi:%d\n", (int8_t)rxBuf[0]);
    28f2:	00040583          	lb	a1,0(s0)
    28f6:	00005517          	auipc	a0,0x5
    28fa:	ebe50513          	addi	a0,a0,-322 # 77b4 <VolumeRepDesc+0x44>
E:\Project\tp78\mounriver_project\RF_CH582M\obj/../APP/RF_PHY.c:63
                    for(i = 0; i < rxBuf[1]; i++) {
    28fe:	4481                	li	s1,0
E:\Project\tp78\mounriver_project\RF_CH582M\obj/../APP/RF_PHY.c:60
                PRINT("tx recv,rssi:%d\n", (int8_t)rxBuf[0]);
    2900:	183030ef          	jal	ra,6282 <iprintf>
E:\Project\tp78\mounriver_project\RF_CH582M\obj/../APP/RF_PHY.c:61
                PRINT("len:%d-", rxBuf[1]);
    2904:	00144583          	lbu	a1,1(s0)
    2908:	00005517          	auipc	a0,0x5
    290c:	ec050513          	addi	a0,a0,-320 # 77c8 <VolumeRepDesc+0x58>
    2910:	173030ef          	jal	ra,6282 <iprintf>
E:\Project\tp78\mounriver_project\RF_CH582M\obj/../APP/RF_PHY.c:62
                if (rxBuf[1] <= sizeof(HID_dat)) {
    2914:	00144703          	lbu	a4,1(s0)
    2918:	47a5                	li	a5,9
    291a:	06e7e263          	bltu	a5,a4,297e <RF_2G4StatusCallBack+0xf6>
E:\Project\tp78\mounriver_project\RF_CH582M\obj/../APP/RF_PHY.c:64
                        PRINT("%x ", rxBuf[i + 2]);
    291e:	00005a17          	auipc	s4,0x5
    2922:	eb2a0a13          	addi	s4,s4,-334 # 77d0 <VolumeRepDesc+0x60>
E:\Project\tp78\mounriver_project\RF_CH582M\obj/../APP/RF_PHY.c:65
                        *((uint8_t*)&HID_dat + i) = rxBuf[i + 2];
    2926:	98818a93          	addi	s5,gp,-1656 # 200018c0 <HID_dat>
E:\Project\tp78\mounriver_project\RF_CH582M\obj/../APP/RF_PHY.c:63 (discriminator 1)
                    for(i = 0; i < rxBuf[1]; i++) {
    292a:	00144783          	lbu	a5,1(s0)
    292e:	02f4e663          	bltu	s1,a5,295a <RF_2G4StatusCallBack+0xd2>
E:\Project\tp78\mounriver_project\RF_CH582M\obj/../APP/RF_PHY.c:67
                    if (USB_Ready == TRUE) {
    2932:	8111c583          	lbu	a1,-2031(gp) # 20001749 <USB_Ready>
    2936:	4785                	li	a5,1
    2938:	00f59d63          	bne	a1,a5,2952 <RF_2G4StatusCallBack+0xca>
E:\Project\tp78\mounriver_project\RF_CH582M\obj/../APP/RF_PHY.c:68
                        tmos_set_event(usbTaskID, 1<<HID_dat.label);
    293c:	9881c783          	lbu	a5,-1656(gp) # 200018c0 <HID_dat>
    2940:	00f595b3          	sll	a1,a1,a5
    2944:	05c2                	slli	a1,a1,0x10
    2946:	81c1                	srli	a1,a1,0x10
    2948:	1ffff517          	auipc	a0,0x1ffff
    294c:	df054503          	lbu	a0,-528(a0) # 20001738 <usbTaskID>
    2950:	2bbd                	jal	2ece <tmos_set_event>
E:\Project\tp78\mounriver_project\RF_CH582M\obj/../APP/RF_PHY.c:70
                    PRINT("\n");
    2952:	4529                	li	a0,10
    2954:	16f030ef          	jal	ra,62c2 <putchar>
    2958:	bfb5                	j	28d4 <RF_2G4StatusCallBack+0x4c>
E:\Project\tp78\mounriver_project\RF_CH582M\obj/../APP/RF_PHY.c:64 (discriminator 3)
                        PRINT("%x ", rxBuf[i + 2]);
    295a:	00248993          	addi	s3,s1,2
    295e:	99a2                	add	s3,s3,s0
    2960:	0009c583          	lbu	a1,0(s3)
    2964:	8552                	mv	a0,s4
    2966:	11d030ef          	jal	ra,6282 <iprintf>
E:\Project\tp78\mounriver_project\RF_CH582M\obj/../APP/RF_PHY.c:65 (discriminator 3)
                        *((uint8_t*)&HID_dat + i) = rxBuf[i + 2];
    296a:	0009c703          	lbu	a4,0(s3)
    296e:	015487b3          	add	a5,s1,s5
E:\Project\tp78\mounriver_project\RF_CH582M\obj/../APP/RF_PHY.c:63 (discriminator 3)
                    for(i = 0; i < rxBuf[1]; i++) {
    2972:	0485                	addi	s1,s1,1
E:\Project\tp78\mounriver_project\RF_CH582M\obj/../APP/RF_PHY.c:65 (discriminator 3)
                        *((uint8_t*)&HID_dat + i) = rxBuf[i + 2];
    2974:	00e78023          	sb	a4,0(a5)
E:\Project\tp78\mounriver_project\RF_CH582M\obj/../APP/RF_PHY.c:63 (discriminator 3)
                    for(i = 0; i < rxBuf[1]; i++) {
    2978:	0ff4f493          	andi	s1,s1,255
    297c:	b77d                	j	292a <RF_2G4StatusCallBack+0xa2>
E:\Project\tp78\mounriver_project\RF_CH582M\obj/../APP/RF_PHY.c:72
                    PRINT("receive err!\n");
    297e:	00005517          	auipc	a0,0x5
    2982:	e5650513          	addi	a0,a0,-426 # 77d4 <VolumeRepDesc+0x64>
    2986:	b7a9                	j	28d0 <RF_2G4StatusCallBack+0x48>
E:\Project\tp78\mounriver_project\RF_CH582M\obj/../APP/RF_PHY.c:83
            if(crc == 1)
    2988:	4785                	li	a5,1
E:\Project\tp78\mounriver_project\RF_CH582M\obj/../APP/RF_PHY.c:85
                PRINT("crc error\n");
    298a:	00005517          	auipc	a0,0x5
    298e:	e0a50513          	addi	a0,a0,-502 # 7794 <VolumeRepDesc+0x24>
E:\Project\tp78\mounriver_project\RF_CH582M\obj/../APP/RF_PHY.c:83
            if(crc == 1)
    2992:	0af58763          	beq	a1,a5,2a40 <RF_2G4StatusCallBack+0x1b8>
E:\Project\tp78\mounriver_project\RF_CH582M\obj/../APP/RF_PHY.c:87
            else if(crc == 2)
    2996:	4789                	li	a5,2
E:\Project\tp78\mounriver_project\RF_CH582M\obj/../APP/RF_PHY.c:89
                PRINT("match type error\n");
    2998:	00005517          	auipc	a0,0x5
    299c:	e0850513          	addi	a0,a0,-504 # 77a0 <VolumeRepDesc+0x30>
E:\Project\tp78\mounriver_project\RF_CH582M\obj/../APP/RF_PHY.c:87
            else if(crc == 2)
    29a0:	0af58063          	beq	a1,a5,2a40 <RF_2G4StatusCallBack+0x1b8>
E:\Project\tp78\mounriver_project\RF_CH582M\obj/../APP/RF_PHY.c:94
                PRINT("rx recv, rssi: %d\n", (int8_t)rxBuf[0]);
    29a4:	00060583          	lb	a1,0(a2)
    29a8:	00005517          	auipc	a0,0x5
    29ac:	e3c50513          	addi	a0,a0,-452 # 77e4 <VolumeRepDesc+0x74>
E:\Project\tp78\mounriver_project\RF_CH582M\obj/../APP/RF_PHY.c:97
                    for(i = 0; i < rxBuf[1]; i++) {
    29b0:	4481                	li	s1,0
E:\Project\tp78\mounriver_project\RF_CH582M\obj/../APP/RF_PHY.c:94
                PRINT("rx recv, rssi: %d\n", (int8_t)rxBuf[0]);
    29b2:	0d1030ef          	jal	ra,6282 <iprintf>
E:\Project\tp78\mounriver_project\RF_CH582M\obj/../APP/RF_PHY.c:95
                PRINT("len:%d-", rxBuf[1]);
    29b6:	00144583          	lbu	a1,1(s0)
    29ba:	00005517          	auipc	a0,0x5
    29be:	e0e50513          	addi	a0,a0,-498 # 77c8 <VolumeRepDesc+0x58>
    29c2:	0c1030ef          	jal	ra,6282 <iprintf>
E:\Project\tp78\mounriver_project\RF_CH582M\obj/../APP/RF_PHY.c:96
                if (rxBuf[1] <= sizeof(HID_dat)) {
    29c6:	00144703          	lbu	a4,1(s0)
    29ca:	47a5                	li	a5,9
    29cc:	06e7e663          	bltu	a5,a4,2a38 <RF_2G4StatusCallBack+0x1b0>
E:\Project\tp78\mounriver_project\RF_CH582M\obj/../APP/RF_PHY.c:98
                        PRINT("%x ", rxBuf[i + 2]);
    29d0:	00005a17          	auipc	s4,0x5
    29d4:	e00a0a13          	addi	s4,s4,-512 # 77d0 <VolumeRepDesc+0x60>
E:\Project\tp78\mounriver_project\RF_CH582M\obj/../APP/RF_PHY.c:99
                        *((uint8_t*)&HID_dat + i) = rxBuf[i + 2];
    29d8:	98818a93          	addi	s5,gp,-1656 # 200018c0 <HID_dat>
E:\Project\tp78\mounriver_project\RF_CH582M\obj/../APP/RF_PHY.c:97 (discriminator 1)
                    for(i = 0; i < rxBuf[1]; i++) {
    29dc:	00144783          	lbu	a5,1(s0)
    29e0:	02f4ea63          	bltu	s1,a5,2a14 <RF_2G4StatusCallBack+0x18c>
E:\Project\tp78\mounriver_project\RF_CH582M\obj/../APP/RF_PHY.c:101
                    if (USB_Ready == TRUE) {
    29e4:	8111c583          	lbu	a1,-2031(gp) # 20001749 <USB_Ready>
    29e8:	4785                	li	a5,1
    29ea:	00f59d63          	bne	a1,a5,2a04 <RF_2G4StatusCallBack+0x17c>
E:\Project\tp78\mounriver_project\RF_CH582M\obj/../APP/RF_PHY.c:102
                        tmos_set_event(usbTaskID, 1<<HID_dat.label);
    29ee:	9881c783          	lbu	a5,-1656(gp) # 200018c0 <HID_dat>
    29f2:	00f595b3          	sll	a1,a1,a5
    29f6:	05c2                	slli	a1,a1,0x10
    29f8:	81c1                	srli	a1,a1,0x10
    29fa:	1ffff517          	auipc	a0,0x1ffff
    29fe:	d3e54503          	lbu	a0,-706(a0) # 20001738 <usbTaskID>
    2a02:	21f1                	jal	2ece <tmos_set_event>
E:\Project\tp78\mounriver_project\RF_CH582M\obj/../APP/RF_PHY.c:104
                    PRINT("\n");
    2a04:	4529                	li	a0,10
    2a06:	0bd030ef          	jal	ra,62c2 <putchar>
E:\Project\tp78\mounriver_project\RF_CH582M\obj/../APP/RF_PHY.c:114
            tmos_set_event(RFtaskID, SBP_RF_RF_RX_EVT);
    2a0a:	4591                	li	a1,4
    2a0c:	a941c503          	lbu	a0,-1388(gp) # 200019cc <RFtaskID>
    2a10:	297d                	jal	2ece <tmos_set_event>
E:\Project\tp78\mounriver_project\RF_CH582M\obj/../APP/RF_PHY.c:115
            break;
    2a12:	b5c9                	j	28d4 <RF_2G4StatusCallBack+0x4c>
E:\Project\tp78\mounriver_project\RF_CH582M\obj/../APP/RF_PHY.c:98 (discriminator 3)
                        PRINT("%x ", rxBuf[i + 2]);
    2a14:	00248993          	addi	s3,s1,2
    2a18:	99a2                	add	s3,s3,s0
    2a1a:	0009c583          	lbu	a1,0(s3)
    2a1e:	8552                	mv	a0,s4
    2a20:	063030ef          	jal	ra,6282 <iprintf>
E:\Project\tp78\mounriver_project\RF_CH582M\obj/../APP/RF_PHY.c:99 (discriminator 3)
                        *((uint8_t*)&HID_dat + i) = rxBuf[i + 2];
    2a24:	0009c703          	lbu	a4,0(s3)
    2a28:	015487b3          	add	a5,s1,s5
E:\Project\tp78\mounriver_project\RF_CH582M\obj/../APP/RF_PHY.c:97 (discriminator 3)
                    for(i = 0; i < rxBuf[1]; i++) {
    2a2c:	0485                	addi	s1,s1,1
E:\Project\tp78\mounriver_project\RF_CH582M\obj/../APP/RF_PHY.c:99 (discriminator 3)
                        *((uint8_t*)&HID_dat + i) = rxBuf[i + 2];
    2a2e:	00e78023          	sb	a4,0(a5)
E:\Project\tp78\mounriver_project\RF_CH582M\obj/../APP/RF_PHY.c:97 (discriminator 3)
                    for(i = 0; i < rxBuf[1]; i++) {
    2a32:	0ff4f493          	andi	s1,s1,255
    2a36:	b75d                	j	29dc <RF_2G4StatusCallBack+0x154>
E:\Project\tp78\mounriver_project\RF_CH582M\obj/../APP/RF_PHY.c:106
                    PRINT("receive err!\n");
    2a38:	00005517          	auipc	a0,0x5
    2a3c:	d9c50513          	addi	a0,a0,-612 # 77d4 <VolumeRepDesc+0x64>
    2a40:	187030ef          	jal	ra,63c6 <puts>
E:\Project\tp78\mounriver_project\RF_CH582M\obj/../APP/RF_PHY.c:109
            tmos_set_event(RFtaskID, SBP_RF_RF_RX_EVT);
    2a44:	b7d9                	j	2a0a <RF_2G4StatusCallBack+0x182>

00002a46 <RF_ProcessEvent>:
RF_ProcessEvent():
E:\Project\tp78\mounriver_project\RF_CH582M\obj/../APP/RF_PHY.c:136
 * @param   events  - 事件标志
 *
 * @return  未完成事件
 */
uint16_t RF_ProcessEvent(uint8_t task_id, uint16_t events)
{
    2a46:	1141                	addi	sp,sp,-16
E:\Project\tp78\mounriver_project\RF_CH582M\obj/../APP/RF_PHY.c:137
    if(events & SYS_EVENT_MSG)
    2a48:	01059793          	slli	a5,a1,0x10
E:\Project\tp78\mounriver_project\RF_CH582M\obj/../APP/RF_PHY.c:136
{
    2a4c:	c422                	sw	s0,8(sp)
    2a4e:	c606                	sw	ra,12(sp)
E:\Project\tp78\mounriver_project\RF_CH582M\obj/../APP/RF_PHY.c:137
    if(events & SYS_EVENT_MSG)
    2a50:	87c1                	srai	a5,a5,0x10
E:\Project\tp78\mounriver_project\RF_CH582M\obj/../APP/RF_PHY.c:136
{
    2a52:	842e                	mv	s0,a1
E:\Project\tp78\mounriver_project\RF_CH582M\obj/../APP/RF_PHY.c:137
    if(events & SYS_EVENT_MSG)
    2a54:	0007db63          	bgez	a5,2a6a <RF_ProcessEvent+0x24>
E:\Project\tp78\mounriver_project\RF_CH582M\obj/../APP/RF_PHY.c:141
    {
        uint8_t *pMsg;

        if((pMsg = tmos_msg_receive(task_id)) != NULL)
    2a58:	2245                	jal	2bf8 <tmos_msg_receive>
    2a5a:	c111                	beqz	a0,2a5e <RF_ProcessEvent+0x18>
E:\Project\tp78\mounriver_project\RF_CH582M\obj/../APP/RF_PHY.c:144
        {
            // Release the TMOS message
            tmos_msg_deallocate(pMsg);
    2a5c:	2a85                	jal	2bcc <tmos_msg_deallocate>
E:\Project\tp78\mounriver_project\RF_CH582M\obj/../APP/RF_PHY.c:147
        }
        // return unprocessed events
        return (events ^ SYS_EVENT_MSG);
    2a5e:	6521                	lui	a0,0x8
    2a60:	8d21                	xor	a0,a0,s0
E:\Project\tp78\mounriver_project\RF_CH582M\obj/../APP/RF_PHY.c:179
        state = RF_Rx(TX_DATA, 2, 0xFF, 0xFF);
        PRINT("RX mode.state = %x\n", state);
        return events ^ SBP_RF_TX_CAPSLOCK_EVT;
    }
    return 0;
}
    2a62:	40b2                	lw	ra,12(sp)
    2a64:	4422                	lw	s0,8(sp)
    2a66:	0141                	addi	sp,sp,16
    2a68:	8082                	ret
E:\Project\tp78\mounriver_project\RF_CH582M\obj/../APP/RF_PHY.c:161
    if(events & SBP_RF_RF_RX_EVT)
    2a6a:	0045f793          	andi	a5,a1,4
    2a6e:	c795                	beqz	a5,2a9a <RF_ProcessEvent+0x54>
E:\Project\tp78\mounriver_project\RF_CH582M\obj/../APP/RF_PHY.c:164
        RF_Shut();
    2a70:	220020ef          	jal	ra,4c90 <RF_Shut>
E:\Project\tp78\mounriver_project\RF_CH582M\obj/../APP/RF_PHY.c:165
        state = RF_Rx(TX_DATA, 2, 0xFF, 0xFF);
    2a74:	0ff00693          	li	a3,255
    2a78:	0ff00613          	li	a2,255
    2a7c:	4589                	li	a1,2
    2a7e:	80818513          	addi	a0,gp,-2040 # 20001740 <TX_DATA>
    2a82:	289010ef          	jal	ra,450a <RF_Rx>
E:\Project\tp78\mounriver_project\RF_CH582M\obj/../APP/RF_PHY.c:166
        PRINT("RX mode.state = %x\n", state);
    2a86:	85aa                	mv	a1,a0
    2a88:	00005517          	auipc	a0,0x5
    2a8c:	d9050513          	addi	a0,a0,-624 # 7818 <VolumeRepDesc+0xa8>
    2a90:	7f2030ef          	jal	ra,6282 <iprintf>
E:\Project\tp78\mounriver_project\RF_CH582M\obj/../APP/RF_PHY.c:167
        return events ^ SBP_RF_RF_RX_EVT;
    2a94:	00444513          	xori	a0,s0,4
    2a98:	b7e9                	j	2a62 <RF_ProcessEvent+0x1c>
E:\Project\tp78\mounriver_project\RF_CH582M\obj/../APP/RF_PHY.c:169
    if(events & SBP_RF_TX_CAPSLOCK_EVT)
    2a9a:	0085f793          	andi	a5,a1,8
E:\Project\tp78\mounriver_project\RF_CH582M\obj/../APP/RF_PHY.c:178
    return 0;
    2a9e:	4501                	li	a0,0
E:\Project\tp78\mounriver_project\RF_CH582M\obj/../APP/RF_PHY.c:169
    if(events & SBP_RF_TX_CAPSLOCK_EVT)
    2aa0:	d3e9                	beqz	a5,2a62 <RF_ProcessEvent+0x1c>
E:\Project\tp78\mounriver_project\RF_CH582M\obj/../APP/RF_PHY.c:172
        RF_Shut();
    2aa2:	1ee020ef          	jal	ra,4c90 <RF_Shut>
E:\Project\tp78\mounriver_project\RF_CH582M\obj/../APP/RF_PHY.c:173
        CAPSLOCK_DATA[1] = USB_CapsLock_LEDOn;
    2aa6:	81018793          	addi	a5,gp,-2032 # 20001748 <_edata>
    2aaa:	0007c783          	lbu	a5,0(a5)
E:\Project\tp78\mounriver_project\RF_CH582M\obj/../APP/RF_PHY.c:174
        state = RF_Rx(TX_DATA, 2, 0xFF, 0xFF);
    2aae:	0ff00693          	li	a3,255
    2ab2:	0ff00613          	li	a2,255
    2ab6:	4589                	li	a1,2
    2ab8:	80818513          	addi	a0,gp,-2040 # 20001740 <TX_DATA>
E:\Project\tp78\mounriver_project\RF_CH582M\obj/../APP/RF_PHY.c:173
        CAPSLOCK_DATA[1] = USB_CapsLock_LEDOn;
    2abc:	80f182a3          	sb	a5,-2043(gp) # 2000173d <CAPSLOCK_DATA+0x1>
E:\Project\tp78\mounriver_project\RF_CH582M\obj/../APP/RF_PHY.c:174
        state = RF_Rx(TX_DATA, 2, 0xFF, 0xFF);
    2ac0:	24b010ef          	jal	ra,450a <RF_Rx>
E:\Project\tp78\mounriver_project\RF_CH582M\obj/../APP/RF_PHY.c:175
        PRINT("RX mode.state = %x\n", state);
    2ac4:	85aa                	mv	a1,a0
    2ac6:	00005517          	auipc	a0,0x5
    2aca:	d5250513          	addi	a0,a0,-686 # 7818 <VolumeRepDesc+0xa8>
    2ace:	7b4030ef          	jal	ra,6282 <iprintf>
E:\Project\tp78\mounriver_project\RF_CH582M\obj/../APP/RF_PHY.c:176
        return events ^ SBP_RF_TX_CAPSLOCK_EVT;
    2ad2:	00844513          	xori	a0,s0,8
    2ad6:	b771                	j	2a62 <RF_ProcessEvent+0x1c>

00002ad8 <RF_Init>:
RF_Init():
E:\Project\tp78\mounriver_project\RF_CH582M\obj/../APP/RF_PHY.c:189
 * @brief   RF 初始化
 *
 * @return  none
 */
void RF_Init(void)
{
    2ad8:	7179                	addi	sp,sp,-48
E:\Project\tp78\mounriver_project\RF_CH582M\obj/../APP/RF_PHY.c:193
    uint8_t    state;
    rfConfig_t rfConfig;

    tmos_memset(&rfConfig, 0, sizeof(rfConfig_t));
    2ada:	02000613          	li	a2,32
    2ade:	4581                	li	a1,0
    2ae0:	850a                	mv	a0,sp
E:\Project\tp78\mounriver_project\RF_CH582M\obj/../APP/RF_PHY.c:189
{
    2ae2:	d606                	sw	ra,44(sp)
E:\Project\tp78\mounriver_project\RF_CH582M\obj/../APP/RF_PHY.c:193
    tmos_memset(&rfConfig, 0, sizeof(rfConfig_t));
    2ae4:	1fffe097          	auipc	ra,0x1fffe
    2ae8:	c86080e7          	jalr	-890(ra) # 2000076a <tmos_memset>
E:\Project\tp78\mounriver_project\RF_CH582M\obj/../APP/RF_PHY.c:194
    RFtaskID = TMOS_ProcessEventRegister(RF_ProcessEvent);
    2aec:	00000517          	auipc	a0,0x0
    2af0:	f5a50513          	addi	a0,a0,-166 # 2a46 <RF_ProcessEvent>
    2af4:	2d49                	jal	3186 <TMOS_ProcessEventRegister>
    2af6:	a8a18a23          	sb	a0,-1388(gp) # 200019cc <RFtaskID>
E:\Project\tp78\mounriver_project\RF_CH582M\obj/../APP/RF_PHY.c:195
    rfConfig.accessAddress = 0x71764129; // 禁止使用0x55555555以及0xAAAAAAAA ( 建议不超过24次位反转，且不超过连续的6个0或1 )
    2afa:	717647b7          	lui	a5,0x71764
    2afe:	12978793          	addi	a5,a5,297 # 71764129 <_eusrstack+0x5175c129>
    2b02:	c43e                	sw	a5,8(sp)
E:\Project\tp78\mounriver_project\RF_CH582M\obj/../APP/RF_PHY.c:196
    rfConfig.CRCInit = 0x555555;
    2b04:	005557b7          	lui	a5,0x555
    2b08:	55578793          	addi	a5,a5,1365 # 555555 <_data_lma+0x54dc69>
    2b0c:	c63e                	sw	a5,12(sp)
E:\Project\tp78\mounriver_project\RF_CH582M\obj/../APP/RF_PHY.c:198
    rfConfig.Channel = 8;
    rfConfig.Frequency = 2480000;
    2b0e:	0025d7b7          	lui	a5,0x25d
    2b12:	78078793          	addi	a5,a5,1920 # 25d780 <_data_lma+0x255e94>
    2b16:	c23e                	sw	a5,4(sp)
E:\Project\tp78\mounriver_project\RF_CH582M\obj/../APP/RF_PHY.c:199
    rfConfig.LLEMode = LLE_MODE_BASIC | LLE_MODE_EX_CHANNEL; // 使能 LLE_MODE_EX_CHANNEL 表示 选择 rfConfig.Frequency 作为通信频点
    2b18:	6785                	lui	a5,0x1
    2b1a:	84078793          	addi	a5,a5,-1984 # 840 <_einit+0x83c>
    2b1e:	00f11023          	sh	a5,0(sp)
E:\Project\tp78\mounriver_project\RF_CH582M\obj/../APP/RF_PHY.c:200
    rfConfig.rfStatusCB = RF_2G4StatusCallBack;
    2b22:	00000797          	auipc	a5,0x0
    2b26:	d6678793          	addi	a5,a5,-666 # 2888 <RF_2G4StatusCallBack>
    2b2a:	c83e                	sw	a5,16(sp)
E:\Project\tp78\mounriver_project\RF_CH582M\obj/../APP/RF_PHY.c:202
    rfConfig.RxMaxlen = 251;
    state = RF_Config(&rfConfig);
    2b2c:	850a                	mv	a0,sp
E:\Project\tp78\mounriver_project\RF_CH582M\obj/../APP/RF_PHY.c:201
    rfConfig.RxMaxlen = 251;
    2b2e:	57ed                	li	a5,-5
    2b30:	00f10e23          	sb	a5,28(sp)
E:\Project\tp78\mounriver_project\RF_CH582M\obj/../APP/RF_PHY.c:202
    state = RF_Config(&rfConfig);
    2b34:	5f2010ef          	jal	ra,4126 <RF_Config>
E:\Project\tp78\mounriver_project\RF_CH582M\obj/../APP/RF_PHY.c:203
    PRINT("rf 2.4g init: %x\n", state);
    2b38:	85aa                	mv	a1,a0
    2b3a:	00005517          	auipc	a0,0x5
    2b3e:	cca50513          	addi	a0,a0,-822 # 7804 <VolumeRepDesc+0x94>
    2b42:	740030ef          	jal	ra,6282 <iprintf>
E:\Project\tp78\mounriver_project\RF_CH582M\obj/../APP/RF_PHY.c:205
    { // RX mode
        state = RF_Rx(TX_DATA, 2, 0xFF, 0xFF);
    2b46:	0ff00693          	li	a3,255
    2b4a:	0ff00613          	li	a2,255
    2b4e:	4589                	li	a1,2
    2b50:	80818513          	addi	a0,gp,-2040 # 20001740 <TX_DATA>
    2b54:	1b7010ef          	jal	ra,450a <RF_Rx>
E:\Project\tp78\mounriver_project\RF_CH582M\obj/../APP/RF_PHY.c:206
        PRINT("RX mode.state = %x\n", state);
    2b58:	85aa                	mv	a1,a0
    2b5a:	00005517          	auipc	a0,0x5
    2b5e:	cbe50513          	addi	a0,a0,-834 # 7818 <VolumeRepDesc+0xa8>
    2b62:	720030ef          	jal	ra,6282 <iprintf>
E:\Project\tp78\mounriver_project\RF_CH582M\obj/../APP/RF_PHY.c:212
    }

    //	{ // TX mode
    //		tmos_set_event( RFtaskID , SBP_RF_PERIODIC_EVT );
    //	}
}
    2b66:	50b2                	lw	ra,44(sp)
    2b68:	6145                	addi	sp,sp,48
    2b6a:	8082                	ret

00002b6c <main>:
main():
E:\Project\tp78\mounriver_project\RF_CH582M\obj/../APP/RF_main.c:54
 * @brief   主函数
 *
 * @return  none
 */
int main(void)
{
    2b6c:	1141                	addi	sp,sp,-16
E:\Project\tp78\mounriver_project\RF_CH582M\obj/../APP/RF_main.c:58
#if(defined(DCDC_ENABLE)) && (DCDC_ENABLE == TRUE)
    PWR_DCDCCfg(ENABLE);
#endif
    SetSysClock(CLK_SOURCE_PLL_60MHz);
    2b6e:	04800513          	li	a0,72
E:\Project\tp78\mounriver_project\RF_CH582M\obj/../APP/RF_main.c:54
{
    2b72:	c606                	sw	ra,12(sp)
E:\Project\tp78\mounriver_project\RF_CH582M\obj/../APP/RF_main.c:58
    SetSysClock(CLK_SOURCE_PLL_60MHz);
    2b74:	1fffd097          	auipc	ra,0x1fffd
    2b78:	552080e7          	jalr	1362(ra) # 200000c6 <SetSysClock>
E:\Project\tp78\mounriver_project\RF_CH582M\obj/../APP/RF_main.c:64
#if(defined(HAL_SLEEP)) && (HAL_SLEEP == TRUE)
    GPIOA_ModeCfg(GPIO_Pin_All, GPIO_ModeIN_PU);
    GPIOB_ModeCfg(GPIO_Pin_All, GPIO_ModeIN_PU);
#endif
#ifdef DEBUG
    GPIOA_SetBits(bTXD1);
    2b7c:	40001737          	lui	a4,0x40001
    2b80:	0a872783          	lw	a5,168(a4) # 400010a8 <_eusrstack+0x1fff90a8>
E:\Project\tp78\mounriver_project\RF_CH582M\obj/../APP/RF_main.c:65
    GPIOA_ModeCfg(bTXD1, GPIO_ModeOut_PP_5mA);
    2b84:	458d                	li	a1,3
    2b86:	20000513          	li	a0,512
E:\Project\tp78\mounriver_project\RF_CH582M\obj/../APP/RF_main.c:64
    GPIOA_SetBits(bTXD1);
    2b8a:	2007e793          	ori	a5,a5,512
    2b8e:	0af72423          	sw	a5,168(a4)
E:\Project\tp78\mounriver_project\RF_CH582M\obj/../APP/RF_main.c:65
    GPIOA_ModeCfg(bTXD1, GPIO_ModeOut_PP_5mA);
    2b92:	8f8ff0ef          	jal	ra,1c8a <GPIOA_ModeCfg>
E:\Project\tp78\mounriver_project\RF_CH582M\obj/../APP/RF_main.c:66
    UART1_DefInit();
    2b96:	a3eff0ef          	jal	ra,1dd4 <UART1_DefInit>
E:\Project\tp78\mounriver_project\RF_CH582M\obj/../APP/RF_main.c:68
#endif
    PRINT("start.\n");
    2b9a:	00005517          	auipc	a0,0x5
    2b9e:	c9250513          	addi	a0,a0,-878 # 782c <VolumeRepDesc+0xbc>
    2ba2:	025030ef          	jal	ra,63c6 <puts>
E:\Project\tp78\mounriver_project\RF_CH582M\obj/../APP/RF_main.c:69
    PRINT("%s\n", VER_LIB);
    2ba6:	00005517          	auipc	a0,0x5
    2baa:	c8e50513          	addi	a0,a0,-882 # 7834 <VER_LIB>
    2bae:	019030ef          	jal	ra,63c6 <puts>
E:\Project\tp78\mounriver_project\RF_CH582M\obj/../APP/RF_main.c:70
    CH58X_BLEInit();
    2bb2:	c78ff0ef          	jal	ra,202a <CH58X_BLEInit>
E:\Project\tp78\mounriver_project\RF_CH582M\obj/../APP/RF_main.c:71
    HAL_Init();
    2bb6:	da2ff0ef          	jal	ra,2158 <HAL_Init>
E:\Project\tp78\mounriver_project\RF_CH582M\obj/../APP/RF_main.c:72
    RF_RoleInit();
    2bba:	428020ef          	jal	ra,4fe2 <RF_RoleInit>
E:\Project\tp78\mounriver_project\RF_CH582M\obj/../APP/RF_main.c:73
    RF_Init();
    2bbe:	3f29                	jal	2ad8 <RF_Init>
E:\Project\tp78\mounriver_project\RF_CH582M\obj/../APP/RF_main.c:74
    HAL_USBInit();  //这里必须先初始化RF后初始化USB
    2bc0:	ef6ff0ef          	jal	ra,22b6 <HAL_USBInit>
E:\Project\tp78\mounriver_project\RF_CH582M\obj/../APP/RF_main.c:75
    Main_Circulation();
    2bc4:	1fffd097          	auipc	ra,0x1fffd
    2bc8:	740080e7          	jalr	1856(ra) # 20000304 <Main_Circulation>

00002bcc <tmos_msg_deallocate>:
tmos_msg_deallocate():
    2bcc:	c11d                	beqz	a0,2bf2 <tmos_msg_deallocate+0x26>
    2bce:	ffe54683          	lbu	a3,-2(a0)
    2bd2:	0ff00713          	li	a4,255
    2bd6:	4791                	li	a5,4
    2bd8:	00e69e63          	bne	a3,a4,2bf4 <tmos_msg_deallocate+0x28>
    2bdc:	1141                	addi	sp,sp,-16
    2bde:	c606                	sw	ra,12(sp)
    2be0:	1ffff097          	auipc	ra,0x1ffff
    2be4:	a0a080e7          	jalr	-1526(ra) # 200015ea <tmos_memory_free>
    2be8:	40b2                	lw	ra,12(sp)
    2bea:	4781                	li	a5,0
    2bec:	853e                	mv	a0,a5
    2bee:	0141                	addi	sp,sp,16
    2bf0:	8082                	ret
    2bf2:	4795                	li	a5,5
    2bf4:	853e                	mv	a0,a5
    2bf6:	8082                	ret

00002bf8 <tmos_msg_receive>:
tmos_msg_receive():
    2bf8:	20000717          	auipc	a4,0x20000
    2bfc:	5d870713          	addi	a4,a4,1496 # 200031d0 <msg_qHead>
    2c00:	431c                	lw	a5,0(a4)
    2c02:	1141                	addi	sp,sp,-16
    2c04:	c422                	sw	s0,8(sp)
    2c06:	c226                	sw	s1,4(sp)
    2c08:	c04a                	sw	s2,0(sp)
    2c0a:	c606                	sw	ra,12(sp)
    2c0c:	4401                	li	s0,0
    2c0e:	4901                	li	s2,0
    2c10:	84ba                	mv	s1,a4
    2c12:	e789                	bnez	a5,2c1c <tmos_msg_receive+0x24>
    2c14:	65a1                	lui	a1,0x8
    2c16:	2ee5                	jal	300e <tmos_stop_task>
    2c18:	c41d                	beqz	s0,2c46 <tmos_msg_receive+0x4e>
    2c1a:	a801                	j	2c2a <tmos_msg_receive+0x32>
    2c1c:	ffe7c703          	lbu	a4,-2(a5)
    2c20:	02a71a63          	bne	a4,a0,2c54 <tmos_msg_receive+0x5c>
    2c24:	cc0d                	beqz	s0,2c5e <tmos_msg_receive+0x66>
    2c26:	65a1                	lui	a1,0x8
    2c28:	245d                	jal	2ece <tmos_set_event>
    2c2a:	4098                	lw	a4,0(s1)
    2c2c:	ff842783          	lw	a5,-8(s0)
    2c30:	02e41963          	bne	s0,a4,2c62 <tmos_msg_receive+0x6a>
    2c34:	20000717          	auipc	a4,0x20000
    2c38:	58f72e23          	sw	a5,1436(a4) # 200031d0 <msg_qHead>
    2c3c:	57fd                	li	a5,-1
    2c3e:	fe042c23          	sw	zero,-8(s0)
    2c42:	fef40f23          	sb	a5,-2(s0)
    2c46:	8522                	mv	a0,s0
    2c48:	40b2                	lw	ra,12(sp)
    2c4a:	4422                	lw	s0,8(sp)
    2c4c:	4492                	lw	s1,4(sp)
    2c4e:	4902                	lw	s2,0(sp)
    2c50:	0141                	addi	sp,sp,16
    2c52:	8082                	ret
    2c54:	e011                	bnez	s0,2c58 <tmos_msg_receive+0x60>
    2c56:	893e                	mv	s2,a5
    2c58:	ff87a783          	lw	a5,-8(a5)
    2c5c:	bf5d                	j	2c12 <tmos_msg_receive+0x1a>
    2c5e:	843e                	mv	s0,a5
    2c60:	bfe5                	j	2c58 <tmos_msg_receive+0x60>
    2c62:	fef92c23          	sw	a5,-8(s2)
    2c66:	bfd9                	j	2c3c <tmos_msg_receive+0x44>

00002c68 <tmos_msg_init>:
tmos_msg_init():
    2c68:	20000797          	auipc	a5,0x20000
    2c6c:	5607a423          	sw	zero,1384(a5) # 200031d0 <msg_qHead>
    2c70:	8082                	ret

00002c72 <tmosFindTask>:
tmosFindTask():
    2c72:	20000797          	auipc	a5,0x20000
    2c76:	5b678793          	addi	a5,a5,1462 # 20003228 <taskHead>
    2c7a:	439c                	lw	a5,0(a5)
    2c7c:	e399                	bnez	a5,2c82 <tmosFindTask+0x10>
    2c7e:	853e                	mv	a0,a5
    2c80:	8082                	ret
    2c82:	0027d703          	lhu	a4,2(a5)
    2c86:	00b71663          	bne	a4,a1,2c92 <tmosFindTask+0x20>
    2c8a:	0007c703          	lbu	a4,0(a5)
    2c8e:	fea708e3          	beq	a4,a0,2c7e <tmosFindTask+0xc>
    2c92:	47dc                	lw	a5,12(a5)
    2c94:	b7e5                	j	2c7c <tmosFindTask+0xa>

00002c96 <TMOS_CB_PeriodicProcessEvent>:
TMOS_CB_PeriodicProcessEvent():
    2c96:	c1c9                	beqz	a1,2d18 <TMOS_CB_PeriodicProcessEvent+0x82>
    2c98:	7179                	addi	sp,sp,-48
    2c9a:	d422                	sw	s0,40(sp)
    2c9c:	d606                	sw	ra,44(sp)
    2c9e:	d226                	sw	s1,36(sp)
    2ca0:	d04a                	sw	s2,32(sp)
    2ca2:	ce4e                	sw	s3,28(sp)
    2ca4:	4401                	li	s0,0
    2ca6:	4741                	li	a4,16
    2ca8:	4085d7b3          	sra	a5,a1,s0
    2cac:	8b85                	andi	a5,a5,1
    2cae:	c3a5                	beqz	a5,2d0e <TMOS_CB_PeriodicProcessEvent+0x78>
    2cb0:	0512                	slli	a0,a0,0x4
    2cb2:	4731                	li	a4,12
    2cb4:	9522                	add	a0,a0,s0
    2cb6:	02e50533          	mul	a0,a0,a4
    2cba:	20000797          	auipc	a5,0x20000
    2cbe:	5ae78793          	addi	a5,a5,1454 # 20003268 <cbTimersHead>
    2cc2:	0007a903          	lw	s2,0(a5)
    2cc6:	4485                	li	s1,1
    2cc8:	008494b3          	sll	s1,s1,s0
    2ccc:	04c2                	slli	s1,s1,0x10
    2cce:	80c1                	srli	s1,s1,0x10
    2cd0:	89be                	mv	s3,a5
    2cd2:	992a                	add	s2,s2,a0
    2cd4:	00092703          	lw	a4,0(s2)
    2cd8:	c711                	beqz	a4,2ce4 <TMOS_CB_PeriodicProcessEvent+0x4e>
    2cda:	00492503          	lw	a0,4(s2)
    2cde:	c62e                	sw	a1,12(sp)
    2ce0:	9702                	jalr	a4
    2ce2:	45b2                	lw	a1,12(sp)
    2ce4:	4731                	li	a4,12
    2ce6:	02e40433          	mul	s0,s0,a4
    2cea:	0009a783          	lw	a5,0(s3)
    2cee:	943e                	add	s0,s0,a5
    2cf0:	441c                	lw	a5,8(s0)
    2cf2:	e789                	bnez	a5,2cfc <TMOS_CB_PeriodicProcessEvent+0x66>
    2cf4:	00092023          	sw	zero,0(s2)
    2cf8:	00092223          	sw	zero,4(s2)
    2cfc:	50b2                	lw	ra,44(sp)
    2cfe:	5422                	lw	s0,40(sp)
    2d00:	8da5                	xor	a1,a1,s1
    2d02:	5902                	lw	s2,32(sp)
    2d04:	5492                	lw	s1,36(sp)
    2d06:	49f2                	lw	s3,28(sp)
    2d08:	852e                	mv	a0,a1
    2d0a:	6145                	addi	sp,sp,48
    2d0c:	8082                	ret
    2d0e:	0405                	addi	s0,s0,1
    2d10:	f8e41ce3          	bne	s0,a4,2ca8 <TMOS_CB_PeriodicProcessEvent+0x12>
    2d14:	4481                	li	s1,0
    2d16:	b7dd                	j	2cfc <TMOS_CB_PeriodicProcessEvent+0x66>
    2d18:	852e                	mv	a0,a1
    2d1a:	8082                	ret

00002d1c <TMOS_CB_ProcessEvent>:
TMOS_CB_ProcessEvent():
    2d1c:	1141                	addi	sp,sp,-16
    2d1e:	01059713          	slli	a4,a1,0x10
    2d22:	c422                	sw	s0,8(sp)
    2d24:	c606                	sw	ra,12(sp)
    2d26:	c226                	sw	s1,4(sp)
    2d28:	c04a                	sw	s2,0(sp)
    2d2a:	8741                	srai	a4,a4,0x10
    2d2c:	842e                	mv	s0,a1
    2d2e:	00075e63          	bgez	a4,2d4a <TMOS_CB_ProcessEvent+0x2e>
    2d32:	35d9                	jal	2bf8 <tmos_msg_receive>
    2d34:	c111                	beqz	a0,2d38 <TMOS_CB_ProcessEvent+0x1c>
    2d36:	3d59                	jal	2bcc <tmos_msg_deallocate>
    2d38:	67a1                	lui	a5,0x8
    2d3a:	8c3d                	xor	s0,s0,a5
    2d3c:	8522                	mv	a0,s0
    2d3e:	40b2                	lw	ra,12(sp)
    2d40:	4422                	lw	s0,8(sp)
    2d42:	4492                	lw	s1,4(sp)
    2d44:	4902                	lw	s2,0(sp)
    2d46:	0141                	addi	sp,sp,16
    2d48:	8082                	ret
    2d4a:	d9ed                	beqz	a1,2d3c <TMOS_CB_ProcessEvent+0x20>
    2d4c:	87aa                	mv	a5,a0
    2d4e:	4701                	li	a4,0
    2d50:	4641                	li	a2,16
    2d52:	40e456b3          	sra	a3,s0,a4
    2d56:	8a85                	andi	a3,a3,1
    2d58:	ce8d                	beqz	a3,2d92 <TMOS_CB_ProcessEvent+0x76>
    2d5a:	0792                	slli	a5,a5,0x4
    2d5c:	97ba                	add	a5,a5,a4
    2d5e:	46b1                	li	a3,12
    2d60:	02d787b3          	mul	a5,a5,a3
    2d64:	20000697          	auipc	a3,0x20000
    2d68:	50468693          	addi	a3,a3,1284 # 20003268 <cbTimersHead>
    2d6c:	0006a903          	lw	s2,0(a3)
    2d70:	4485                	li	s1,1
    2d72:	00e494b3          	sll	s1,s1,a4
    2d76:	04c2                	slli	s1,s1,0x10
    2d78:	80c1                	srli	s1,s1,0x10
    2d7a:	993e                	add	s2,s2,a5
    2d7c:	00092783          	lw	a5,0(s2)
    2d80:	00492503          	lw	a0,4(s2)
    2d84:	9782                	jalr	a5
    2d86:	00092023          	sw	zero,0(s2)
    2d8a:	00092223          	sw	zero,4(s2)
    2d8e:	8c25                	xor	s0,s0,s1
    2d90:	b775                	j	2d3c <TMOS_CB_ProcessEvent+0x20>
    2d92:	0705                	addi	a4,a4,1
    2d94:	fac71fe3          	bne	a4,a2,2d52 <TMOS_CB_ProcessEvent+0x36>
    2d98:	4481                	li	s1,0
    2d9a:	bfd5                	j	2d8e <TMOS_CB_ProcessEvent+0x72>

00002d9c <tmos_proces_sleep>:
tmos_proces_sleep():
    2d9c:	1101                	addi	sp,sp,-32
    2d9e:	0068                	addi	a0,sp,12
    2da0:	ce06                	sw	ra,28(sp)
    2da2:	cc22                	sw	s0,24(sp)
    2da4:	ca26                	sw	s1,20(sp)
    2da6:	7d2000ef          	jal	ra,3578 <LL_GetNextConnectEventTime>
    2daa:	57fd                	li	a5,-1
    2dac:	0ef50063          	beq	a0,a5,2e8c <tmos_proces_sleep+0xf0>
    2db0:	4732                	lw	a4,12(sp)
    2db2:	20000697          	auipc	a3,0x20000
    2db6:	47a68693          	addi	a3,a3,1146 # 2000322c <ble>
    2dba:	20000797          	auipc	a5,0x20000
    2dbe:	4877c783          	lbu	a5,1159(a5) # 20003241 <ble+0x15>
    2dc2:	84b6                	mv	s1,a3
    2dc4:	0ae7f963          	bgeu	a5,a4,2e76 <tmos_proces_sleep+0xda>
    2dc8:	20000417          	auipc	s0,0x20000
    2dcc:	40c40413          	addi	s0,s0,1036 # 200031d4 <gTmosPara>
    2dd0:	4818                	lw	a4,16(s0)
    2dd2:	a8c00637          	lui	a2,0xa8c00
    2dd6:	02c70e63          	beq	a4,a2,2e12 <tmos_proces_sleep+0x76>
    2dda:	20000797          	auipc	a5,0x20000
    2dde:	49678793          	addi	a5,a5,1174 # 20003270 <fnGetClockCBs>
    2de2:	439c                	lw	a5,0(a5)
    2de4:	9782                	jalr	a5
    2de6:	4732                	lw	a4,12(sp)
    2de8:	481c                	lw	a5,16(s0)
    2dea:	00f77363          	bgeu	a4,a5,2df0 <tmos_proces_sleep+0x54>
    2dee:	87ba                	mv	a5,a4
    2df0:	20000717          	auipc	a4,0x20000
    2df4:	45174703          	lbu	a4,1105(a4) # 20003241 <ble+0x15>
    2df8:	8f99                	sub	a5,a5,a4
    2dfa:	953e                	add	a0,a0,a5
    2dfc:	01648783          	lb	a5,22(s1)
    2e00:	0007ce63          	bltz	a5,2e1c <tmos_proces_sleep+0x80>
    2e04:	a8c007b7          	lui	a5,0xa8c00
    2e08:	00f56a63          	bltu	a0,a5,2e1c <tmos_proces_sleep+0x80>
    2e0c:	574007b7          	lui	a5,0x57400
    2e10:	a8a5                	j	2e88 <tmos_proces_sleep+0xec>
    2e12:	01668683          	lb	a3,22(a3)
    2e16:	0606d563          	bgez	a3,2e80 <tmos_proces_sleep+0xe4>
    2e1a:	8d1d                	sub	a0,a0,a5
    2e1c:	20000417          	auipc	s0,0x20000
    2e20:	46440413          	addi	s0,s0,1124 # 20003280 <gBleIPPara>
    2e24:	4c1c                	lw	a5,24(s0)
    2e26:	cf81                	beqz	a5,2e3e <tmos_proces_sleep+0xa2>
    2e28:	20000797          	auipc	a5,0x20000
    2e2c:	4b878793          	addi	a5,a5,1208 # 200032e0 <gptrRFENDReg>
    2e30:	4394                	lw	a3,0(a5)
    2e32:	ffcd0737          	lui	a4,0xffcd0
    2e36:	177d                	addi	a4,a4,-1
    2e38:	469c                	lw	a5,8(a3)
    2e3a:	8ff9                	and	a5,a5,a4
    2e3c:	c69c                	sw	a5,8(a3)
    2e3e:	e119                	bnez	a0,2e44 <tmos_proces_sleep+0xa8>
    2e40:	a8c00537          	lui	a0,0xa8c00
    2e44:	20000797          	auipc	a5,0x20000
    2e48:	3e878793          	addi	a5,a5,1000 # 2000322c <ble>
    2e4c:	53dc                	lw	a5,36(a5)
    2e4e:	9782                	jalr	a5
    2e50:	e519                	bnez	a0,2e5e <tmos_proces_sleep+0xc2>
    2e52:	4c1c                	lw	a5,24(s0)
    2e54:	c38d                	beqz	a5,2e76 <tmos_proces_sleep+0xda>
    2e56:	78b000ef          	jal	ra,3de0 <LLE_DevInit>
    2e5a:	20d000ef          	jal	ra,3866 <BB_DevInit>
    2e5e:	4c1c                	lw	a5,24(s0)
    2e60:	cb99                	beqz	a5,2e76 <tmos_proces_sleep+0xda>
    2e62:	20000797          	auipc	a5,0x20000
    2e66:	47e78793          	addi	a5,a5,1150 # 200032e0 <gptrRFENDReg>
    2e6a:	4398                	lw	a4,0(a5)
    2e6c:	003306b7          	lui	a3,0x330
    2e70:	471c                	lw	a5,8(a4)
    2e72:	8fd5                	or	a5,a5,a3
    2e74:	c71c                	sw	a5,8(a4)
    2e76:	40f2                	lw	ra,28(sp)
    2e78:	4462                	lw	s0,24(sp)
    2e7a:	44d2                	lw	s1,20(sp)
    2e7c:	6105                	addi	sp,sp,32
    2e7e:	8082                	ret
    2e80:	f8f57de3          	bgeu	a0,a5,2e1a <tmos_proces_sleep+0x7e>
    2e84:	40f707b3          	sub	a5,a4,a5
    2e88:	953e                	add	a0,a0,a5
    2e8a:	bf49                	j	2e1c <tmos_proces_sleep+0x80>
    2e8c:	20000497          	auipc	s1,0x20000
    2e90:	34848493          	addi	s1,s1,840 # 200031d4 <gTmosPara>
    2e94:	489c                	lw	a5,16(s1)
    2e96:	a8c00437          	lui	s0,0xa8c00
    2e9a:	fc878ee3          	beq	a5,s0,2e76 <tmos_proces_sleep+0xda>
    2e9e:	20000797          	auipc	a5,0x20000
    2ea2:	3d278793          	addi	a5,a5,978 # 20003270 <fnGetClockCBs>
    2ea6:	439c                	lw	a5,0(a5)
    2ea8:	9782                	jalr	a5
    2eaa:	489c                	lw	a5,16(s1)
    2eac:	20000717          	auipc	a4,0x20000
    2eb0:	39574703          	lbu	a4,917(a4) # 20003241 <ble+0x15>
    2eb4:	8f99                	sub	a5,a5,a4
    2eb6:	953e                	add	a0,a0,a5
    2eb8:	20000797          	auipc	a5,0x20000
    2ebc:	37478793          	addi	a5,a5,884 # 2000322c <ble>
    2ec0:	01678783          	lb	a5,22(a5)
    2ec4:	f407cce3          	bltz	a5,2e1c <tmos_proces_sleep+0x80>
    2ec8:	f4856ae3          	bltu	a0,s0,2e1c <tmos_proces_sleep+0x80>
    2ecc:	b781                	j	2e0c <tmos_proces_sleep+0x70>

00002ece <tmos_set_event>:
tmos_set_event():
    2ece:	20000797          	auipc	a5,0x20000
    2ed2:	3077c783          	lbu	a5,775(a5) # 200031d5 <gTmosPara+0x1>
    2ed6:	02f57163          	bgeu	a0,a5,2ef8 <tmos_set_event+0x2a>
    2eda:	20000717          	auipc	a4,0x20000
    2ede:	34a70713          	addi	a4,a4,842 # 20003224 <EventsArr>
    2ee2:	00151793          	slli	a5,a0,0x1
    2ee6:	4308                	lw	a0,0(a4)
    2ee8:	953e                	add	a0,a0,a5
    2eea:	00055783          	lhu	a5,0(a0) # a8c00000 <_eusrstack+0x88bf8000>
    2eee:	8ddd                	or	a1,a1,a5
    2ef0:	00b51023          	sh	a1,0(a0)
    2ef4:	4501                	li	a0,0
    2ef6:	8082                	ret
    2ef8:	450d                	li	a0,3
    2efa:	8082                	ret

00002efc <tmos_clear_event>:
tmos_clear_event():
    2efc:	20000797          	auipc	a5,0x20000
    2f00:	2d97c783          	lbu	a5,729(a5) # 200031d5 <gTmosPara+0x1>
    2f04:	02f57363          	bgeu	a0,a5,2f2a <tmos_clear_event+0x2e>
    2f08:	20000717          	auipc	a4,0x20000
    2f0c:	31c70713          	addi	a4,a4,796 # 20003224 <EventsArr>
    2f10:	00151793          	slli	a5,a0,0x1
    2f14:	4308                	lw	a0,0(a4)
    2f16:	fff5c593          	not	a1,a1
    2f1a:	953e                	add	a0,a0,a5
    2f1c:	00055783          	lhu	a5,0(a0)
    2f20:	8dfd                	and	a1,a1,a5
    2f22:	00b51023          	sh	a1,0(a0)
    2f26:	4501                	li	a0,0
    2f28:	8082                	ret
    2f2a:	450d                	li	a0,3
    2f2c:	8082                	ret

00002f2e <tmos_start_task>:
tmos_start_task():
    2f2e:	20000797          	auipc	a5,0x20000
    2f32:	2a77c783          	lbu	a5,679(a5) # 200031d5 <gTmosPara+0x1>
    2f36:	00f56463          	bltu	a0,a5,2f3e <tmos_start_task+0x10>
    2f3a:	4501                	li	a0,0
    2f3c:	8082                	ret
    2f3e:	20000797          	auipc	a5,0x20000
    2f42:	33278793          	addi	a5,a5,818 # 20003270 <fnGetClockCBs>
    2f46:	439c                	lw	a5,0(a5)
    2f48:	dbed                	beqz	a5,2f3a <tmos_start_task+0xc>
    2f4a:	1101                	addi	sp,sp,-32
    2f4c:	cc22                	sw	s0,24(sp)
    2f4e:	ca26                	sw	s1,20(sp)
    2f50:	c84a                	sw	s2,16(sp)
    2f52:	c64e                	sw	s3,12(sp)
    2f54:	ce06                	sw	ra,28(sp)
    2f56:	89b2                	mv	s3,a2
    2f58:	892e                	mv	s2,a1
    2f5a:	84aa                	mv	s1,a0
    2f5c:	9782                	jalr	a5
    2f5e:	20000417          	auipc	s0,0x20000
    2f62:	29e45403          	lhu	s0,670(s0) # 200031fc <gTmosPara+0x28>
    2f66:	03340433          	mul	s0,s0,s3
    2f6a:	64000793          	li	a5,1600
    2f6e:	32040413          	addi	s0,s0,800
    2f72:	02f45433          	divu	s0,s0,a5
    2f76:	20000797          	auipc	a5,0x20000
    2f7a:	2b678793          	addi	a5,a5,694 # 2000322c <ble>
    2f7e:	01678703          	lb	a4,22(a5)
    2f82:	89be                	mv	s3,a5
    2f84:	942a                	add	s0,s0,a0
    2f86:	00074963          	bltz	a4,2f98 <tmos_start_task+0x6a>
    2f8a:	a8c007b7          	lui	a5,0xa8c00
    2f8e:	00f46563          	bltu	s0,a5,2f98 <tmos_start_task+0x6a>
    2f92:	574007b7          	lui	a5,0x57400
    2f96:	943e                	add	s0,s0,a5
    2f98:	85ca                	mv	a1,s2
    2f9a:	8526                	mv	a0,s1
    2f9c:	39d9                	jal	2c72 <tmosFindTask>
    2f9e:	c501                	beqz	a0,2fa6 <tmos_start_task+0x78>
    2fa0:	c500                	sw	s0,8(a0)
    2fa2:	4505                	li	a0,1
    2fa4:	a015                	j	2fc8 <tmos_start_task+0x9a>
    2fa6:	f004e593          	ori	a1,s1,-256
    2faa:	05c2                	slli	a1,a1,0x10
    2fac:	81c1                	srli	a1,a1,0x10
    2fae:	4541                	li	a0,16
    2fb0:	1fffe097          	auipc	ra,0x1fffe
    2fb4:	568080e7          	jalr	1384(ra) # 20001518 <tmos_memory_allocate>
    2fb8:	ed19                	bnez	a0,2fd6 <tmos_start_task+0xa8>
    2fba:	0309a783          	lw	a5,48(s3)
    2fbe:	c781                	beqz	a5,2fc6 <tmos_start_task+0x98>
    2fc0:	85a6                	mv	a1,s1
    2fc2:	4511                	li	a0,4
    2fc4:	9782                	jalr	a5
    2fc6:	4501                	li	a0,0
    2fc8:	40f2                	lw	ra,28(sp)
    2fca:	4462                	lw	s0,24(sp)
    2fcc:	44d2                	lw	s1,20(sp)
    2fce:	4942                	lw	s2,16(sp)
    2fd0:	49b2                	lw	s3,12(sp)
    2fd2:	6105                	addi	sp,sp,32
    2fd4:	8082                	ret
    2fd6:	20000797          	auipc	a5,0x20000
    2fda:	25278793          	addi	a5,a5,594 # 20003228 <taskHead>
    2fde:	439c                	lw	a5,0(a5)
    2fe0:	e39d                	bnez	a5,3006 <tmos_start_task+0xd8>
    2fe2:	20000797          	auipc	a5,0x20000
    2fe6:	24a7a323          	sw	a0,582(a5) # 20003228 <taskHead>
    2fea:	4785                	li	a5,1
    2fec:	00052623          	sw	zero,12(a0)
    2ff0:	c500                	sw	s0,8(a0)
    2ff2:	01251123          	sh	s2,2(a0)
    2ff6:	00950023          	sb	s1,0(a0)
    2ffa:	00f500a3          	sb	a5,1(a0)
    2ffe:	00052223          	sw	zero,4(a0)
    3002:	b745                	j	2fa2 <tmos_start_task+0x74>
    3004:	87ba                	mv	a5,a4
    3006:	47d8                	lw	a4,12(a5)
    3008:	ff75                	bnez	a4,3004 <tmos_start_task+0xd6>
    300a:	c7c8                	sw	a0,12(a5)
    300c:	bff9                	j	2fea <tmos_start_task+0xbc>

0000300e <tmos_stop_task>:
tmos_stop_task():
    300e:	1141                	addi	sp,sp,-16
    3010:	c422                	sw	s0,8(sp)
    3012:	c226                	sw	s1,4(sp)
    3014:	c04a                	sw	s2,0(sp)
    3016:	c606                	sw	ra,12(sp)
    3018:	892a                	mv	s2,a0
    301a:	842e                	mv	s0,a1
    301c:	3999                	jal	2c72 <tmosFindTask>
    301e:	84aa                	mv	s1,a0
    3020:	c119                	beqz	a0,3026 <tmos_stop_task+0x18>
    3022:	00051123          	sh	zero,2(a0)
    3026:	85a2                	mv	a1,s0
    3028:	854a                	mv	a0,s2
    302a:	3dc9                	jal	2efc <tmos_clear_event>
    302c:	20000797          	auipc	a5,0x20000
    3030:	1a87c783          	lbu	a5,424(a5) # 200031d4 <gTmosPara>
    3034:	01279b63          	bne	a5,s2,304a <tmos_stop_task+0x3c>
    3038:	20000797          	auipc	a5,0x20000
    303c:	1e87d783          	lhu	a5,488(a5) # 20003220 <eventsClear>
    3040:	8c5d                	or	s0,s0,a5
    3042:	20000797          	auipc	a5,0x20000
    3046:	1c879f23          	sh	s0,478(a5) # 20003220 <eventsClear>
    304a:	4501                	li	a0,0
    304c:	e091                	bnez	s1,3050 <tmos_stop_task+0x42>
    304e:	4519                	li	a0,6
    3050:	40b2                	lw	ra,12(sp)
    3052:	4422                	lw	s0,8(sp)
    3054:	4492                	lw	s1,4(sp)
    3056:	4902                	lw	s2,0(sp)
    3058:	0141                	addi	sp,sp,16
    305a:	8082                	ret

0000305c <TMOS_TimerRegister>:
TMOS_TimerRegister():
    305c:	1141                	addi	sp,sp,-16
    305e:	c606                	sw	ra,12(sp)
    3060:	20000797          	auipc	a5,0x20000
    3064:	20a7a623          	sw	a0,524(a5) # 2000326c <pfnTimerCBs>
    3068:	9502                	jalr	a0
    306a:	40b2                	lw	ra,12(sp)
    306c:	20000797          	auipc	a5,0x20000
    3070:	18a7a023          	sw	a0,384(a5) # 200031ec <gTmosPara+0x18>
    3074:	4501                	li	a0,0
    3076:	0141                	addi	sp,sp,16
    3078:	8082                	ret

0000307a <TMOS_ProcessRegister>:
TMOS_ProcessRegister():
    307a:	4799                	li	a5,6
    307c:	00b7e963          	bltu	a5,a1,308e <TMOS_ProcessRegister+0x14>
    3080:	058a                	slli	a1,a1,0x2
    3082:	20000797          	auipc	a5,0x20000
    3086:	18278793          	addi	a5,a5,386 # 20003204 <pfnProcessCBs>
    308a:	95be                	add	a1,a1,a5
    308c:	c188                	sw	a0,0(a1)
    308e:	8082                	ret

00003090 <TMOS_Init>:
TMOS_Init():
    3090:	1141                	addi	sp,sp,-16
    3092:	4671                	li	a2,28
    3094:	4581                	li	a1,0
    3096:	20000517          	auipc	a0,0x20000
    309a:	16e50513          	addi	a0,a0,366 # 20003204 <pfnProcessCBs>
    309e:	c606                	sw	ra,12(sp)
    30a0:	c422                	sw	s0,8(sp)
    30a2:	c226                	sw	s1,4(sp)
    30a4:	1fffd097          	auipc	ra,0x1fffd
    30a8:	6c6080e7          	jalr	1734(ra) # 2000076a <tmos_memset>
    30ac:	02c00613          	li	a2,44
    30b0:	4581                	li	a1,0
    30b2:	20000517          	auipc	a0,0x20000
    30b6:	12250513          	addi	a0,a0,290 # 200031d4 <gTmosPara>
    30ba:	1fffd097          	auipc	ra,0x1fffd
    30be:	6b0080e7          	jalr	1712(ra) # 2000076a <tmos_memset>
    30c2:	72b020ef          	jal	ra,5fec <tmos_memory_init>
    30c6:	20000797          	auipc	a5,0x20000
    30ca:	1607a123          	sw	zero,354(a5) # 20003228 <taskHead>
    30ce:	20000797          	auipc	a5,0x20000
    30d2:	1807af23          	sw	zero,414(a5) # 2000326c <pfnTimerCBs>
    30d6:	20000797          	auipc	a5,0x20000
    30da:	16d7c783          	lbu	a5,365(a5) # 20003243 <ble+0x17>
    30de:	0027d513          	srli	a0,a5,0x2
    30e2:	8b8d                	andi	a5,a5,3
    30e4:	953e                	add	a0,a0,a5
    30e6:	478d                	li	a5,3
    30e8:	02f50533          	mul	a0,a0,a5
    30ec:	20000417          	auipc	s0,0x20000
    30f0:	0e840413          	addi	s0,s0,232 # 200031d4 <gTmosPara>
    30f4:	4799                	li	a5,6
    30f6:	4585                	li	a1,1
    30f8:	20000497          	auipc	s1,0x20000
    30fc:	10848493          	addi	s1,s1,264 # 20003200 <tasksArr>
    3100:	0539                	addi	a0,a0,14
    3102:	0ff57513          	andi	a0,a0,255
    3106:	00a40123          	sb	a0,2(s0)
    310a:	02f50533          	mul	a0,a0,a5
    310e:	24050513          	addi	a0,a0,576
    3112:	1fffe097          	auipc	ra,0x1fffe
    3116:	406080e7          	jalr	1030(ra) # 20001518 <tmos_memory_allocate>
    311a:	20000797          	auipc	a5,0x20000
    311e:	14a7a723          	sw	a0,334(a5) # 20003268 <cbTimersHead>
    3122:	00244783          	lbu	a5,2(s0)
    3126:	24050513          	addi	a0,a0,576
    312a:	c088                	sw	a0,0(s1)
    312c:	078a                	slli	a5,a5,0x2
    312e:	953e                	add	a0,a0,a5
    3130:	20000797          	auipc	a5,0x20000
    3134:	0ea7aa23          	sw	a0,244(a5) # 20003224 <EventsArr>
    3138:	3e05                	jal	2c68 <tmos_msg_init>
    313a:	2ebd                	jal	34b8 <tmos_snv_init>
    313c:	00144783          	lbu	a5,1(s0)
    3140:	4094                	lw	a3,0(s1)
    3142:	00000617          	auipc	a2,0x0
    3146:	b5460613          	addi	a2,a2,-1196 # 2c96 <TMOS_CB_PeriodicProcessEvent>
    314a:	00279713          	slli	a4,a5,0x2
    314e:	9736                	add	a4,a4,a3
    3150:	c310                	sw	a2,0(a4)
    3152:	00178713          	addi	a4,a5,1
    3156:	0ff77713          	andi	a4,a4,255
    315a:	070a                	slli	a4,a4,0x2
    315c:	9736                	add	a4,a4,a3
    315e:	00000617          	auipc	a2,0x0
    3162:	bbe60613          	addi	a2,a2,-1090 # 2d1c <TMOS_CB_ProcessEvent>
    3166:	c310                	sw	a2,0(a4)
    3168:	00378713          	addi	a4,a5,3
    316c:	0789                	addi	a5,a5,2
    316e:	0ff7f793          	andi	a5,a5,255
    3172:	00e400a3          	sb	a4,1(s0)
    3176:	40b2                	lw	ra,12(sp)
    3178:	4422                	lw	s0,8(sp)
    317a:	078a                	slli	a5,a5,0x2
    317c:	97b6                	add	a5,a5,a3
    317e:	c390                	sw	a2,0(a5)
    3180:	4492                	lw	s1,4(sp)
    3182:	0141                	addi	sp,sp,16
    3184:	8082                	ret

00003186 <TMOS_ProcessEventRegister>:
TMOS_ProcessEventRegister():
    3186:	20000797          	auipc	a5,0x20000
    318a:	04f7c783          	lbu	a5,79(a5) # 200031d5 <gTmosPara+0x1>
    318e:	20000717          	auipc	a4,0x20000
    3192:	04874703          	lbu	a4,72(a4) # 200031d6 <gTmosPara+0x2>
    3196:	02e7f363          	bgeu	a5,a4,31bc <TMOS_ProcessEventRegister+0x36>
    319a:	20000717          	auipc	a4,0x20000
    319e:	06670713          	addi	a4,a4,102 # 20003200 <tasksArr>
    31a2:	4318                	lw	a4,0(a4)
    31a4:	00178693          	addi	a3,a5,1
    31a8:	20000617          	auipc	a2,0x20000
    31ac:	02d606a3          	sb	a3,45(a2) # 200031d5 <gTmosPara+0x1>
    31b0:	00279693          	slli	a3,a5,0x2
    31b4:	9736                	add	a4,a4,a3
    31b6:	c308                	sw	a0,0(a4)
    31b8:	853e                	mv	a0,a5
    31ba:	8082                	ret
    31bc:	0ff00793          	li	a5,255
    31c0:	bfe5                	j	31b8 <TMOS_ProcessEventRegister+0x32>

000031c2 <BLE_LibInit>:
BLE_LibInit():
    31c2:	411c                	lw	a5,0(a0)
    31c4:	16078763          	beqz	a5,3332 <BLE_LibInit+0x170>
    31c8:	7741                	lui	a4,0xffff0
    31ca:	8f7d                	and	a4,a4,a5
    31cc:	200006b7          	lui	a3,0x20000
    31d0:	4789                	li	a5,2
    31d2:	16d71163          	bne	a4,a3,3334 <BLE_LibInit+0x172>
    31d6:	00455703          	lhu	a4,4(a0)
    31da:	14070d63          	beqz	a4,3334 <BLE_LibInit+0x172>
    31de:	1141                	addi	sp,sp,-16
    31e0:	c226                	sw	s1,4(sp)
    31e2:	4619                	li	a2,6
    31e4:	84aa                	mv	s1,a0
    31e6:	0ff00593          	li	a1,255
    31ea:	0569                	addi	a0,a0,26
    31ec:	c606                	sw	ra,12(sp)
    31ee:	c422                	sw	s0,8(sp)
    31f0:	1fffd097          	auipc	ra,0x1fffd
    31f4:	61c080e7          	jalr	1564(ra) # 2000080c <tmos_isbufset>
    31f8:	4705                	li	a4,1
    31fa:	478d                	li	a5,3
    31fc:	12e50563          	beq	a0,a4,3326 <BLE_LibInit+0x164>
    3200:	20000417          	auipc	s0,0x20000
    3204:	02c40413          	addi	s0,s0,44 # 2000322c <ble>
    3208:	441c                	lw	a5,8(s0)
    320a:	cb81                	beqz	a5,321a <BLE_LibInit+0x58>
    320c:	5858                	lw	a4,52(s0)
    320e:	4799                	li	a5,6
    3210:	10071b63          	bnez	a4,3326 <BLE_LibInit+0x164>
    3214:	5c18                	lw	a4,56(s0)
    3216:	10071863          	bnez	a4,3326 <BLE_LibInit+0x164>
    321a:	03c00613          	li	a2,60
    321e:	4581                	li	a1,0
    3220:	20000517          	auipc	a0,0x20000
    3224:	00c50513          	addi	a0,a0,12 # 2000322c <ble>
    3228:	1fffd097          	auipc	ra,0x1fffd
    322c:	542080e7          	jalr	1346(ra) # 2000076a <tmos_memset>
    3230:	03c00613          	li	a2,60
    3234:	85a6                	mv	a1,s1
    3236:	20000517          	auipc	a0,0x20000
    323a:	ff650513          	addi	a0,a0,-10 # 2000322c <ble>
    323e:	1fffd097          	auipc	ra,0x1fffd
    3242:	4f4080e7          	jalr	1268(ra) # 20000732 <tmos_memcpy>
    3246:	20000797          	auipc	a5,0x20000
    324a:	ff27d783          	lhu	a5,-14(a5) # 20003238 <ble+0xc>
    324e:	e799                	bnez	a5,325c <BLE_LibInit+0x9a>
    3250:	10000793          	li	a5,256
    3254:	20000717          	auipc	a4,0x20000
    3258:	fef71223          	sh	a5,-28(a4) # 20003238 <ble+0xc>
    325c:	20000797          	auipc	a5,0x20000
    3260:	fde7c783          	lbu	a5,-34(a5) # 2000323a <ble+0xe>
    3264:	e791                	bnez	a5,3270 <BLE_LibInit+0xae>
    3266:	4785                	li	a5,1
    3268:	20000717          	auipc	a4,0x20000
    326c:	fcf70923          	sb	a5,-46(a4) # 2000323a <ble+0xe>
    3270:	20000797          	auipc	a5,0x20000
    3274:	fcc7d783          	lhu	a5,-52(a5) # 2000323c <ble+0x10>
    3278:	e791                	bnez	a5,3284 <BLE_LibInit+0xc2>
    327a:	47ed                	li	a5,27
    327c:	20000717          	auipc	a4,0x20000
    3280:	fcf71023          	sh	a5,-64(a4) # 2000323c <ble+0x10>
    3284:	20000797          	auipc	a5,0x20000
    3288:	fb77c783          	lbu	a5,-73(a5) # 2000323b <ble+0xf>
    328c:	e791                	bnez	a5,3298 <BLE_LibInit+0xd6>
    328e:	4795                	li	a5,5
    3290:	20000717          	auipc	a4,0x20000
    3294:	faf705a3          	sb	a5,-85(a4) # 2000323b <ble+0xf>
    3298:	20000797          	auipc	a5,0x20000
    329c:	fa67c783          	lbu	a5,-90(a5) # 2000323e <ble+0x12>
    32a0:	e791                	bnez	a5,32ac <BLE_LibInit+0xea>
    32a2:	4785                	li	a5,1
    32a4:	20000717          	auipc	a4,0x20000
    32a8:	f8f70d23          	sb	a5,-102(a4) # 2000323e <ble+0x12>
    32ac:	20000797          	auipc	a5,0x20000
    32b0:	f937c783          	lbu	a5,-109(a5) # 2000323f <ble+0x13>
    32b4:	e799                	bnez	a5,32c2 <BLE_LibInit+0x100>
    32b6:	00f44783          	lbu	a5,15(s0)
    32ba:	20000717          	auipc	a4,0x20000
    32be:	f8f702a3          	sb	a5,-123(a4) # 2000323f <ble+0x13>
    32c2:	20000797          	auipc	a5,0x20000
    32c6:	f7e7c783          	lbu	a5,-130(a5) # 20003240 <ble+0x14>
    32ca:	e791                	bnez	a5,32d6 <BLE_LibInit+0x114>
    32cc:	47b5                	li	a5,13
    32ce:	20000717          	auipc	a4,0x20000
    32d2:	f6f70923          	sb	a5,-142(a4) # 20003240 <ble+0x14>
    32d6:	20000797          	auipc	a5,0x20000
    32da:	f6f7c783          	lbu	a5,-145(a5) # 20003245 <ble+0x19>
    32de:	e799                	bnez	a5,32ec <BLE_LibInit+0x12a>
    32e0:	02800793          	li	a5,40
    32e4:	20000717          	auipc	a4,0x20000
    32e8:	f6f700a3          	sb	a5,-159(a4) # 20003245 <ble+0x19>
    32ec:	20000797          	auipc	a5,0x20000
    32f0:	f557c783          	lbu	a5,-171(a5) # 20003241 <ble+0x15>
    32f4:	e799                	bnez	a5,3302 <BLE_LibInit+0x140>
    32f6:	02d00793          	li	a5,45
    32fa:	20000717          	auipc	a4,0x20000
    32fe:	f4f703a3          	sb	a5,-185(a4) # 20003241 <ble+0x15>
    3302:	0184c783          	lbu	a5,24(s1)
    3306:	e799                	bnez	a5,3314 <BLE_LibInit+0x152>
    3308:	03c00793          	li	a5,60
    330c:	20000717          	auipc	a4,0x20000
    3310:	f2f70c23          	sb	a5,-200(a4) # 20003244 <ble+0x18>
    3314:	541c                	lw	a5,40(s0)
    3316:	c791                	beqz	a5,3322 <BLE_LibInit+0x160>
    3318:	9782                	jalr	a5
    331a:	20000797          	auipc	a5,0x20000
    331e:	eca79123          	sh	a0,-318(a5) # 200031dc <gTmosPara+0x8>
    3322:	33bd                	jal	3090 <TMOS_Init>
    3324:	4781                	li	a5,0
    3326:	40b2                	lw	ra,12(sp)
    3328:	4422                	lw	s0,8(sp)
    332a:	4492                	lw	s1,4(sp)
    332c:	853e                	mv	a0,a5
    332e:	0141                	addi	sp,sp,16
    3330:	8082                	ret
    3332:	4789                	li	a5,2
    3334:	853e                	mv	a0,a5
    3336:	8082                	ret

00003338 <clockGetTickValve>:
clockGetTickValve():
    3338:	20000797          	auipc	a5,0x20000
    333c:	f3878793          	addi	a5,a5,-200 # 20003270 <fnGetClockCBs>
    3340:	439c                	lw	a5,0(a5)
    3342:	1141                	addi	sp,sp,-16
    3344:	c606                	sw	ra,12(sp)
    3346:	9782                	jalr	a5
    3348:	64000793          	li	a5,1600
    334c:	02f507b3          	mul	a5,a0,a5
    3350:	20000697          	auipc	a3,0x20000
    3354:	eac6d683          	lhu	a3,-340(a3) # 200031fc <gTmosPara+0x28>
    3358:	20000717          	auipc	a4,0x20000
    335c:	e7c70713          	addi	a4,a4,-388 # 200031d4 <gTmosPara>
    3360:	4f18                	lw	a4,24(a4)
    3362:	4501                	li	a0,0
    3364:	02d7d7b3          	divu	a5,a5,a3
    3368:	02f70063          	beq	a4,a5,3388 <clockGetTickValve+0x50>
    336c:	40e78533          	sub	a0,a5,a4
    3370:	00f76863          	bltu	a4,a5,3380 <clockGetTickValve+0x48>
    3374:	b0000537          	lui	a0,0xb0000
    3378:	02d55533          	divu	a0,a0,a3
    337c:	8d19                	sub	a0,a0,a4
    337e:	953e                	add	a0,a0,a5
    3380:	20000717          	auipc	a4,0x20000
    3384:	e6f72623          	sw	a5,-404(a4) # 200031ec <gTmosPara+0x18>
    3388:	40b2                	lw	ra,12(sp)
    338a:	0141                	addi	sp,sp,16
    338c:	8082                	ret

0000338e <TMOS_TempSample>:
TMOS_TempSample():
    338e:	20000797          	auipc	a5,0x20000
    3392:	e9e78793          	addi	a5,a5,-354 # 2000322c <ble>
    3396:	5798                	lw	a4,40(a5)
    3398:	cb39                	beqz	a4,33ee <TMOS_TempSample+0x60>
    339a:	1141                	addi	sp,sp,-16
    339c:	c422                	sw	s0,8(sp)
    339e:	c226                	sw	s1,4(sp)
    33a0:	c606                	sw	ra,12(sp)
    33a2:	84be                	mv	s1,a5
    33a4:	9702                	jalr	a4
    33a6:	20000717          	auipc	a4,0x20000
    33aa:	e3675703          	lhu	a4,-458(a4) # 200031dc <gTmosPara+0x8>
    33ae:	842a                	mv	s0,a0
    33b0:	cb15                	beqz	a4,33e4 <TMOS_TempSample+0x56>
    33b2:	87ba                	mv	a5,a4
    33b4:	00a77363          	bgeu	a4,a0,33ba <TMOS_TempSample+0x2c>
    33b8:	87aa                	mv	a5,a0
    33ba:	07c2                	slli	a5,a5,0x10
    33bc:	83c1                	srli	a5,a5,0x10
    33be:	86ba                	mv	a3,a4
    33c0:	00e47363          	bgeu	s0,a4,33c6 <TMOS_TempSample+0x38>
    33c4:	86a2                	mv	a3,s0
    33c6:	06c2                	slli	a3,a3,0x10
    33c8:	82c1                	srli	a3,a3,0x10
    33ca:	8f95                	sub	a5,a5,a3
    33cc:	4751                	li	a4,20
    33ce:	00f75b63          	bge	a4,a5,33e4 <TMOS_TempSample+0x56>
    33d2:	54dc                	lw	a5,44(s1)
    33d4:	c391                	beqz	a5,33d8 <TMOS_TempSample+0x4a>
    33d6:	9782                	jalr	a5
    33d8:	0d3000ef          	jal	ra,3caa <BLE_RegInit>
    33dc:	20000797          	auipc	a5,0x20000
    33e0:	e0879023          	sh	s0,-512(a5) # 200031dc <gTmosPara+0x8>
    33e4:	40b2                	lw	ra,12(sp)
    33e6:	4422                	lw	s0,8(sp)
    33e8:	4492                	lw	s1,4(sp)
    33ea:	0141                	addi	sp,sp,16
    33ec:	8082                	ret
    33ee:	8082                	ret

000033f0 <TMOS_TimerInit>:
TMOS_TimerInit():
    33f0:	20000797          	auipc	a5,0x20000
    33f4:	e3c78793          	addi	a5,a5,-452 # 2000322c <ble>
    33f8:	57dc                	lw	a5,44(a5)
    33fa:	1101                	addi	sp,sp,-32
    33fc:	ce06                	sw	ra,28(sp)
    33fe:	c781                	beqz	a5,3406 <TMOS_TimerInit+0x16>
    3400:	c62a                	sw	a0,12(sp)
    3402:	9782                	jalr	a5
    3404:	4532                	lw	a0,12(sp)
    3406:	c515                	beqz	a0,3432 <TMOS_TimerInit+0x42>
    3408:	003287b7          	lui	a5,0x328
    340c:	a1278793          	addi	a5,a5,-1518 # 327a12 <_data_lma+0x320126>
    3410:	20000717          	auipc	a4,0x20000
    3414:	def72623          	sw	a5,-532(a4) # 200031fc <gTmosPara+0x28>
    3418:	20000797          	auipc	a5,0x20000
    341c:	e4a7ac23          	sw	a0,-424(a5) # 20003270 <fnGetClockCBs>
    3420:	00000517          	auipc	a0,0x0
    3424:	f1850513          	addi	a0,a0,-232 # 3338 <clockGetTickValve>
    3428:	3915                	jal	305c <TMOS_TimerRegister>
    342a:	40f2                	lw	ra,28(sp)
    342c:	4501                	li	a0,0
    342e:	6105                	addi	sp,sp,32
    3430:	8082                	ret
    3432:	20000797          	auipc	a5,0x20000
    3436:	e107c783          	lbu	a5,-496(a5) # 20003242 <ble+0x16>
    343a:	01879713          	slli	a4,a5,0x18
    343e:	8761                	srai	a4,a4,0x18
    3440:	02075c63          	bgez	a4,3478 <TMOS_TimerInit+0x88>
    3444:	20000797          	auipc	a5,0x20000
    3448:	da07a623          	sw	zero,-596(a5) # 200031f0 <gTmosPara+0x1c>
    344c:	003287b7          	lui	a5,0x328
    3450:	a1278793          	addi	a5,a5,-1518 # 327a12 <_data_lma+0x320126>
    3454:	20000717          	auipc	a4,0x20000
    3458:	daf72423          	sw	a5,-600(a4) # 200031fc <gTmosPara+0x28>
    345c:	577d                	li	a4,-1
    345e:	4000c7b7          	lui	a5,0x4000c
    3462:	26e7a423          	sw	a4,616(a5) # 4000c268 <_eusrstack+0x20004268>
    3466:	1fffd797          	auipc	a5,0x1fffd
    346a:	71678793          	addi	a5,a5,1814 # 20000b7c <clockGetHSEValue>
    346e:	20000717          	auipc	a4,0x20000
    3472:	e0f72123          	sw	a5,-510(a4) # 20003270 <fnGetClockCBs>
    3476:	b76d                	j	3420 <TMOS_TimerInit+0x30>
    3478:	0017f713          	andi	a4,a5,1
    347c:	cf11                	beqz	a4,3498 <TMOS_TimerInit+0xa8>
    347e:	032087b7          	lui	a5,0x3208
    3482:	d0078793          	addi	a5,a5,-768 # 3207d00 <_data_lma+0x3200414>
    3486:	20000717          	auipc	a4,0x20000
    348a:	d6f72b23          	sw	a5,-650(a4) # 200031fc <gTmosPara+0x28>
    348e:	1fffd797          	auipc	a5,0x1fffd
    3492:	72078793          	addi	a5,a5,1824 # 20000bae <clockGetLSEValue>
    3496:	bfe1                	j	346e <TMOS_TimerInit+0x7e>
    3498:	7761                	lui	a4,0xffff8
    349a:	20000697          	auipc	a3,0x20000
    349e:	d6e69123          	sh	a4,-670(a3) # 200031fc <gTmosPara+0x28>
    34a2:	cb81                	beqz	a5,34b2 <TMOS_TimerInit+0xc2>
    34a4:	32000793          	li	a5,800
    34a8:	20000717          	auipc	a4,0x20000
    34ac:	d4f71b23          	sh	a5,-682(a4) # 200031fe <gTmosPara+0x2a>
    34b0:	bff9                	j	348e <TMOS_TimerInit+0x9e>
    34b2:	03200793          	li	a5,50
    34b6:	bfcd                	j	34a8 <TMOS_TimerInit+0xb8>

000034b8 <tmos_snv_init>:
tmos_snv_init():
    34b8:	1101                	addi	sp,sp,-32
    34ba:	cc22                	sw	s0,24(sp)
    34bc:	20000417          	auipc	s0,0x20000
    34c0:	d7040413          	addi	s0,s0,-656 # 2000322c <ble>
    34c4:	4408                	lw	a0,8(s0)
    34c6:	ce06                	sw	ra,28(sp)
    34c8:	ca26                	sw	s1,20(sp)
    34ca:	c84a                	sw	s2,16(sp)
    34cc:	e901                	bnez	a0,34dc <tmos_snv_init+0x24>
    34ce:	4505                	li	a0,1
    34d0:	40f2                	lw	ra,28(sp)
    34d2:	4462                	lw	s0,24(sp)
    34d4:	44d2                	lw	s1,20(sp)
    34d6:	4942                	lw	s2,16(sp)
    34d8:	6105                	addi	sp,sp,32
    34da:	8082                	ret
    34dc:	585c                	lw	a5,52(s0)
    34de:	dbe5                	beqz	a5,34ce <tmos_snv_init+0x16>
    34e0:	5c18                	lw	a4,56(s0)
    34e2:	d775                	beqz	a4,34ce <tmos_snv_init+0x16>
    34e4:	0070                	addi	a2,sp,12
    34e6:	4585                	li	a1,1
    34e8:	9782                	jalr	a5
    34ea:	4418                	lw	a4,8(s0)
    34ec:	47b2                	lw	a5,12(sp)
    34ee:	fef700e3          	beq	a4,a5,34ce <tmos_snv_init+0x16>
    34f2:	04e00593          	li	a1,78
    34f6:	20000517          	auipc	a0,0x20000
    34fa:	d4255503          	lhu	a0,-702(a0) # 20003238 <ble+0xc>
    34fe:	1fffe097          	auipc	ra,0x1fffe
    3502:	01a080e7          	jalr	26(ra) # 20001518 <tmos_memory_allocate>
    3506:	20000717          	auipc	a4,0x20000
    350a:	cea72723          	sw	a0,-786(a4) # 200031f4 <gTmosPara+0x20>
    350e:	d161                	beqz	a0,34ce <tmos_snv_init+0x16>
    3510:	20000617          	auipc	a2,0x20000
    3514:	d2865603          	lhu	a2,-728(a2) # 20003238 <ble+0xc>
    3518:	0ff00593          	li	a1,255
    351c:	1fffd097          	auipc	ra,0x1fffd
    3520:	24e080e7          	jalr	590(ra) # 2000076a <tmos_memset>
    3524:	4481                	li	s1,0
    3526:	20000917          	auipc	s2,0x20000
    352a:	cae90913          	addi	s2,s2,-850 # 200031d4 <gTmosPara>
    352e:	20000797          	auipc	a5,0x20000
    3532:	d0c7c783          	lbu	a5,-756(a5) # 2000323a <ble+0xe>
    3536:	02092603          	lw	a2,32(s2)
    353a:	02f4c163          	blt	s1,a5,355c <tmos_snv_init+0xa4>
    353e:	8532                	mv	a0,a2
    3540:	1fffe097          	auipc	ra,0x1fffe
    3544:	0aa080e7          	jalr	170(ra) # 200015ea <tmos_memory_free>
    3548:	4501                	li	a0,0
    354a:	20000797          	auipc	a5,0x20000
    354e:	ca07a523          	sw	zero,-854(a5) # 200031f4 <gTmosPara+0x20>
    3552:	20000797          	auipc	a5,0x20000
    3556:	ca07a323          	sw	zero,-858(a5) # 200031f8 <gTmosPara+0x24>
    355a:	bf9d                	j	34d0 <tmos_snv_init+0x18>
    355c:	20000597          	auipc	a1,0x20000
    3560:	cdc5d583          	lhu	a1,-804(a1) # 20003238 <ble+0xc>
    3564:	029587b3          	mul	a5,a1,s1
    3568:	4408                	lw	a0,8(s0)
    356a:	5c18                	lw	a4,56(s0)
    356c:	8189                	srli	a1,a1,0x2
    356e:	0485                	addi	s1,s1,1
    3570:	953e                	add	a0,a0,a5
    3572:	c208                	sw	a0,0(a2)
    3574:	9702                	jalr	a4
    3576:	bf65                	j	352e <tmos_snv_init+0x76>

00003578 <LL_GetNextConnectEventTime>:
LL_GetNextConnectEventTime():
    3578:	20000797          	auipc	a5,0x20000
    357c:	c5f7c783          	lbu	a5,-929(a5) # 200031d7 <gTmosPara+0x3>
    3580:	18078263          	beqz	a5,3704 <LL_GetNextConnectEventTime+0x18c>
    3584:	1141                	addi	sp,sp,-16
    3586:	c04a                	sw	s2,0(sp)
    3588:	c606                	sw	ra,12(sp)
    358a:	892a                	mv	s2,a0
    358c:	c422                	sw	s0,8(sp)
    358e:	c226                	sw	s1,4(sp)
    3590:	557d                	li	a0,-1
    3592:	0e090c63          	beqz	s2,368a <LL_GetNextConnectEventTime+0x112>
    3596:	20000797          	auipc	a5,0x20000
    359a:	d6278793          	addi	a5,a5,-670 # 200032f8 <gBleLlPara>
    359e:	08c7a683          	lw	a3,140(a5)
    35a2:	c6e5                	beqz	a3,368a <LL_GetNextConnectEventTime+0x112>
    35a4:	20000497          	auipc	s1,0x20000
    35a8:	c8848493          	addi	s1,s1,-888 # 2000322c <ble>
    35ac:	01648883          	lb	a7,22(s1)
    35b0:	000f4537          	lui	a0,0xf4
    35b4:	23f50f13          	addi	t5,a0,575 # f423f <_data_lma+0xec953>
    35b8:	20000317          	auipc	t1,0x20000
    35bc:	c4435303          	lhu	t1,-956(t1) # 200031fc <gTmosPara+0x28>
    35c0:	20000f97          	auipc	t6,0x20000
    35c4:	c84fcf83          	lbu	t6,-892(t6) # 20003244 <ble+0x18>
    35c8:	547d                	li	s0,-1
    35ca:	4e85                	li	t4,1
    35cc:	24050513          	addi	a0,a0,576
    35d0:	a8c00e37          	lui	t3,0xa8c00
    35d4:	429d                	li	t0,7
    35d6:	4e200393          	li	t2,1250
    35da:	574000b7          	lui	ra,0x57400
    35de:	00b6c703          	lbu	a4,11(a3)
    35e2:	0906a783          	lw	a5,144(a3)
    35e6:	07d71a63          	bne	a4,t4,365a <LL_GetNextConnectEventTime+0xe2>
    35ea:	07e6d703          	lhu	a4,126(a3)
    35ee:	03a6d603          	lhu	a2,58(a3)
    35f2:	0ac77863          	bgeu	a4,a2,36a2 <LL_GetNextConnectEventTime+0x12a>
    35f6:	0106c583          	lbu	a1,16(a3)
    35fa:	0bd59463          	bne	a1,t4,36a2 <LL_GetNextConnectEventTime+0x12a>
    35fe:	1186a583          	lw	a1,280(a3)
    3602:	e1c5                	bnez	a1,36a2 <LL_GetNextConnectEventTime+0x12a>
    3604:	0a46a583          	lw	a1,164(a3)
    3608:	edc9                	bnez	a1,36a2 <LL_GetNextConnectEventTime+0x12a>
    360a:	00f6c583          	lbu	a1,15(a3)
    360e:	08559a63          	bne	a1,t0,36a2 <LL_GetNextConnectEventTime+0x12a>
    3612:	0386d583          	lhu	a1,56(a3)
    3616:	8e19                	sub	a2,a2,a4
    3618:	0946a703          	lw	a4,148(a3)
    361c:	02c585b3          	mul	a1,a1,a2
    3620:	02654633          	div	a2,a0,t1
    3624:	027585b3          	mul	a1,a1,t2
    3628:	02e5d733          	divu	a4,a1,a4
    362c:	02c5d5b3          	divu	a1,a1,a2
    3630:	977e                	add	a4,a4,t6
    3632:	0742                	slli	a4,a4,0x10
    3634:	8341                	srli	a4,a4,0x10
    3636:	08e69223          	sh	a4,132(a3)
    363a:	00f58633          	add	a2,a1,a5
    363e:	0008c563          	bltz	a7,3648 <LL_GetNextConnectEventTime+0xd0>
    3642:	01c66363          	bltu	a2,t3,3648 <LL_GetNextConnectEventTime+0xd0>
    3646:	9606                	add	a2,a2,ra
    3648:	026707b3          	mul	a5,a4,t1
    364c:	97fa                	add	a5,a5,t5
    364e:	02a7d7b3          	divu	a5,a5,a0
    3652:	0408d263          	bgez	a7,3696 <LL_GetNextConnectEventTime+0x11e>
    3656:	40f607b3          	sub	a5,a2,a5
    365a:	0087f363          	bgeu	a5,s0,3660 <LL_GetNextConnectEventTime+0xe8>
    365e:	843e                	mv	s0,a5
    3660:	4294                	lw	a3,0(a3)
    3662:	feb5                	bnez	a3,35de <LL_GetNextConnectEventTime+0x66>
    3664:	20000797          	auipc	a5,0x20000
    3668:	c0c78793          	addi	a5,a5,-1012 # 20003270 <fnGetClockCBs>
    366c:	439c                	lw	a5,0(a5)
    366e:	9782                	jalr	a5
    3670:	04a46863          	bltu	s0,a0,36c0 <LL_GetNextConnectEventTime+0x148>
    3674:	40a407b3          	sub	a5,s0,a0
    3678:	00f92023          	sw	a5,0(s2)
    367c:	00092783          	lw	a5,0(s2)
    3680:	4729                	li	a4,10
    3682:	04f76f63          	bltu	a4,a5,36e0 <LL_GetNextConnectEventTime+0x168>
    3686:	00092023          	sw	zero,0(s2)
    368a:	40b2                	lw	ra,12(sp)
    368c:	4422                	lw	s0,8(sp)
    368e:	4492                	lw	s1,4(sp)
    3690:	4902                	lw	s2,0(sp)
    3692:	0141                	addi	sp,sp,16
    3694:	8082                	ret
    3696:	fcf670e3          	bgeu	a2,a5,3656 <LL_GetNextConnectEventTime+0xde>
    369a:	40fe07b3          	sub	a5,t3,a5
    369e:	97b2                	add	a5,a5,a2
    36a0:	bf6d                	j	365a <LL_GetNextConnectEventTime+0xe2>
    36a2:	0846d703          	lhu	a4,132(a3)
    36a6:	02670733          	mul	a4,a4,t1
    36aa:	977a                	add	a4,a4,t5
    36ac:	02a75733          	divu	a4,a4,a0
    36b0:	0008d463          	bgez	a7,36b8 <LL_GetNextConnectEventTime+0x140>
    36b4:	8f99                	sub	a5,a5,a4
    36b6:	b755                	j	365a <LL_GetNextConnectEventTime+0xe2>
    36b8:	fee7fee3          	bgeu	a5,a4,36b4 <LL_GetNextConnectEventTime+0x13c>
    36bc:	97f2                	add	a5,a5,t3
    36be:	bfdd                	j	36b4 <LL_GetNextConnectEventTime+0x13c>
    36c0:	408507b3          	sub	a5,a0,s0
    36c4:	0007db63          	bgez	a5,36da <LL_GetNextConnectEventTime+0x162>
    36c8:	01648783          	lb	a5,22(s1)
    36cc:	fa07c4e3          	bltz	a5,3674 <LL_GetNextConnectEventTime+0xfc>
    36d0:	a8c007b7          	lui	a5,0xa8c00
    36d4:	97a2                	add	a5,a5,s0
    36d6:	8f89                	sub	a5,a5,a0
    36d8:	b745                	j	3678 <LL_GetNextConnectEventTime+0x100>
    36da:	00092023          	sw	zero,0(s2)
    36de:	bf79                	j	367c <LL_GetNextConnectEventTime+0x104>
    36e0:	17d9                	addi	a5,a5,-10
    36e2:	00f92023          	sw	a5,0(s2)
    36e6:	01648783          	lb	a5,22(s1)
    36ea:	0007d563          	bgez	a5,36f4 <LL_GetNextConnectEventTime+0x17c>
    36ee:	ff640513          	addi	a0,s0,-10
    36f2:	bf61                	j	368a <LL_GetNextConnectEventTime+0x112>
    36f4:	47a5                	li	a5,9
    36f6:	fe87ece3          	bltu	a5,s0,36ee <LL_GetNextConnectEventTime+0x176>
    36fa:	a8c00537          	lui	a0,0xa8c00
    36fe:	1559                	addi	a0,a0,-10
    3700:	9522                	add	a0,a0,s0
    3702:	b761                	j	368a <LL_GetNextConnectEventTime+0x112>
    3704:	557d                	li	a0,-1
    3706:	8082                	ret

00003708 <LL_ScanSetRF>:
LL_ScanSetRF():
    3708:	1141                	addi	sp,sp,-16
    370a:	20000797          	auipc	a5,0x20000
    370e:	bee78793          	addi	a5,a5,-1042 # 200032f8 <gBleLlPara>
    3712:	c226                	sw	s1,4(sp)
    3714:	20000497          	auipc	s1,0x20000
    3718:	b8848493          	addi	s1,s1,-1144 # 2000329c <gptrLLEReg>
    371c:	c422                	sw	s0,8(sp)
    371e:	5be0                	lw	s0,116(a5)
    3720:	409c                	lw	a5,0(s1)
    3722:	c606                	sw	ra,12(sp)
    3724:	c04a                	sw	s2,0(sp)
    3726:	4398                	lw	a4,0(a5)
    3728:	8b0d                	andi	a4,a4,3
    372a:	c305                	beqz	a4,374a <LL_ScanSetRF+0x42>
    372c:	4bb8                	lw	a4,80(a5)
    372e:	9b61                	andi	a4,a4,-8
    3730:	cbb8                	sw	a4,80(a5)
    3732:	4398                	lw	a4,0(a5)
    3734:	00876713          	ori	a4,a4,8
    3738:	c398                	sw	a4,0(a5)
    373a:	439c                	lw	a5,0(a5)
    373c:	838d                	srli	a5,a5,0x3
    373e:	8b85                	andi	a5,a5,1
    3740:	c789                	beqz	a5,374a <LL_ScanSetRF+0x42>
    3742:	0001                	nop
    3744:	0001                	nop
    3746:	0001                	nop
    3748:	0001                	nop
    374a:	20000797          	auipc	a5,0x20000
    374e:	b2e78793          	addi	a5,a5,-1234 # 20003278 <gptrBBReg>
    3752:	4394                	lw	a3,0(a5)
    3754:	8e89c737          	lui	a4,0x8e89c
    3758:	ed670713          	addi	a4,a4,-298 # 8e89bed6 <_eusrstack+0x6e893ed6>
    375c:	c698                	sw	a4,8(a3)
    375e:	00555737          	lui	a4,0x555
    3762:	55570713          	addi	a4,a4,1365 # 555555 <_data_lma+0x54dc69>
    3766:	c2d8                	sw	a4,4(a3)
    3768:	02244703          	lbu	a4,34(s0)
    376c:	0ff00693          	li	a3,255
    3770:	893e                	mv	s2,a5
    3772:	00d70763          	beq	a4,a3,3780 <LL_ScanSetRF+0x78>
    3776:	57fd                	li	a5,-1
    3778:	02e400a3          	sb	a4,33(s0)
    377c:	02f40123          	sb	a5,34(s0)
    3780:	02144503          	lbu	a0,33(s0)
    3784:	4789                	li	a5,2
    3786:	00f50363          	beq	a0,a5,378c <LL_ScanSetRF+0x84>
    378a:	4501                	li	a0,0
    378c:	4098                	lw	a4,0(s1)
    378e:	435c                	lw	a5,4(a4)
    3790:	0017e793          	ori	a5,a5,1
    3794:	c35c                	sw	a5,4(a4)
    3796:	fa100793          	li	a5,-95
    379a:	00f40523          	sb	a5,10(s0)
    379e:	20000797          	auipc	a5,0x20000
    37a2:	aeb7c783          	lbu	a5,-1301(a5) # 20003289 <gBleIPPara+0x9>
    37a6:	cf81                	beqz	a5,37be <LL_ScanSetRF+0xb6>
    37a8:	20000717          	auipc	a4,0x20000
    37ac:	ae074703          	lbu	a4,-1312(a4) # 20003288 <gBleIPPara+0x8>
    37b0:	4795                	li	a5,5
    37b2:	00f71663          	bne	a4,a5,37be <LL_ScanSetRF+0xb6>
    37b6:	20000797          	auipc	a5,0x20000
    37ba:	ac0789a3          	sb	zero,-1325(a5) # 20003289 <gBleIPPara+0x9>
    37be:	20000717          	auipc	a4,0x20000
    37c2:	ac974703          	lbu	a4,-1335(a4) # 20003287 <gBleIPPara+0x7>
    37c6:	479d                	li	a5,7
    37c8:	00f71863          	bne	a4,a5,37d8 <LL_ScanSetRF+0xd0>
    37cc:	10700793          	li	a5,263
    37d0:	20000717          	auipc	a4,0x20000
    37d4:	aaf71c23          	sh	a5,-1352(a4) # 20003288 <gBleIPPara+0x8>
    37d8:	4795                	li	a5,5
    37da:	20000717          	auipc	a4,0x20000
    37de:	aaf706a3          	sb	a5,-1363(a4) # 20003287 <gBleIPPara+0x7>
    37e2:	4601                	li	a2,0
    37e4:	20000797          	auipc	a5,0x20000
    37e8:	a8078e23          	sb	zero,-1380(a5) # 20003280 <gBleIPPara>
    37ec:	0ff00593          	li	a1,255
    37f0:	20000797          	auipc	a5,0x20000
    37f4:	a8078a23          	sb	zero,-1388(a5) # 20003284 <gBleIPPara+0x4>
    37f8:	24b9                	jal	3a46 <BLE_SetPHYRxMode>
    37fa:	4090                	lw	a2,0(s1)
    37fc:	20000797          	auipc	a5,0x20000
    3800:	a80784a3          	sb	zero,-1399(a5) # 20003285 <gBleIPPara+0x5>
    3804:	20000797          	auipc	a5,0x20000
    3808:	a6078ea3          	sb	zero,-1411(a5) # 20003281 <gBleIPPara+0x1>
    380c:	4785                	li	a5,1
    380e:	c21c                	sw	a5,0(a2)
    3810:	00092783          	lw	a5,0(s2)
    3814:	003305b7          	lui	a1,0x330
    3818:	4398                	lw	a4,0(a5)
    381a:	e7f77713          	andi	a4,a4,-385
    381e:	c398                	sw	a4,0(a5)
    3820:	4398                	lw	a4,0(a5)
    3822:	e7f77713          	andi	a4,a4,-385
    3826:	10076713          	ori	a4,a4,256
    382a:	c398                	sw	a4,0(a5)
    382c:	20000717          	auipc	a4,0x20000
    3830:	ab470713          	addi	a4,a4,-1356 # 200032e0 <gptrRFENDReg>
    3834:	4318                	lw	a4,0(a4)
    3836:	4714                	lw	a3,8(a4)
    3838:	8ecd                	or	a3,a3,a1
    383a:	c714                	sw	a3,8(a4)
    383c:	0d900693          	li	a3,217
    3840:	ca34                	sw	a3,80(a2)
    3842:	5754                	lw	a3,44(a4)
    3844:	9af5                	andi	a3,a3,-3
    3846:	d754                	sw	a3,44(a4)
    3848:	00944703          	lbu	a4,9(s0)
    384c:	07f77693          	andi	a3,a4,127
    3850:	4398                	lw	a4,0(a5)
    3852:	f8077713          	andi	a4,a4,-128
    3856:	8f55                	or	a4,a4,a3
    3858:	c398                	sw	a4,0(a5)
    385a:	40b2                	lw	ra,12(sp)
    385c:	4422                	lw	s0,8(sp)
    385e:	4492                	lw	s1,4(sp)
    3860:	4902                	lw	s2,0(sp)
    3862:	0141                	addi	sp,sp,16
    3864:	8082                	ret

00003866 <BB_DevInit>:
BB_DevInit():
    3866:	20000617          	auipc	a2,0x20000
    386a:	a1260613          	addi	a2,a2,-1518 # 20003278 <gptrBBReg>
    386e:	421c                	lw	a5,0(a2)
    3870:	008006b7          	lui	a3,0x800
    3874:	800115b7          	lui	a1,0x80011
    3878:	4398                	lw	a4,0(a5)
    387a:	e7858593          	addi	a1,a1,-392 # 80010e78 <_eusrstack+0x60008e78>
    387e:	8f55                	or	a4,a4,a3
    3880:	c398                	sw	a4,0(a5)
    3882:	4398                	lw	a4,0(a5)
    3884:	100006b7          	lui	a3,0x10000
    3888:	8f55                	or	a4,a4,a3
    388a:	c398                	sw	a4,0(a5)
    388c:	1d000713          	li	a4,464
    3890:	dbd8                	sw	a4,52(a5)
    3892:	20000717          	auipc	a4,0x20000
    3896:	9ae74703          	lbu	a4,-1618(a4) # 20003240 <ble+0x14>
    389a:	01971693          	slli	a3,a4,0x19
    389e:	8ecd                	or	a3,a3,a1
    38a0:	d7d4                	sw	a3,44(a5)
    38a2:	57d4                	lw	a3,44(a5)
    38a4:	820005b7          	lui	a1,0x82000
    38a8:	03f77713          	andi	a4,a4,63
    38ac:	15fd                	addi	a1,a1,-1
    38ae:	8eed                	and	a3,a3,a1
    38b0:	0766                	slli	a4,a4,0x19
    38b2:	8f55                	or	a4,a4,a3
    38b4:	d7d8                	sw	a4,44(a5)
    38b6:	40001737          	lui	a4,0x40001
    38ba:	05700793          	li	a5,87
    38be:	04f70023          	sb	a5,64(a4) # 40001040 <_eusrstack+0x1fff9040>
    38c2:	fa800793          	li	a5,-88
    38c6:	04f70023          	sb	a5,64(a4)
    38ca:	20000697          	auipc	a3,0x20000
    38ce:	9766c683          	lbu	a3,-1674(a3) # 20003240 <ble+0x14>
    38d2:	47b5                	li	a5,13
    38d4:	02d7fb63          	bgeu	a5,a3,390a <BB_DevInit+0xa4>
    38d8:	02275783          	lhu	a5,34(a4)
    38dc:	0107e793          	ori	a5,a5,16
    38e0:	02f71123          	sh	a5,34(a4)
    38e4:	4218                	lw	a4,0(a2)
    38e6:	000907b7          	lui	a5,0x90
    38ea:	08378793          	addi	a5,a5,131 # 90083 <_data_lma+0x88797>
    38ee:	d31c                	sw	a5,32(a4)
    38f0:	e000e737          	lui	a4,0xe000e
    38f4:	47d1                	li	a5,20
    38f6:	04f709a3          	sb	a5,83(a4) # e000e053 <_eusrstack+0xc0006053>
    38fa:	1fffd797          	auipc	a5,0x1fffd
    38fe:	2ce78793          	addi	a5,a5,718 # 20000bc8 <BB_IRQLibHandler>
    3902:	0017e793          	ori	a5,a5,1
    3906:	d77c                	sw	a5,108(a4)
    3908:	8082                	ret
    390a:	02275783          	lhu	a5,34(a4)
    390e:	07c2                	slli	a5,a5,0x10
    3910:	83c1                	srli	a5,a5,0x10
    3912:	9bbd                	andi	a5,a5,-17
    3914:	07c2                	slli	a5,a5,0x10
    3916:	83c1                	srli	a5,a5,0x10
    3918:	b7e1                	j	38e0 <BB_DevInit+0x7a>

0000391a <BLE_SetPHYTxMode>:
BLE_SetPHYTxMode():
    391a:	20000797          	auipc	a5,0x20000
    391e:	96278793          	addi	a5,a5,-1694 # 2000327c <gPaControl>
    3922:	439c                	lw	a5,0(a5)
    3924:	cb99                	beqz	a5,393a <BLE_SetPHYTxMode+0x20>
    3926:	4b94                	lw	a3,16(a5)
    3928:	4bd0                	lw	a2,20(a5)
    392a:	4298                	lw	a4,0(a3)
    392c:	8f51                	or	a4,a4,a2
    392e:	c298                	sw	a4,0(a3)
    3930:	4394                	lw	a3,0(a5)
    3932:	479c                	lw	a5,8(a5)
    3934:	4298                	lw	a4,0(a3)
    3936:	8fd9                	or	a5,a5,a4
    3938:	c29c                	sw	a5,0(a3)
    393a:	20000797          	auipc	a5,0x20000
    393e:	93e78793          	addi	a5,a5,-1730 # 20003278 <gptrBBReg>
    3942:	20000617          	auipc	a2,0x20000
    3946:	95a60613          	addi	a2,a2,-1702 # 2000329c <gptrLLEReg>
    394a:	00257693          	andi	a3,a0,2
    394e:	4398                	lw	a4,0(a5)
    3950:	00062803          	lw	a6,0(a2)
    3954:	20000797          	auipc	a5,0x20000
    3958:	9367c783          	lbu	a5,-1738(a5) # 2000328a <gBleIPPara+0xa>
    395c:	c6c1                	beqz	a3,39e4 <BLE_SetPHYTxMode+0xca>
    395e:	4314                	lw	a3,0(a4)
    3960:	78f5                	lui	a7,0xffffd
    3962:	18fd                	addi	a7,a7,-1
    3964:	0116f6b3          	and	a3,a3,a7
    3968:	6309                	lui	t1,0x2
    396a:	0066e6b3          	or	a3,a3,t1
    396e:	c314                	sw	a3,0(a4)
    3970:	76d1                	lui	a3,0xffff4
    3972:	fff68893          	addi	a7,a3,-1 # ffff3fff <_eusrstack+0xdffebfff>
    3976:	4314                	lw	a3,0(a4)
    3978:	058e                	slli	a1,a1,0x3
    397a:	4e0d                	li	t3,3
    397c:	02b58593          	addi	a1,a1,43 # 8200002b <_eusrstack+0x61ff802b>
    3980:	23678793          	addi	a5,a5,566
    3984:	0116f6b3          	and	a3,a3,a7
    3988:	03c51c63          	bne	a0,t3,39c0 <BLE_SetPHYTxMode+0xa6>
    398c:	6511                	lui	a0,0x4
    398e:	8ec9                	or	a3,a3,a0
    3990:	c314                	sw	a3,0(a4)
    3992:	6735                	lui	a4,0xd
    3994:	073d                	addi	a4,a4,15
    3996:	00e82623          	sw	a4,12(a6)
    399a:	0000100f          	fence.i
    399e:	4218                	lw	a4,0(a2)
    39a0:	f8000693          	li	a3,-128
    39a4:	0586                	slli	a1,a1,0x1
    39a6:	00672423          	sw	t1,8(a4) # d008 <_data_lma+0x571c>
    39aa:	20000617          	auipc	a2,0x20000
    39ae:	8cd60d23          	sb	a3,-1830(a2) # 20003284 <gBleIPPara+0x4>
    39b2:	95be                	add	a1,a1,a5
    39b4:	0586                	slli	a1,a1,0x1
    39b6:	67bd                	lui	a5,0xf
    39b8:	d36c                	sw	a1,100(a4)
    39ba:	07bd                	addi	a5,a5,15
    39bc:	c75c                	sw	a5,12(a4)
    39be:	8082                	ret
    39c0:	c314                	sw	a3,0(a4)
    39c2:	6735                	lui	a4,0xd
    39c4:	073d                	addi	a4,a4,15
    39c6:	00e82623          	sw	a4,12(a6)
    39ca:	0000100f          	fence.i
    39ce:	4218                	lw	a4,0(a2)
    39d0:	f8000693          	li	a3,-128
    39d4:	00672423          	sw	t1,8(a4) # d008 <_data_lma+0x571c>
    39d8:	20000617          	auipc	a2,0x20000
    39dc:	8ad60623          	sb	a3,-1876(a2) # 20003284 <gBleIPPara+0x4>
    39e0:	058e                	slli	a1,a1,0x3
    39e2:	bfc1                	j	39b2 <BLE_SetPHYTxMode+0x98>
    39e4:	76f5                	lui	a3,0xffffd
    39e6:	fff68893          	addi	a7,a3,-1 # ffffcfff <_eusrstack+0xdfff4fff>
    39ea:	4314                	lw	a3,0(a4)
    39ec:	8905                	andi	a0,a0,1
    39ee:	09e78793          	addi	a5,a5,158 # f09e <_data_lma+0x77b2>
    39f2:	0116f6b3          	and	a3,a3,a7
    39f6:	c505                	beqz	a0,3a1e <BLE_SetPHYTxMode+0x104>
    39f8:	c314                	sw	a3,0(a4)
    39fa:	6735                	lui	a4,0xd
    39fc:	073d                	addi	a4,a4,15
    39fe:	00e82623          	sw	a4,12(a6)
    3a02:	0000100f          	fence.i
    3a06:	4218                	lw	a4,0(a2)
    3a08:	6689                	lui	a3,0x2
    3a0a:	05ad                	addi	a1,a1,11
    3a0c:	c714                	sw	a3,8(a4)
    3a0e:	f8000693          	li	a3,-128
    3a12:	20000617          	auipc	a2,0x20000
    3a16:	86d60923          	sb	a3,-1934(a2) # 20003284 <gBleIPPara+0x4>
    3a1a:	058a                	slli	a1,a1,0x2
    3a1c:	bf59                	j	39b2 <BLE_SetPHYTxMode+0x98>
    3a1e:	6505                	lui	a0,0x1
    3a20:	8ec9                	or	a3,a3,a0
    3a22:	c314                	sw	a3,0(a4)
    3a24:	6735                	lui	a4,0xd
    3a26:	073d                	addi	a4,a4,15
    3a28:	00e82623          	sw	a4,12(a6)
    3a2c:	0000100f          	fence.i
    3a30:	4218                	lw	a4,0(a2)
    3a32:	6689                	lui	a3,0x2
    3a34:	05a9                	addi	a1,a1,10
    3a36:	c714                	sw	a3,8(a4)
    3a38:	f8000693          	li	a3,-128
    3a3c:	20000617          	auipc	a2,0x20000
    3a40:	84d60423          	sb	a3,-1976(a2) # 20003284 <gBleIPPara+0x4>
    3a44:	bf71                	j	39e0 <BLE_SetPHYTxMode+0xc6>

00003a46 <BLE_SetPHYRxMode>:
BLE_SetPHYRxMode():
    3a46:	20000797          	auipc	a5,0x20000
    3a4a:	83678793          	addi	a5,a5,-1994 # 2000327c <gPaControl>
    3a4e:	439c                	lw	a5,0(a5)
    3a50:	cf89                	beqz	a5,3a6a <BLE_SetPHYRxMode+0x24>
    3a52:	43d4                	lw	a3,4(a5)
    3a54:	0087a803          	lw	a6,8(a5)
    3a58:	4298                	lw	a4,0(a3)
    3a5a:	01076733          	or	a4,a4,a6
    3a5e:	c298                	sw	a4,0(a3)
    3a60:	47d4                	lw	a3,12(a5)
    3a62:	4bdc                	lw	a5,20(a5)
    3a64:	4298                	lw	a4,0(a3)
    3a66:	8fd9                	or	a5,a5,a4
    3a68:	c29c                	sw	a5,0(a3)
    3a6a:	20000797          	auipc	a5,0x20000
    3a6e:	80e78793          	addi	a5,a5,-2034 # 20003278 <gptrBBReg>
    3a72:	00257713          	andi	a4,a0,2
    3a76:	439c                	lw	a5,0(a5)
    3a78:	c335                	beqz	a4,3adc <BLE_SetPHYRxMode+0x96>
    3a7a:	4398                	lw	a4,0(a5)
    3a7c:	76f5                	lui	a3,0xffffd
    3a7e:	16fd                	addi	a3,a3,-1
    3a80:	8f75                	and	a4,a4,a3
    3a82:	6689                	lui	a3,0x2
    3a84:	8f55                	or	a4,a4,a3
    3a86:	c398                	sw	a4,0(a5)
    3a88:	00090737          	lui	a4,0x90
    3a8c:	08670713          	addi	a4,a4,134 # 90086 <_data_lma+0x8879a>
    3a90:	d398                	sw	a4,32(a5)
    3a92:	00372737          	lui	a4,0x372
    3a96:	2df70713          	addi	a4,a4,735 # 3722df <_data_lma+0x36a9f3>
    3a9a:	cb98                	sw	a4,16(a5)
    3a9c:	08302737          	lui	a4,0x8302
    3aa0:	1745                	addi	a4,a4,-15
    3aa2:	cbd8                	sw	a4,20(a5)
    3aa4:	00031737          	lui	a4,0x31
    3aa8:	61970713          	addi	a4,a4,1561 # 31619 <_data_lma+0x29d2d>
    3aac:	cf98                	sw	a4,24(a5)
    3aae:	670d                	lui	a4,0x3
    3ab0:	8de70713          	addi	a4,a4,-1826 # 28de <RF_2G4StatusCallBack+0x56>
    3ab4:	d798                	sw	a4,40(a5)
    3ab6:	01006737          	lui	a4,0x1006
    3aba:	31070713          	addi	a4,a4,784 # 1006310 <_data_lma+0xffea24>
    3abe:	059e                	slli	a1,a1,0x7
    3ac0:	d3d8                	sw	a4,36(a5)
    3ac2:	36458593          	addi	a1,a1,868
    3ac6:	1ffff797          	auipc	a5,0x1ffff
    3aca:	7cb7a323          	sw	a1,1990(a5) # 2000328c <gBleIPPara+0xc>
    3ace:	c611                	beqz	a2,3ada <BLE_SetPHYRxMode+0x94>
    3ad0:	0606                	slli	a2,a2,0x1
    3ad2:	1ffff797          	auipc	a5,0x1ffff
    3ad6:	7ac7ad23          	sw	a2,1978(a5) # 2000328c <gBleIPPara+0xc>
    3ada:	8082                	ret
    3adc:	00090737          	lui	a4,0x90
    3ae0:	08370713          	addi	a4,a4,131 # 90083 <_data_lma+0x88797>
    3ae4:	d398                	sw	a4,32(a5)
    3ae6:	08102737          	lui	a4,0x8102
    3aea:	90170713          	addi	a4,a4,-1791 # 8101901 <_data_lma+0x80fa015>
    3aee:	cbd8                	sw	a4,20(a5)
    3af0:	00031737          	lui	a4,0x31
    3af4:	62470713          	addi	a4,a4,1572 # 31624 <_data_lma+0x29d38>
    3af8:	cf98                	sw	a4,24(a5)
    3afa:	670d                	lui	a4,0x3
    3afc:	8be70713          	addi	a4,a4,-1858 # 28be <RF_2G4StatusCallBack+0x36>
    3b00:	d798                	sw	a4,40(a5)
    3b02:	01006737          	lui	a4,0x1006
    3b06:	31070713          	addi	a4,a4,784 # 1006310 <_data_lma+0xffea24>
    3b0a:	d3d8                	sw	a4,36(a5)
    3b0c:	7775                	lui	a4,0xffffd
    3b0e:	fff70693          	addi	a3,a4,-1 # ffffcfff <_eusrstack+0xdfff4fff>
    3b12:	4398                	lw	a4,0(a5)
    3b14:	4805                	li	a6,1
    3b16:	0595                	addi	a1,a1,5
    3b18:	8f75                	and	a4,a4,a3
    3b1a:	01051c63          	bne	a0,a6,3b32 <BLE_SetPHYRxMode+0xec>
    3b1e:	c398                	sw	a4,0(a5)
    3b20:	002d2737          	lui	a4,0x2d2
    3b24:	2d070713          	addi	a4,a4,720 # 2d22d0 <_data_lma+0x2ca9e4>
    3b28:	cb98                	sw	a4,16(a5)
    3b2a:	058e                	slli	a1,a1,0x3
    3b2c:	03c58593          	addi	a1,a1,60
    3b30:	bf59                	j	3ac6 <BLE_SetPHYRxMode+0x80>
    3b32:	6685                	lui	a3,0x1
    3b34:	8f55                	or	a4,a4,a3
    3b36:	c398                	sw	a4,0(a5)
    3b38:	00372737          	lui	a4,0x372
    3b3c:	2d070713          	addi	a4,a4,720 # 3722d0 <_data_lma+0x36a9e4>
    3b40:	cb98                	sw	a4,16(a5)
    3b42:	0592                	slli	a1,a1,0x4
    3b44:	b7e5                	j	3b2c <BLE_SetPHYRxMode+0xe6>

00003b46 <ll_multi_states_check>:
ll_multi_states_check():
    3b46:	1ffff797          	auipc	a5,0x1ffff
    3b4a:	7437c783          	lbu	a5,1859(a5) # 20003289 <gBleIPPara+0x9>
    3b4e:	e78d                	bnez	a5,3b78 <ll_multi_states_check+0x32>
    3b50:	1ffff717          	auipc	a4,0x1ffff
    3b54:	73774703          	lbu	a4,1847(a4) # 20003287 <gBleIPPara+0x7>
    3b58:	ffb70793          	addi	a5,a4,-5
    3b5c:	0ff7f793          	andi	a5,a5,255
    3b60:	4689                	li	a3,2
    3b62:	00f6eb63          	bltu	a3,a5,3b78 <ll_multi_states_check+0x32>
    3b66:	1ffff797          	auipc	a5,0x1ffff
    3b6a:	72e78123          	sb	a4,1826(a5) # 20003288 <gBleIPPara+0x8>
    3b6e:	4785                	li	a5,1
    3b70:	1ffff717          	auipc	a4,0x1ffff
    3b74:	70f70ca3          	sb	a5,1817(a4) # 20003289 <gBleIPPara+0x9>
    3b78:	8082                	ret

00003b7a <ll_multi_states_process>:
ll_multi_states_process():
    3b7a:	1141                	addi	sp,sp,-16
    3b7c:	c606                	sw	ra,12(sp)
    3b7e:	1ffff717          	auipc	a4,0x1ffff
    3b82:	70a74703          	lbu	a4,1802(a4) # 20003288 <gBleIPPara+0x8>
    3b86:	479d                	li	a5,7
    3b88:	04f71163          	bne	a4,a5,3bca <ll_multi_states_process+0x50>
    3b8c:	1ffff797          	auipc	a5,0x1ffff
    3b90:	7147c783          	lbu	a5,1812(a5) # 200032a0 <rfConfig>
    3b94:	8b85                	andi	a5,a5,1
    3b96:	1ffff617          	auipc	a2,0x1ffff
    3b9a:	72d64603          	lbu	a2,1837(a2) # 200032c3 <rfInfo+0x3>
    3b9e:	1ffff697          	auipc	a3,0x1ffff
    3ba2:	7246c683          	lbu	a3,1828(a3) # 200032c2 <rfInfo+0x2>
    3ba6:	c7b5                	beqz	a5,3c12 <ll_multi_states_process+0x98>
    3ba8:	1ffff797          	auipc	a5,0x1ffff
    3bac:	71878793          	addi	a5,a5,1816 # 200032c0 <rfInfo>
    3bb0:	43c8                	lw	a0,4(a5)
    3bb2:	c125                	beqz	a0,3c12 <ll_multi_states_process+0x98>
    3bb4:	00154583          	lbu	a1,1(a0) # 1001 <_einit+0xffd>
    3bb8:	0509                	addi	a0,a0,2
    3bba:	151000ef          	jal	ra,450a <RF_Rx>
    3bbe:	c511                	beqz	a0,3bca <ll_multi_states_process+0x50>
    3bc0:	4785                	li	a5,1
    3bc2:	1ffff717          	auipc	a4,0x1ffff
    3bc6:	6cf703a3          	sb	a5,1735(a4) # 20003289 <gBleIPPara+0x9>
    3bca:	1ffff717          	auipc	a4,0x1ffff
    3bce:	6be74703          	lbu	a4,1726(a4) # 20003288 <gBleIPPara+0x8>
    3bd2:	4795                	li	a5,5
    3bd4:	00f71b63          	bne	a4,a5,3bea <ll_multi_states_process+0x70>
    3bd8:	1ffff797          	auipc	a5,0x1ffff
    3bdc:	72078793          	addi	a5,a5,1824 # 200032f8 <gBleLlPara>
    3be0:	5bfc                	lw	a5,116(a5)
    3be2:	00b7c783          	lbu	a5,11(a5)
    3be6:	cb8d                	beqz	a5,3c18 <ll_multi_states_process+0x9e>
    3be8:	3605                	jal	3708 <LL_ScanSetRF>
    3bea:	1ffff717          	auipc	a4,0x1ffff
    3bee:	69e74703          	lbu	a4,1694(a4) # 20003288 <gBleIPPara+0x8>
    3bf2:	4799                	li	a5,6
    3bf4:	02f71263          	bne	a4,a5,3c18 <ll_multi_states_process+0x9e>
    3bf8:	1ffff797          	auipc	a5,0x1ffff
    3bfc:	70078793          	addi	a5,a5,1792 # 200032f8 <gBleLlPara>
    3c00:	0847a783          	lw	a5,132(a5)
    3c04:	0077c783          	lbu	a5,7(a5)
    3c08:	cb81                	beqz	a5,3c18 <ll_multi_states_process+0x9e>
    3c0a:	40b2                	lw	ra,12(sp)
    3c0c:	0141                	addi	sp,sp,16
    3c0e:	4560206f          	j	6064 <LL_InitiateSetRF>
    3c12:	4581                	li	a1,0
    3c14:	4501                	li	a0,0
    3c16:	b755                	j	3bba <ll_multi_states_process+0x40>
    3c18:	40b2                	lw	ra,12(sp)
    3c1a:	0141                	addi	sp,sp,16
    3c1c:	8082                	ret

00003c1e <ble_ll_hw_api_shut>:
ble_ll_hw_api_shut():
    3c1e:	1ffff717          	auipc	a4,0x1ffff
    3c22:	67e70713          	addi	a4,a4,1662 # 2000329c <gptrLLEReg>
    3c26:	431c                	lw	a5,0(a4)
    3c28:	4394                	lw	a3,0(a5)
    3c2a:	8a8d                	andi	a3,a3,3
    3c2c:	c285                	beqz	a3,3c4c <ble_ll_hw_api_shut+0x2e>
    3c2e:	4bb4                	lw	a3,80(a5)
    3c30:	9ae1                	andi	a3,a3,-8
    3c32:	cbb4                	sw	a3,80(a5)
    3c34:	4394                	lw	a3,0(a5)
    3c36:	0086e693          	ori	a3,a3,8
    3c3a:	c394                	sw	a3,0(a5)
    3c3c:	439c                	lw	a5,0(a5)
    3c3e:	838d                	srli	a5,a5,0x3
    3c40:	8b85                	andi	a5,a5,1
    3c42:	c789                	beqz	a5,3c4c <ble_ll_hw_api_shut+0x2e>
    3c44:	0001                	nop
    3c46:	0001                	nop
    3c48:	0001                	nop
    3c4a:	0001                	nop
    3c4c:	1ffff797          	auipc	a5,0x1ffff
    3c50:	62c78793          	addi	a5,a5,1580 # 20003278 <gptrBBReg>
    3c54:	4394                	lw	a3,0(a5)
    3c56:	429c                	lw	a5,0(a3)
    3c58:	e7f7f793          	andi	a5,a5,-385
    3c5c:	0807e793          	ori	a5,a5,128
    3c60:	c29c                	sw	a5,0(a3)
    3c62:	1ffff797          	auipc	a5,0x1ffff
    3c66:	67e78793          	addi	a5,a5,1662 # 200032e0 <gptrRFENDReg>
    3c6a:	4390                	lw	a2,0(a5)
    3c6c:	ffce06b7          	lui	a3,0xffce0
    3c70:	16fd                	addi	a3,a3,-1
    3c72:	461c                	lw	a5,8(a2)
    3c74:	8ff5                	and	a5,a5,a3
    3c76:	c61c                	sw	a5,8(a2)
    3c78:	431c                	lw	a5,0(a4)
    3c7a:	08000713          	li	a4,128
    3c7e:	cbb8                	sw	a4,80(a5)
    3c80:	1ffff797          	auipc	a5,0x1ffff
    3c84:	5fc78793          	addi	a5,a5,1532 # 2000327c <gPaControl>
    3c88:	439c                	lw	a5,0(a5)
    3c8a:	cb99                	beqz	a5,3ca0 <ble_ll_hw_api_shut+0x82>
    3c8c:	43d4                	lw	a3,4(a5)
    3c8e:	4790                	lw	a2,8(a5)
    3c90:	4298                	lw	a4,0(a3)
    3c92:	8f51                	or	a4,a4,a2
    3c94:	c298                	sw	a4,0(a3)
    3c96:	4b94                	lw	a3,16(a5)
    3c98:	4bdc                	lw	a5,20(a5)
    3c9a:	4298                	lw	a4,0(a3)
    3c9c:	8fd9                	or	a5,a5,a4
    3c9e:	c29c                	sw	a5,0(a3)
    3ca0:	1ffff797          	auipc	a5,0x1ffff
    3ca4:	5e0783a3          	sb	zero,1511(a5) # 20003287 <gBleIPPara+0x7>
    3ca8:	8082                	ret

00003caa <BLE_RegInit>:
BLE_RegInit():
    3caa:	1ffff797          	auipc	a5,0x1ffff
    3cae:	5d678793          	addi	a5,a5,1494 # 20003280 <gBleIPPara>
    3cb2:	4f9c                	lw	a5,24(a5)
    3cb4:	c7dd                	beqz	a5,3d62 <BLE_RegInit+0xb8>
    3cb6:	1141                	addi	sp,sp,-16
    3cb8:	c606                	sw	ra,12(sp)
    3cba:	c422                	sw	s0,8(sp)
    3cbc:	c226                	sw	s1,4(sp)
    3cbe:	c04a                	sw	s2,0(sp)
    3cc0:	2205                	jal	3de0 <LLE_DevInit>
    3cc2:	1ffff917          	auipc	s2,0x1ffff
    3cc6:	5b690913          	addi	s2,s2,1462 # 20003278 <gptrBBReg>
    3cca:	39e010ef          	jal	ra,5068 <RFEND_DevInit>
    3cce:	3e61                	jal	3866 <BB_DevInit>
    3cd0:	00092783          	lw	a5,0(s2)
    3cd4:	76f5                	lui	a3,0xffffd
    3cd6:	16fd                	addi	a3,a3,-1
    3cd8:	4398                	lw	a4,0(a5)
    3cda:	1ffff497          	auipc	s1,0x1ffff
    3cde:	60648493          	addi	s1,s1,1542 # 200032e0 <gptrRFENDReg>
    3ce2:	1ffff417          	auipc	s0,0x1ffff
    3ce6:	5ba40413          	addi	s0,s0,1466 # 2000329c <gptrLLEReg>
    3cea:	8f75                	and	a4,a4,a3
    3cec:	c398                	sw	a4,0(a5)
    3cee:	4398                	lw	a4,0(a5)
    3cf0:	003306b7          	lui	a3,0x330
    3cf4:	e7f77713          	andi	a4,a4,-385
    3cf8:	c398                	sw	a4,0(a5)
    3cfa:	4398                	lw	a4,0(a5)
    3cfc:	e7f77713          	andi	a4,a4,-385
    3d00:	10076713          	ori	a4,a4,256
    3d04:	c398                	sw	a4,0(a5)
    3d06:	4098                	lw	a4,0(s1)
    3d08:	471c                	lw	a5,8(a4)
    3d0a:	8fd5                	or	a5,a5,a3
    3d0c:	c71c                	sw	a5,8(a4)
    3d0e:	401c                	lw	a5,0(s0)
    3d10:	0dd00713          	li	a4,221
    3d14:	cbb8                	sw	a4,80(a5)
    3d16:	580010ef          	jal	ra,5296 <RFEND_TXCtune>
    3d1a:	292020ef          	jal	ra,5fac <RFEND_TXFtune>
    3d1e:	4be010ef          	jal	ra,51dc <RFEND_RXFilter>
    3d22:	53a010ef          	jal	ra,525c <RFEND_RXAdc>
    3d26:	00092703          	lw	a4,0(s2)
    3d2a:	431c                	lw	a5,0(a4)
    3d2c:	e7f7f793          	andi	a5,a5,-385
    3d30:	0807e793          	ori	a5,a5,128
    3d34:	c31c                	sw	a5,0(a4)
    3d36:	4094                	lw	a3,0(s1)
    3d38:	ffce0737          	lui	a4,0xffce0
    3d3c:	177d                	addi	a4,a4,-1
    3d3e:	469c                	lw	a5,8(a3)
    3d40:	8ff9                	and	a5,a5,a4
    3d42:	c69c                	sw	a5,8(a3)
    3d44:	401c                	lw	a5,0(s0)
    3d46:	08000713          	li	a4,128
    3d4a:	cbb8                	sw	a4,80(a5)
    3d4c:	3bed                	jal	3b46 <ll_multi_states_check>
    3d4e:	40b2                	lw	ra,12(sp)
    3d50:	4422                	lw	s0,8(sp)
    3d52:	1ffff797          	auipc	a5,0x1ffff
    3d56:	52078aa3          	sb	zero,1333(a5) # 20003287 <gBleIPPara+0x7>
    3d5a:	4492                	lw	s1,4(sp)
    3d5c:	4902                	lw	s2,0(sp)
    3d5e:	0141                	addi	sp,sp,16
    3d60:	8082                	ret
    3d62:	8082                	ret

00003d64 <BLE_IPCoreInit>:
BLE_IPCoreInit():
    3d64:	1ffff797          	auipc	a5,0x1ffff
    3d68:	5007ac23          	sw	zero,1304(a5) # 2000327c <gPaControl>
    3d6c:	4000c7b7          	lui	a5,0x4000c
    3d70:	30078713          	addi	a4,a5,768 # 4000c300 <_eusrstack+0x20004300>
    3d74:	1ffff697          	auipc	a3,0x1ffff
    3d78:	50e6a023          	sw	a4,1280(a3) # 20003274 <gptrAESReg>
    3d7c:	20078713          	addi	a4,a5,512
    3d80:	1ffff697          	auipc	a3,0x1ffff
    3d84:	50e6ae23          	sw	a4,1308(a3) # 2000329c <gptrLLEReg>
    3d88:	10078793          	addi	a5,a5,256
    3d8c:	4000d737          	lui	a4,0x4000d
    3d90:	1141                	addi	sp,sp,-16
    3d92:	1ffff697          	auipc	a3,0x1ffff
    3d96:	54e6a723          	sw	a4,1358(a3) # 200032e0 <gptrRFENDReg>
    3d9a:	1ffff717          	auipc	a4,0x1ffff
    3d9e:	4cf72f23          	sw	a5,1246(a4) # 20003278 <gptrBBReg>
    3da2:	c606                	sw	ra,12(sp)
    3da4:	1ffff717          	auipc	a4,0x1ffff
    3da8:	4dc70713          	addi	a4,a4,1244 # 20003280 <gBleIPPara>
    3dac:	4785                	li	a5,1
    3dae:	00f703a3          	sb	a5,7(a4)
    3db2:	1ffff797          	auipc	a5,0x1ffff
    3db6:	47a78793          	addi	a5,a5,1146 # 2000322c <ble>
    3dba:	439c                	lw	a5,0(a5)
    3dbc:	cf1c                	sw	a5,24(a4)
    3dbe:	11078793          	addi	a5,a5,272
    3dc2:	cb5c                	sw	a5,20(a4)
    3dc4:	35dd                	jal	3caa <BLE_RegInit>
    3dc6:	e000e7b7          	lui	a5,0xe000e
    3dca:	00100737          	lui	a4,0x100
    3dce:	40b2                	lw	ra,12(sp)
    3dd0:	10e7a023          	sw	a4,256(a5) # e000e100 <_eusrstack+0xc0006100>
    3dd4:	00200737          	lui	a4,0x200
    3dd8:	10e7a023          	sw	a4,256(a5)
    3ddc:	0141                	addi	sp,sp,16
    3dde:	8082                	ret

00003de0 <LLE_DevInit>:
LLE_DevInit():
    3de0:	1ffff797          	auipc	a5,0x1ffff
    3de4:	4bc78793          	addi	a5,a5,1212 # 2000329c <gptrLLEReg>
    3de8:	439c                	lw	a5,0(a5)
    3dea:	08c00713          	li	a4,140
    3dee:	07600693          	li	a3,118
    3df2:	cbd8                	sw	a4,20(a5)
    3df4:	cfd4                	sw	a3,28(a5)
    3df6:	d3d8                	sw	a4,36(a5)
    3df8:	03c00613          	li	a2,60
    3dfc:	d7d0                	sw	a2,44(a5)
    3dfe:	dbd8                	sw	a4,52(a5)
    3e00:	dfd0                	sw	a2,60(a5)
    3e02:	c3f8                	sw	a4,68(a5)
    3e04:	1ffff717          	auipc	a4,0x1ffff
    3e08:	47c70713          	addi	a4,a4,1148 # 20003280 <gBleIPPara>
    3e0c:	4f18                	lw	a4,24(a4)
    3e0e:	c7f4                	sw	a3,76(a5)
    3e10:	dbf8                	sw	a4,116(a5)
    3e12:	6741                	lui	a4,0x10
    3e14:	177d                	addi	a4,a4,-1
    3e16:	c798                	sw	a4,8(a5)
    3e18:	673d                	lui	a4,0xf
    3e1a:	073d                	addi	a4,a4,15
    3e1c:	c7d8                	sw	a4,12(a5)
    3e1e:	e000e737          	lui	a4,0xe000e
    3e22:	47d5                	li	a5,21
    3e24:	04f70923          	sb	a5,82(a4) # e000e052 <_eusrstack+0xc0006052>
    3e28:	1fffd797          	auipc	a5,0x1fffd
    3e2c:	2dc78793          	addi	a5,a5,732 # 20001104 <LLE_IRQLibHandler>
    3e30:	0017e793          	ori	a5,a5,1
    3e34:	d73c                	sw	a5,104(a4)
    3e36:	8082                	ret

00003e38 <RF_DevSetChannel>:
RF_DevSetChannel():
    3e38:	1ffff797          	auipc	a5,0x1ffff
    3e3c:	4a878793          	addi	a5,a5,1192 # 200032e0 <gptrRFENDReg>
    3e40:	4394                	lw	a3,0(a5)
    3e42:	1ffff797          	auipc	a5,0x1ffff
    3e46:	43678793          	addi	a5,a5,1078 # 20003278 <gptrBBReg>
    3e4a:	439c                	lw	a5,0(a5)
    3e4c:	10058763          	beqz	a1,3f5a <RF_DevSetChannel+0x122>
    3e50:	0024b737          	lui	a4,0x24b
    3e54:	e9f70713          	addi	a4,a4,-353 # 24ae9f <_data_lma+0x2435b3>
    3e58:	08a76663          	bltu	a4,a0,3ee4 <RF_DevSetChannel+0xac>
    3e5c:	4398                	lw	a4,0(a5)
    3e5e:	f8077713          	andi	a4,a4,-128
    3e62:	02576713          	ori	a4,a4,37
    3e66:	c398                	sw	a4,0(a5)
    3e68:	0015f713          	andi	a4,a1,1
    3e6c:	cb01                	beqz	a4,3e7c <RF_DevSetChannel+0x44>
    3e6e:	0305f593          	andi	a1,a1,48
    3e72:	4741                	li	a4,16
    3e74:	0ee59063          	bne	a1,a4,3f54 <RF_DevSetChannel+0x11c>
    3e78:	83050513          	addi	a0,a0,-2000
    3e7c:	56d8                	lw	a4,44(a3)
    3e7e:	fe100837          	lui	a6,0xfe100
    3e82:	187d                	addi	a6,a6,-1
    3e84:	00276713          	ori	a4,a4,2
    3e88:	d6d8                	sw	a4,44(a3)
    3e8a:	6741                	lui	a4,0x10
    3e8c:	a0070713          	addi	a4,a4,-1536 # fa00 <_data_lma+0x8114>
    3e90:	02e55633          	divu	a2,a0,a4
    3e94:	02e57533          	remu	a0,a0,a4
    3e98:	0fa00713          	li	a4,250
    3e9c:	8a7d                	andi	a2,a2,31
    3e9e:	01461593          	slli	a1,a2,0x14
    3ea2:	42f0                	lw	a2,68(a3)
    3ea4:	01067633          	and	a2,a2,a6
    3ea8:	8e4d                	or	a2,a2,a1
    3eaa:	c2f0                	sw	a2,68(a3)
    3eac:	fffc0637          	lui	a2,0xfffc0
    3eb0:	052a                	slli	a0,a0,0xa
    3eb2:	02e55533          	divu	a0,a0,a4
    3eb6:	42f8                	lw	a4,68(a3)
    3eb8:	8f71                	and	a4,a4,a2
    3eba:	053a                	slli	a0,a0,0xe
    3ebc:	8139                	srli	a0,a0,0xe
    3ebe:	8d59                	or	a0,a0,a4
    3ec0:	c2e8                	sw	a0,68(a3)
    3ec2:	1ffff717          	auipc	a4,0x1ffff
    3ec6:	3de74703          	lbu	a4,990(a4) # 200032a0 <rfConfig>
    3eca:	8b09                	andi	a4,a4,2
    3ecc:	cb19                	beqz	a4,3ee2 <RF_DevSetChannel+0xaa>
    3ece:	4398                	lw	a4,0(a5)
    3ed0:	07f77713          	andi	a4,a4,127
    3ed4:	04076693          	ori	a3,a4,64
    3ed8:	4398                	lw	a4,0(a5)
    3eda:	f8077713          	andi	a4,a4,-128
    3ede:	8f55                	or	a4,a4,a3
    3ee0:	c398                	sw	a4,0(a5)
    3ee2:	8082                	ret
    3ee4:	00250737          	lui	a4,0x250
    3ee8:	48f70613          	addi	a2,a4,1167 # 25048f <_data_lma+0x248ba3>
    3eec:	02a66363          	bltu	a2,a0,3f12 <RF_DevSetChannel+0xda>
    3ef0:	ffdb6737          	lui	a4,0xffdb6
    3ef4:	93070713          	addi	a4,a4,-1744 # ffdb5930 <_eusrstack+0xdfdad930>
    3ef8:	972a                	add	a4,a4,a0
    3efa:	7d000613          	li	a2,2000
    3efe:	02c75733          	divu	a4,a4,a2
    3f02:	177d                	addi	a4,a4,-1
    3f04:	4390                	lw	a2,0(a5)
    3f06:	07f77713          	andi	a4,a4,127
    3f0a:	f8067613          	andi	a2,a2,-128
    3f0e:	8f51                	or	a4,a4,a2
    3f10:	bf99                	j	3e66 <RF_DevSetChannel+0x2e>
    3f12:	49070713          	addi	a4,a4,1168
    3f16:	00e51863          	bne	a0,a4,3f26 <RF_DevSetChannel+0xee>
    3f1a:	4398                	lw	a4,0(a5)
    3f1c:	f8077713          	andi	a4,a4,-128
    3f20:	02676713          	ori	a4,a4,38
    3f24:	b789                	j	3e66 <RF_DevSetChannel+0x2e>
    3f26:	0025d737          	lui	a4,0x25d
    3f2a:	77f70713          	addi	a4,a4,1919 # 25d77f <_data_lma+0x255e93>
    3f2e:	00a76d63          	bltu	a4,a0,3f48 <RF_DevSetChannel+0x110>
    3f32:	ffdb6737          	lui	a4,0xffdb6
    3f36:	93070713          	addi	a4,a4,-1744 # ffdb5930 <_eusrstack+0xdfdad930>
    3f3a:	972a                	add	a4,a4,a0
    3f3c:	7d000613          	li	a2,2000
    3f40:	02c75733          	divu	a4,a4,a2
    3f44:	1779                	addi	a4,a4,-2
    3f46:	bf7d                	j	3f04 <RF_DevSetChannel+0xcc>
    3f48:	4398                	lw	a4,0(a5)
    3f4a:	f8077713          	andi	a4,a4,-128
    3f4e:	02776713          	ori	a4,a4,39
    3f52:	bf11                	j	3e66 <RF_DevSetChannel+0x2e>
    3f54:	c1850513          	addi	a0,a0,-1000
    3f58:	b715                	j	3e7c <RF_DevSetChannel+0x44>
    3f5a:	56d8                	lw	a4,44(a3)
    3f5c:	07f57513          	andi	a0,a0,127
    3f60:	9b75                	andi	a4,a4,-3
    3f62:	d6d8                	sw	a4,44(a3)
    3f64:	4398                	lw	a4,0(a5)
    3f66:	f8077713          	andi	a4,a4,-128
    3f6a:	8d59                	or	a0,a0,a4
    3f6c:	c388                	sw	a0,0(a5)
    3f6e:	bf91                	j	3ec2 <RF_DevSetChannel+0x8a>

00003f70 <rf_stop>:
rf_stop():
    3f70:	1141                	addi	sp,sp,-16
    3f72:	c606                	sw	ra,12(sp)
    3f74:	1ffff797          	auipc	a5,0x1ffff
    3f78:	34078d23          	sb	zero,858(a5) # 200032ce <rfInfo+0xe>
    3f7c:	314d                	jal	3c1e <ble_ll_hw_api_shut>
    3f7e:	4501                	li	a0,0
    3f80:	4581                	li	a1,0
    3f82:	8f8ff0ef          	jal	ra,307a <TMOS_ProcessRegister>
    3f86:	40b2                	lw	ra,12(sp)
    3f88:	4501                	li	a0,0
    3f8a:	0141                	addi	sp,sp,16
    3f8c:	8082                	ret

00003f8e <RF_TxProcess>:
RF_TxProcess():
    3f8e:	1ffff797          	auipc	a5,0x1ffff
    3f92:	30e78793          	addi	a5,a5,782 # 2000329c <gptrLLEReg>
    3f96:	4398                	lw	a4,0(a5)
    3f98:	7179                	addi	sp,sp,-48
    3f9a:	1ffff517          	auipc	a0,0x1ffff
    3f9e:	30654503          	lbu	a0,774(a0) # 200032a0 <rfConfig>
    3fa2:	d422                	sw	s0,40(sp)
    3fa4:	d226                	sw	s1,36(sp)
    3fa6:	d606                	sw	ra,44(sp)
    3fa8:	d04a                	sw	s2,32(sp)
    3faa:	ce4e                	sw	s3,28(sp)
    3fac:	00157693          	andi	a3,a0,1
    3fb0:	84be                	mv	s1,a5
    3fb2:	1ffff417          	auipc	s0,0x1ffff
    3fb6:	2ce40413          	addi	s0,s0,718 # 20003280 <gBleIPPara>
    3fba:	12068c63          	beqz	a3,40f2 <RF_TxProcess+0x164>
    3fbe:	00244783          	lbu	a5,2(s0)
    3fc2:	8b85                	andi	a5,a5,1
    3fc4:	10078463          	beqz	a5,40cc <RF_TxProcess+0x13e>
    3fc8:	8511                	srai	a0,a0,0x4
    3fca:	4601                	li	a2,0
    3fcc:	1ffff597          	auipc	a1,0x1ffff
    3fd0:	2f05c583          	lbu	a1,752(a1) # 200032bc <rfConfig+0x1c>
    3fd4:	890d                	andi	a0,a0,3
    3fd6:	1ffff797          	auipc	a5,0x1ffff
    3fda:	2a078623          	sb	zero,684(a5) # 20003282 <gBleIPPara+0x2>
    3fde:	34a5                	jal	3a46 <BLE_SetPHYRxMode>
    3fe0:	1ffff597          	auipc	a1,0x1ffff
    3fe4:	2c05c583          	lbu	a1,704(a1) # 200032a0 <rfConfig>
    3fe8:	8591                	srai	a1,a1,0x4
    3fea:	0ff00613          	li	a2,255
    3fee:	898d                	andi	a1,a1,3
    3ff0:	4505                	li	a0,1
    3ff2:	1fffd097          	auipc	ra,0x1fffd
    3ff6:	e2c080e7          	jalr	-468(ra) # 20000e1e <ll_tx_wait_finish>
    3ffa:	3f9d                	jal	3f70 <rf_stop>
    3ffc:	1ffff917          	auipc	s2,0x1ffff
    4000:	2a490913          	addi	s2,s2,676 # 200032a0 <rfConfig>
    4004:	01092783          	lw	a5,16(s2)
    4008:	4601                	li	a2,0
    400a:	4581                	li	a1,0
    400c:	4505                	li	a0,1
    400e:	9782                	jalr	a5
    4010:	00344783          	lbu	a5,3(s0)
    4014:	89ca                	mv	s3,s2
    4016:	8b85                	andi	a5,a5,1
    4018:	cfc1                	beqz	a5,40b0 <RF_TxProcess+0x122>
    401a:	4c08                	lw	a0,24(s0)
    401c:	1ffff797          	auipc	a5,0x1ffff
    4020:	260783a3          	sb	zero,615(a5) # 20003283 <gBleIPPara+0x3>
    4024:	4581                	li	a1,0
    4026:	4681                	li	a3,0
    4028:	00f10613          	addi	a2,sp,15
    402c:	000107a3          	sb	zero,15(sp)
    4030:	1ffff797          	auipc	a5,0x1ffff
    4034:	24078a23          	sb	zero,596(a5) # 20003284 <gBleIPPara+0x4>
    4038:	1fffd097          	auipc	ra,0x1fffd
    403c:	d1c080e7          	jalr	-740(ra) # 20000d54 <ble_ll_chkcrc>
    4040:	01851593          	slli	a1,a0,0x18
    4044:	85e1                	srai	a1,a1,0x18
    4046:	e18d                	bnez	a1,4068 <RF_TxProcess+0xda>
    4048:	4c1c                	lw	a5,24(s0)
    404a:	0ff00693          	li	a3,255
    404e:	0007c703          	lbu	a4,0(a5)
    4052:	00d70b63          	beq	a4,a3,4068 <RF_TxProcess+0xda>
    4056:	1ffff797          	auipc	a5,0x1ffff
    405a:	26b7c783          	lbu	a5,619(a5) # 200032c1 <rfInfo+0x1>
    405e:	00d78563          	beq	a5,a3,4068 <RF_TxProcess+0xda>
    4062:	00f70363          	beq	a4,a5,4068 <RF_TxProcess+0xda>
    4066:	4589                	li	a1,2
    4068:	00098783          	lb	a5,0(s3)
    406c:	0007c763          	bltz	a5,407a <RF_TxProcess+0xec>
    4070:	4c1c                	lw	a5,24(s0)
    4072:	00f14703          	lbu	a4,15(sp)
    4076:	00e78023          	sb	a4,0(a5)
    407a:	0109a783          	lw	a5,16(s3)
    407e:	4c10                	lw	a2,24(s0)
    4080:	0ff5f593          	andi	a1,a1,255
    4084:	4509                	li	a0,2
    4086:	9782                	jalr	a5
    4088:	1ffff797          	auipc	a5,0x1ffff
    408c:	2447c783          	lbu	a5,580(a5) # 200032cc <rfInfo+0xc>
    4090:	8b89                	andi	a5,a5,2
    4092:	cb81                	beqz	a5,40a2 <RF_TxProcess+0x114>
    4094:	4585                	li	a1,1
    4096:	1ffff517          	auipc	a0,0x1ffff
    409a:	23a54503          	lbu	a0,570(a0) # 200032d0 <rfInfo+0x10>
    409e:	e31fe0ef          	jal	ra,2ece <tmos_set_event>
    40a2:	50b2                	lw	ra,44(sp)
    40a4:	5422                	lw	s0,40(sp)
    40a6:	5492                	lw	s1,36(sp)
    40a8:	5902                	lw	s2,32(sp)
    40aa:	49f2                	lw	s3,28(sp)
    40ac:	6145                	addi	sp,sp,48
    40ae:	8082                	ret
    40b0:	409c                	lw	a5,0(s1)
    40b2:	53fc                	lw	a5,100(a5)
    40b4:	f7fd                	bnez	a5,40a2 <RF_TxProcess+0x114>
    40b6:	1ffff797          	auipc	a5,0x1ffff
    40ba:	1c078723          	sb	zero,462(a5) # 20003284 <gBleIPPara+0x4>
    40be:	01092783          	lw	a5,16(s2)
    40c2:	4601                	li	a2,0
    40c4:	4581                	li	a1,0
    40c6:	4549                	li	a0,18
    40c8:	9782                	jalr	a5
    40ca:	bfe1                	j	40a2 <RF_TxProcess+0x114>
    40cc:	537c                	lw	a5,100(a4)
    40ce:	ee0796e3          	bnez	a5,3fba <RF_TxProcess+0x2c>
    40d2:	3d79                	jal	3f70 <rf_stop>
    40d4:	abaff0ef          	jal	ra,338e <TMOS_TempSample>
    40d8:	1ffff797          	auipc	a5,0x1ffff
    40dc:	1a078623          	sb	zero,428(a5) # 20003284 <gBleIPPara+0x4>
    40e0:	1ffff797          	auipc	a5,0x1ffff
    40e4:	1c078793          	addi	a5,a5,448 # 200032a0 <rfConfig>
    40e8:	4b9c                	lw	a5,16(a5)
    40ea:	4601                	li	a2,0
    40ec:	4581                	li	a1,0
    40ee:	4545                	li	a0,17
    40f0:	bfe1                	j	40c8 <RF_TxProcess+0x13a>
    40f2:	00344783          	lbu	a5,3(s0)
    40f6:	8b85                	andi	a5,a5,1
    40f8:	c39d                	beqz	a5,411e <RF_TxProcess+0x190>
    40fa:	3d9d                	jal	3f70 <rf_stop>
    40fc:	1ffff797          	auipc	a5,0x1ffff
    4100:	180783a3          	sb	zero,391(a5) # 20003283 <gBleIPPara+0x3>
    4104:	1ffff797          	auipc	a5,0x1ffff
    4108:	18078023          	sb	zero,384(a5) # 20003284 <gBleIPPara+0x4>
    410c:	1ffff797          	auipc	a5,0x1ffff
    4110:	19478793          	addi	a5,a5,404 # 200032a0 <rfConfig>
    4114:	4b9c                	lw	a5,16(a5)
    4116:	4601                	li	a2,0
    4118:	4581                	li	a1,0
    411a:	4505                	li	a0,1
    411c:	b775                	j	40c8 <RF_TxProcess+0x13a>
    411e:	537c                	lw	a5,100(a4)
    4120:	fbe9                	bnez	a5,40f2 <RF_TxProcess+0x164>
    4122:	35b9                	jal	3f70 <rf_stop>
    4124:	bf55                	j	40d8 <RF_TxProcess+0x14a>

00004126 <RF_Config>:
RF_Config():
    4126:	491c                	lw	a5,16(a0)
    4128:	10078c63          	beqz	a5,4240 <RF_Config+0x11a>
    412c:	1141                	addi	sp,sp,-16
    412e:	c422                	sw	s0,8(sp)
    4130:	c606                	sw	ra,12(sp)
    4132:	00054783          	lbu	a5,0(a0)
    4136:	842a                	mv	s0,a0
    4138:	0407f793          	andi	a5,a5,64
    413c:	c781                	beqz	a5,4144 <RF_Config+0x1e>
    413e:	415c                	lw	a5,4(a0)
    4140:	4509                	li	a0,2
    4142:	cbfd                	beqz	a5,4238 <RF_Config+0x112>
    4144:	02000613          	li	a2,32
    4148:	4581                	li	a1,0
    414a:	1ffff517          	auipc	a0,0x1ffff
    414e:	15650513          	addi	a0,a0,342 # 200032a0 <rfConfig>
    4152:	1fffc097          	auipc	ra,0x1fffc
    4156:	618080e7          	jalr	1560(ra) # 2000076a <tmos_memset>
    415a:	85a2                	mv	a1,s0
    415c:	02000613          	li	a2,32
    4160:	1ffff517          	auipc	a0,0x1ffff
    4164:	14050513          	addi	a0,a0,320 # 200032a0 <rfConfig>
    4168:	1fffc097          	auipc	ra,0x1fffc
    416c:	5ca080e7          	jalr	1482(ra) # 20000732 <tmos_memcpy>
    4170:	1ffff797          	auipc	a5,0x1ffff
    4174:	1497c783          	lbu	a5,329(a5) # 200032b9 <rfConfig+0x19>
    4178:	1ffff417          	auipc	s0,0x1ffff
    417c:	12840413          	addi	s0,s0,296 # 200032a0 <rfConfig>
    4180:	e799                	bnez	a5,418e <RF_Config+0x68>
    4182:	02800793          	li	a5,40
    4186:	1ffff717          	auipc	a4,0x1ffff
    418a:	12f709a3          	sb	a5,307(a4) # 200032b9 <rfConfig+0x19>
    418e:	1ffff797          	auipc	a5,0x1ffff
    4192:	12c7c783          	lbu	a5,300(a5) # 200032ba <rfConfig+0x1a>
    4196:	e791                	bnez	a5,41a2 <RF_Config+0x7c>
    4198:	47a1                	li	a5,8
    419a:	1ffff717          	auipc	a4,0x1ffff
    419e:	12f70023          	sb	a5,288(a4) # 200032ba <rfConfig+0x1a>
    41a2:	1ffff797          	auipc	a5,0x1ffff
    41a6:	1197c783          	lbu	a5,281(a5) # 200032bb <rfConfig+0x1b>
    41aa:	e791                	bnez	a5,41b6 <RF_Config+0x90>
    41ac:	47c5                	li	a5,17
    41ae:	1ffff717          	auipc	a4,0x1ffff
    41b2:	10f706a3          	sb	a5,269(a4) # 200032bb <rfConfig+0x1b>
    41b6:	1ffff797          	auipc	a5,0x1ffff
    41ba:	1067c783          	lbu	a5,262(a5) # 200032bc <rfConfig+0x1c>
    41be:	e791                	bnez	a5,41ca <RF_Config+0xa4>
    41c0:	57ed                	li	a5,-5
    41c2:	1ffff717          	auipc	a4,0x1ffff
    41c6:	0ef70d23          	sb	a5,250(a4) # 200032bc <rfConfig+0x1c>
    41ca:	1ffff797          	auipc	a5,0x1ffff
    41ce:	0f37c783          	lbu	a5,243(a5) # 200032bd <rfConfig+0x1d>
    41d2:	e791                	bnez	a5,41de <RF_Config+0xb8>
    41d4:	57ed                	li	a5,-5
    41d6:	1ffff717          	auipc	a4,0x1ffff
    41da:	0ef703a3          	sb	a5,231(a4) # 200032bd <rfConfig+0x1d>
    41de:	1ffff797          	auipc	a5,0x1ffff
    41e2:	0e278793          	addi	a5,a5,226 # 200032c0 <rfInfo>
    41e6:	43c8                	lw	a0,4(a5)
    41e8:	c509                	beqz	a0,41f2 <RF_Config+0xcc>
    41ea:	1fffd097          	auipc	ra,0x1fffd
    41ee:	400080e7          	jalr	1024(ra) # 200015ea <tmos_memory_free>
    41f2:	1ffff797          	auipc	a5,0x1ffff
    41f6:	0c07a923          	sw	zero,210(a5) # 200032c4 <rfInfo+0x4>
    41fa:	00044783          	lbu	a5,0(s0)
    41fe:	8b85                	andi	a5,a5,1
    4200:	c385                	beqz	a5,4220 <RF_Config+0xfa>
    4202:	1ffff517          	auipc	a0,0x1ffff
    4206:	0bb54503          	lbu	a0,187(a0) # 200032bd <rfConfig+0x1d>
    420a:	04900593          	li	a1,73
    420e:	0509                	addi	a0,a0,2
    4210:	1fffd097          	auipc	ra,0x1fffd
    4214:	308080e7          	jalr	776(ra) # 20001518 <tmos_memory_allocate>
    4218:	1ffff797          	auipc	a5,0x1ffff
    421c:	0aa7a623          	sw	a0,172(a5) # 200032c4 <rfInfo+0x4>
    4220:	00144783          	lbu	a5,1(s0)
    4224:	4501                	li	a0,0
    4226:	1ffff717          	auipc	a4,0x1ffff
    422a:	0af704a3          	sb	a5,169(a4) # 200032cf <rfInfo+0xf>
    422e:	441c                	lw	a5,8(s0)
    4230:	1ffff717          	auipc	a4,0x1ffff
    4234:	0af72223          	sw	a5,164(a4) # 200032d4 <rfInfo+0x14>
    4238:	40b2                	lw	ra,12(sp)
    423a:	4422                	lw	s0,8(sp)
    423c:	0141                	addi	sp,sp,16
    423e:	8082                	ret
    4240:	4505                	li	a0,1
    4242:	8082                	ret

00004244 <RF_Tx>:
RF_Tx():
    4244:	7179                	addi	sp,sp,-48
    4246:	d422                	sw	s0,40(sp)
    4248:	1ffff417          	auipc	s0,0x1ffff
    424c:	05840413          	addi	s0,s0,88 # 200032a0 <rfConfig>
    4250:	441c                	lw	a5,8(s0)
    4252:	d606                	sw	ra,44(sp)
    4254:	d226                	sw	s1,36(sp)
    4256:	d04a                	sw	s2,32(sp)
    4258:	ce4e                	sw	s3,28(sp)
    425a:	cc52                	sw	s4,24(sp)
    425c:	ca56                	sw	s5,20(sp)
    425e:	c85a                	sw	s6,16(sp)
    4260:	c65e                	sw	s7,12(sp)
    4262:	c462                	sw	s8,8(sp)
    4264:	c266                	sw	s9,4(sp)
    4266:	2a078063          	beqz	a5,4506 <RF_Tx+0x2c2>
    426a:	1ffffc17          	auipc	s8,0x1ffff
    426e:	00ec0c13          	addi	s8,s8,14 # 20003278 <gptrBBReg>
    4272:	000c2703          	lw	a4,0(s8)
    4276:	1ffffa17          	auipc	s4,0x1ffff
    427a:	06aa0a13          	addi	s4,s4,106 # 200032e0 <gptrRFENDReg>
    427e:	8ab6                	mv	s5,a3
    4280:	431c                	lw	a5,0(a4)
    4282:	1ffff997          	auipc	s3,0x1ffff
    4286:	01a98993          	addi	s3,s3,26 # 2000329c <gptrLLEReg>
    428a:	1ffff917          	auipc	s2,0x1ffff
    428e:	03690913          	addi	s2,s2,54 # 200032c0 <rfInfo>
    4292:	e7f7f793          	andi	a5,a5,-385
    4296:	0807e793          	ori	a5,a5,128
    429a:	c31c                	sw	a5,0(a4)
    429c:	000a2683          	lw	a3,0(s4)
    42a0:	ffce0737          	lui	a4,0xffce0
    42a4:	177d                	addi	a4,a4,-1
    42a6:	469c                	lw	a5,8(a3)
    42a8:	8baa                	mv	s7,a0
    42aa:	84ae                	mv	s1,a1
    42ac:	8ff9                	and	a5,a5,a4
    42ae:	c69c                	sw	a5,8(a3)
    42b0:	0009a783          	lw	a5,0(s3)
    42b4:	08000713          	li	a4,128
    42b8:	8b32                	mv	s6,a2
    42ba:	cbb8                	sw	a4,80(a5)
    42bc:	00c94783          	lbu	a5,12(s2)
    42c0:	4cbd                	li	s9,15
    42c2:	8b89                	andi	a5,a5,2
    42c4:	1e079063          	bnez	a5,44a4 <RF_Tx+0x260>
    42c8:	000c2703          	lw	a4,0(s8)
    42cc:	575c                	lw	a5,44(a4)
    42ce:	9bf1                	andi	a5,a5,-4
    42d0:	0017e793          	ori	a5,a5,1
    42d4:	d75c                	sw	a5,44(a4)
    42d6:	00c94783          	lbu	a5,12(s2)
    42da:	8b89                	andi	a5,a5,2
    42dc:	1e078363          	beqz	a5,44c2 <RF_Tx+0x27e>
    42e0:	4581                	li	a1,0
    42e2:	1ffff517          	auipc	a0,0x1ffff
    42e6:	fbf54503          	lbu	a0,-65(a0) # 200032a1 <rfConfig+0x1>
    42ea:	36b9                	jal	3e38 <RF_DevSetChannel>
    42ec:	000c2783          	lw	a5,0(s8)
    42f0:	00330637          	lui	a2,0x330
    42f4:	4398                	lw	a4,0(a5)
    42f6:	e7f77713          	andi	a4,a4,-385
    42fa:	c398                	sw	a4,0(a5)
    42fc:	4398                	lw	a4,0(a5)
    42fe:	e7f77713          	andi	a4,a4,-385
    4302:	10076713          	ori	a4,a4,256
    4306:	c398                	sw	a4,0(a5)
    4308:	000a2683          	lw	a3,0(s4)
    430c:	4698                	lw	a4,8(a3)
    430e:	8f51                	or	a4,a4,a2
    4310:	c698                	sw	a4,8(a3)
    4312:	0009a703          	lw	a4,0(s3)
    4316:	0da00693          	li	a3,218
    431a:	cb34                	sw	a3,80(a4)
    431c:	1ffff697          	auipc	a3,0x1ffff
    4320:	f846c683          	lbu	a3,-124(a3) # 200032a0 <rfConfig>
    4324:	0406f613          	andi	a2,a3,64
    4328:	1a060663          	beqz	a2,44d4 <RF_Tx+0x290>
    432c:	404c                	lw	a1,4(s0)
    432e:	ffdb9637          	lui	a2,0xffdb9
    4332:	81060613          	addi	a2,a2,-2032 # ffdb8810 <_eusrstack+0xdfdb0810>
    4336:	95b2                	add	a1,a1,a2
    4338:	6661                	lui	a2,0x18
    433a:	6a060613          	addi	a2,a2,1696 # 186a0 <_data_lma+0x10db4>
    433e:	18b67b63          	bgeu	a2,a1,44d4 <RF_Tx+0x290>
    4342:	0c800613          	li	a2,200
    4346:	d370                	sw	a2,100(a4)
    4348:	4410                	lw	a2,8(s0)
    434a:	8a85                	andi	a3,a3,1
    434c:	c790                	sw	a2,8(a5)
    434e:	4450                	lw	a2,12(s0)
    4350:	c3d0                	sw	a2,4(a5)
    4352:	c354                	sw	a3,4(a4)
    4354:	00e94783          	lbu	a5,14(s2)
    4358:	0027e793          	ori	a5,a5,2
    435c:	1ffff717          	auipc	a4,0x1ffff
    4360:	f6f70923          	sb	a5,-142(a4) # 200032ce <rfInfo+0xe>
    4364:	1ffff797          	auipc	a5,0x1ffff
    4368:	f5578ea3          	sb	s5,-163(a5) # 200032c1 <rfInfo+0x1>
    436c:	1ffff797          	auipc	a5,0x1ffff
    4370:	f5678a23          	sb	s6,-172(a5) # 200032c0 <rfInfo>
    4374:	1ffffa97          	auipc	s5,0x1ffff
    4378:	f0ca8a93          	addi	s5,s5,-244 # 20003280 <gBleIPPara>
    437c:	014aa503          	lw	a0,20(s5)
    4380:	140b8d63          	beqz	s7,44da <RF_Tx+0x296>
    4384:	01650023          	sb	s6,0(a0)
    4388:	009500a3          	sb	s1,1(a0)
    438c:	8626                	mv	a2,s1
    438e:	85de                	mv	a1,s7
    4390:	0509                	addi	a0,a0,2
    4392:	1fffc097          	auipc	ra,0x1fffc
    4396:	3a0080e7          	jalr	928(ra) # 20000732 <tmos_memcpy>
    439a:	0009a783          	lw	a5,0(s3)
    439e:	014aa703          	lw	a4,20(s5)
    43a2:	4581                	li	a1,0
    43a4:	00000517          	auipc	a0,0x0
    43a8:	bea50513          	addi	a0,a0,-1046 # 3f8e <RF_TxProcess>
    43ac:	dbb8                	sw	a4,112(a5)
    43ae:	1ffff797          	auipc	a5,0x1ffff
    43b2:	ec078aa3          	sb	zero,-299(a5) # 20003283 <gBleIPPara+0x3>
    43b6:	1ffff797          	auipc	a5,0x1ffff
    43ba:	ec078723          	sb	zero,-306(a5) # 20003284 <gBleIPPara+0x4>
    43be:	cbdfe0ef          	jal	ra,307a <TMOS_ProcessRegister>
    43c2:	f84ff0ef          	jal	ra,3b46 <ll_multi_states_check>
    43c6:	478d                	li	a5,3
    43c8:	1ffff717          	auipc	a4,0x1ffff
    43cc:	eaf70fa3          	sb	a5,-321(a4) # 20003287 <gBleIPPara+0x7>
    43d0:	00c94783          	lbu	a5,12(s2)
    43d4:	8b89                	andi	a5,a5,2
    43d6:	c7a9                	beqz	a5,4420 <RF_Tx+0x1dc>
    43d8:	0009a703          	lw	a4,0(s3)
    43dc:	537c                	lw	a5,100(a4)
    43de:	fffd                	bnez	a5,43dc <RF_Tx+0x198>
    43e0:	1ffff797          	auipc	a5,0x1ffff
    43e4:	e9078793          	addi	a5,a5,-368 # 20003270 <fnGetClockCBs>
    43e8:	439c                	lw	a5,0(a5)
    43ea:	9782                	jalr	a5
    43ec:	1ffff717          	auipc	a4,0x1ffff
    43f0:	e4070713          	addi	a4,a4,-448 # 2000322c <ble>
    43f4:	01670703          	lb	a4,22(a4)
    43f8:	00892783          	lw	a5,8(s2)
    43fc:	0e075263          	bgez	a4,44e0 <RF_Tx+0x29c>
    4400:	8d1d                	sub	a0,a0,a5
    4402:	00044703          	lbu	a4,0(s0)
    4406:	810d                	srli	a0,a0,0x3
    4408:	014aa783          	lw	a5,20(s5)
    440c:	8b21                	andi	a4,a4,8
    440e:	c36d                	beqz	a4,44f0 <RF_Tx+0x2ac>
    4410:	00800737          	lui	a4,0x800
    4414:	0562                	slli	a0,a0,0x18
    4416:	2ff70713          	addi	a4,a4,767 # 8002ff <_data_lma+0x7f8a13>
    441a:	8d59                	or	a0,a0,a4
    441c:	c388                	sw	a0,0(a5)
    441e:	4489                	li	s1,2
    4420:	1ffff597          	auipc	a1,0x1ffff
    4424:	e805c583          	lbu	a1,-384(a1) # 200032a0 <rfConfig>
    4428:	8591                	srai	a1,a1,0x4
    442a:	4501                	li	a0,0
    442c:	8626                	mv	a2,s1
    442e:	898d                	andi	a1,a1,3
    4430:	1fffd097          	auipc	ra,0x1fffd
    4434:	9ee080e7          	jalr	-1554(ra) # 20000e1e <ll_tx_wait_finish>
    4438:	000a2703          	lw	a4,0(s4)
    443c:	4501                	li	a0,0
    443e:	575c                	lw	a5,44(a4)
    4440:	8385                	srli	a5,a5,0x1
    4442:	8b85                	andi	a5,a5,1
    4444:	c3b9                	beqz	a5,448a <RF_Tx+0x246>
    4446:	405c                	lw	a5,4(s0)
    4448:	65c1                	lui	a1,0x10
    444a:	a0058593          	addi	a1,a1,-1536 # fa00 <_data_lma+0x8114>
    444e:	c1878793          	addi	a5,a5,-1000
    4452:	02b7d6b3          	divu	a3,a5,a1
    4456:	fe100837          	lui	a6,0xfe100
    445a:	187d                	addi	a6,a6,-1
    445c:	02b7f7b3          	remu	a5,a5,a1
    4460:	8afd                	andi	a3,a3,31
    4462:	01469613          	slli	a2,a3,0x14
    4466:	4374                	lw	a3,68(a4)
    4468:	0106f6b3          	and	a3,a3,a6
    446c:	8ed1                	or	a3,a3,a2
    446e:	c374                	sw	a3,68(a4)
    4470:	0fa00693          	li	a3,250
    4474:	fffc0637          	lui	a2,0xfffc0
    4478:	07aa                	slli	a5,a5,0xa
    447a:	02d7d7b3          	divu	a5,a5,a3
    447e:	4374                	lw	a3,68(a4)
    4480:	8ef1                	and	a3,a3,a2
    4482:	07ba                	slli	a5,a5,0xe
    4484:	83b9                	srli	a5,a5,0xe
    4486:	8fd5                	or	a5,a5,a3
    4488:	c37c                	sw	a5,68(a4)
    448a:	50b2                	lw	ra,44(sp)
    448c:	5422                	lw	s0,40(sp)
    448e:	5492                	lw	s1,36(sp)
    4490:	5902                	lw	s2,32(sp)
    4492:	49f2                	lw	s3,28(sp)
    4494:	4a62                	lw	s4,24(sp)
    4496:	4ad2                	lw	s5,20(sp)
    4498:	4b42                	lw	s6,16(sp)
    449a:	4bb2                	lw	s7,12(sp)
    449c:	4c22                	lw	s8,8(sp)
    449e:	4c92                	lw	s9,4(sp)
    44a0:	6145                	addi	sp,sp,48
    44a2:	8082                	ret
    44a4:	1fffd097          	auipc	ra,0x1fffd
    44a8:	ef4080e7          	jalr	-268(ra) # 20001398 <RF_FrequencyHoppingGet>
    44ac:	feacfce3          	bgeu	s9,a0,44a4 <RF_Tx+0x260>
    44b0:	1ffff797          	auipc	a5,0x1ffff
    44b4:	e0a7c783          	lbu	a5,-502(a5) # 200032ba <rfConfig+0x1a>
    44b8:	0796                	slli	a5,a5,0x5
    44ba:	17c1                	addi	a5,a5,-16
    44bc:	fea7e4e3          	bltu	a5,a0,44a4 <RF_Tx+0x260>
    44c0:	b521                	j	42c8 <RF_Tx+0x84>
    44c2:	00044783          	lbu	a5,0(s0)
    44c6:	0407f793          	andi	a5,a5,64
    44ca:	e0078be3          	beqz	a5,42e0 <RF_Tx+0x9c>
    44ce:	4589                	li	a1,2
    44d0:	4048                	lw	a0,4(s0)
    44d2:	bd21                	j	42ea <RF_Tx+0xa6>
    44d4:	0a000613          	li	a2,160
    44d8:	b5bd                	j	4346 <RF_Tx+0x102>
    44da:	01652023          	sw	s6,0(a0)
    44de:	bd75                	j	439a <RF_Tx+0x156>
    44e0:	f2f570e3          	bgeu	a0,a5,4400 <RF_Tx+0x1bc>
    44e4:	a8c00737          	lui	a4,0xa8c00
    44e8:	40f707b3          	sub	a5,a4,a5
    44ec:	953e                	add	a0,a0,a5
    44ee:	bf11                	j	4402 <RF_Tx+0x1be>
    44f0:	0489                	addi	s1,s1,2
    44f2:	0ff4f493          	andi	s1,s1,255
    44f6:	009780a3          	sb	s1,1(a5)
    44fa:	97a6                	add	a5,a5,s1
    44fc:	00078023          	sb	zero,0(a5)
    4500:	00a780a3          	sb	a0,1(a5)
    4504:	bf31                	j	4420 <RF_Tx+0x1dc>
    4506:	4505                	li	a0,1
    4508:	b749                	j	448a <RF_Tx+0x246>

0000450a <RF_Rx>:
RF_Rx():
    450a:	1ffff797          	auipc	a5,0x1ffff
    450e:	dee78793          	addi	a5,a5,-530 # 200032f8 <gBleLlPara>
    4512:	0987a783          	lw	a5,152(a5)
    4516:	cf91                	beqz	a5,4532 <RF_Rx+0x28>
    4518:	4505                	li	a0,1
    451a:	8082                	ret
    451c:	4505                	li	a0,1
    451e:	40f2                	lw	ra,28(sp)
    4520:	4462                	lw	s0,24(sp)
    4522:	44d2                	lw	s1,20(sp)
    4524:	4942                	lw	s2,16(sp)
    4526:	49b2                	lw	s3,12(sp)
    4528:	4a22                	lw	s4,8(sp)
    452a:	4a92                	lw	s5,4(sp)
    452c:	4b02                	lw	s6,0(sp)
    452e:	6105                	addi	sp,sp,32
    4530:	8082                	ret
    4532:	1101                	addi	sp,sp,-32
    4534:	ca26                	sw	s1,20(sp)
    4536:	1ffff497          	auipc	s1,0x1ffff
    453a:	d6a48493          	addi	s1,s1,-662 # 200032a0 <rfConfig>
    453e:	449c                	lw	a5,8(s1)
    4540:	ce06                	sw	ra,28(sp)
    4542:	cc22                	sw	s0,24(sp)
    4544:	c84a                	sw	s2,16(sp)
    4546:	c64e                	sw	s3,12(sp)
    4548:	c452                	sw	s4,8(sp)
    454a:	c256                	sw	s5,4(sp)
    454c:	c05a                	sw	s6,0(sp)
    454e:	d7f9                	beqz	a5,451c <RF_Rx+0x12>
    4550:	1ffff917          	auipc	s2,0x1ffff
    4554:	d4c90913          	addi	s2,s2,-692 # 2000329c <gptrLLEReg>
    4558:	00092783          	lw	a5,0(s2)
    455c:	4398                	lw	a4,0(a5)
    455e:	8b0d                	andi	a4,a4,3
    4560:	c305                	beqz	a4,4580 <RF_Rx+0x76>
    4562:	4bb8                	lw	a4,80(a5)
    4564:	9b61                	andi	a4,a4,-8
    4566:	cbb8                	sw	a4,80(a5)
    4568:	4398                	lw	a4,0(a5)
    456a:	00876713          	ori	a4,a4,8
    456e:	c398                	sw	a4,0(a5)
    4570:	439c                	lw	a5,0(a5)
    4572:	838d                	srli	a5,a5,0x3
    4574:	8b85                	andi	a5,a5,1
    4576:	c789                	beqz	a5,4580 <RF_Rx+0x76>
    4578:	0001                	nop
    457a:	0001                	nop
    457c:	0001                	nop
    457e:	0001                	nop
    4580:	1ffff417          	auipc	s0,0x1ffff
    4584:	d4040413          	addi	s0,s0,-704 # 200032c0 <rfInfo>
    4588:	00c44783          	lbu	a5,12(s0)
    458c:	8ab6                	mv	s5,a3
    458e:	8b32                	mv	s6,a2
    4590:	8b91                	andi	a5,a5,4
    4592:	89ae                	mv	s3,a1
    4594:	8a2a                	mv	s4,a0
    4596:	eb89                	bnez	a5,45a8 <RF_Rx+0x9e>
    4598:	1ffff597          	auipc	a1,0x1ffff
    459c:	d085c583          	lbu	a1,-760(a1) # 200032a0 <rfConfig>
    45a0:	0405f793          	andi	a5,a1,64
    45a4:	14079c63          	bnez	a5,46fc <RF_Rx+0x1f2>
    45a8:	4581                	li	a1,0
    45aa:	1ffff517          	auipc	a0,0x1ffff
    45ae:	cf754503          	lbu	a0,-777(a0) # 200032a1 <rfConfig+0x1>
    45b2:	887ff0ef          	jal	ra,3e38 <RF_DevSetChannel>
    45b6:	1ffff517          	auipc	a0,0x1ffff
    45ba:	cea54503          	lbu	a0,-790(a0) # 200032a0 <rfConfig>
    45be:	8511                	srai	a0,a0,0x4
    45c0:	4601                	li	a2,0
    45c2:	1ffff597          	auipc	a1,0x1ffff
    45c6:	cfa5c583          	lbu	a1,-774(a1) # 200032bc <rfConfig+0x1c>
    45ca:	890d                	andi	a0,a0,3
    45cc:	c7aff0ef          	jal	ra,3a46 <BLE_SetPHYRxMode>
    45d0:	1ffff717          	auipc	a4,0x1ffff
    45d4:	ca870713          	addi	a4,a4,-856 # 20003278 <gptrBBReg>
    45d8:	4494                	lw	a3,8(s1)
    45da:	431c                	lw	a5,0(a4)
    45dc:	c794                	sw	a3,8(a5)
    45de:	44d4                	lw	a3,12(s1)
    45e0:	c3d4                	sw	a3,4(a5)
    45e2:	0004c783          	lbu	a5,0(s1)
    45e6:	00092683          	lw	a3,0(s2)
    45ea:	84ba                	mv	s1,a4
    45ec:	8b85                	andi	a5,a5,1
    45ee:	c2dc                	sw	a5,4(a3)
    45f0:	1ffff797          	auipc	a5,0x1ffff
    45f4:	cd6789a3          	sb	s6,-813(a5) # 200032c3 <rfInfo+0x3>
    45f8:	1ffff797          	auipc	a5,0x1ffff
    45fc:	cd578523          	sb	s5,-822(a5) # 200032c2 <rfInfo+0x2>
    4600:	42dc                	lw	a5,4(a3)
    4602:	8b85                	andi	a5,a5,1
    4604:	cfb1                	beqz	a5,4660 <RF_Rx+0x156>
    4606:	405c                	lw	a5,4(s0)
    4608:	e385                	bnez	a5,4628 <RF_Rx+0x11e>
    460a:	1ffff517          	auipc	a0,0x1ffff
    460e:	cb354503          	lbu	a0,-845(a0) # 200032bd <rfConfig+0x1d>
    4612:	04900593          	li	a1,73
    4616:	0509                	addi	a0,a0,2
    4618:	1fffd097          	auipc	ra,0x1fffd
    461c:	f00080e7          	jalr	-256(ra) # 20001518 <tmos_memory_allocate>
    4620:	1ffff797          	auipc	a5,0x1ffff
    4624:	caa7a223          	sw	a0,-860(a5) # 200032c4 <rfInfo+0x4>
    4628:	405c                	lw	a5,4(s0)
    462a:	ee0789e3          	beqz	a5,451c <RF_Rx+0x12>
    462e:	1ffff717          	auipc	a4,0x1ffff
    4632:	c9474703          	lbu	a4,-876(a4) # 200032c2 <rfInfo+0x2>
    4636:	00e78023          	sb	a4,0(a5)
    463a:	405c                	lw	a5,4(s0)
    463c:	0c0a0663          	beqz	s4,4708 <RF_Rx+0x1fe>
    4640:	0c098463          	beqz	s3,4708 <RF_Rx+0x1fe>
    4644:	013780a3          	sb	s3,1(a5)
    4648:	4048                	lw	a0,4(s0)
    464a:	864e                	mv	a2,s3
    464c:	85d2                	mv	a1,s4
    464e:	0509                	addi	a0,a0,2
    4650:	1fffc097          	auipc	ra,0x1fffc
    4654:	0e2080e7          	jalr	226(ra) # 20000732 <tmos_memcpy>
    4658:	00092783          	lw	a5,0(s2)
    465c:	4058                	lw	a4,4(s0)
    465e:	dbb8                	sw	a4,112(a5)
    4660:	ce6ff0ef          	jal	ra,3b46 <ll_multi_states_check>
    4664:	00e44783          	lbu	a5,14(s0)
    4668:	0047e793          	ori	a5,a5,4
    466c:	1ffff717          	auipc	a4,0x1ffff
    4670:	c6f70123          	sb	a5,-926(a4) # 200032ce <rfInfo+0xe>
    4674:	04000793          	li	a5,64
    4678:	1ffff717          	auipc	a4,0x1ffff
    467c:	c0f70423          	sb	a5,-1016(a4) # 20003280 <gBleIPPara>
    4680:	1ffff797          	auipc	a5,0x1ffff
    4684:	c0078223          	sb	zero,-1020(a5) # 20003284 <gBleIPPara+0x4>
    4688:	479d                	li	a5,7
    468a:	1ffff717          	auipc	a4,0x1ffff
    468e:	bef70ea3          	sb	a5,-1027(a4) # 20003287 <gBleIPPara+0x7>
    4692:	1ffff797          	auipc	a5,0x1ffff
    4696:	b9a78793          	addi	a5,a5,-1126 # 2000322c <ble>
    469a:	579c                	lw	a5,40(a5)
    469c:	cb91                	beqz	a5,46b0 <RF_Rx+0x1a6>
    469e:	64000613          	li	a2,1600
    46a2:	45c1                	li	a1,16
    46a4:	1ffff517          	auipc	a0,0x1ffff
    46a8:	c2c54503          	lbu	a0,-980(a0) # 200032d0 <rfInfo+0x10>
    46ac:	883fe0ef          	jal	ra,2f2e <tmos_start_task>
    46b0:	1ffff797          	auipc	a5,0x1ffff
    46b4:	bc078aa3          	sb	zero,-1067(a5) # 20003285 <gBleIPPara+0x5>
    46b8:	00092683          	lw	a3,0(s2)
    46bc:	1ffff797          	auipc	a5,0x1ffff
    46c0:	bc0782a3          	sb	zero,-1083(a5) # 20003281 <gBleIPPara+0x1>
    46c4:	4098                	lw	a4,0(s1)
    46c6:	4785                	li	a5,1
    46c8:	c29c                	sw	a5,0(a3)
    46ca:	431c                	lw	a5,0(a4)
    46cc:	00330637          	lui	a2,0x330
    46d0:	4501                	li	a0,0
    46d2:	e7f7f793          	andi	a5,a5,-385
    46d6:	c31c                	sw	a5,0(a4)
    46d8:	431c                	lw	a5,0(a4)
    46da:	e7f7f793          	andi	a5,a5,-385
    46de:	1007e793          	ori	a5,a5,256
    46e2:	c31c                	sw	a5,0(a4)
    46e4:	1ffff797          	auipc	a5,0x1ffff
    46e8:	bfc78793          	addi	a5,a5,-1028 # 200032e0 <gptrRFENDReg>
    46ec:	4398                	lw	a4,0(a5)
    46ee:	471c                	lw	a5,8(a4)
    46f0:	8fd1                	or	a5,a5,a2
    46f2:	c71c                	sw	a5,8(a4)
    46f4:	0d900793          	li	a5,217
    46f8:	cabc                	sw	a5,80(a3)
    46fa:	b515                	j	451e <RF_Rx+0x14>
    46fc:	0305f593          	andi	a1,a1,48
    4700:	0015e593          	ori	a1,a1,1
    4704:	40c8                	lw	a0,4(s1)
    4706:	b575                	j	45b2 <RF_Rx+0xa8>
    4708:	000780a3          	sb	zero,1(a5)
    470c:	b7b1                	j	4658 <RF_Rx+0x14e>

0000470e <rfRxProcess>:
rfRxProcess():
    470e:	7179                	addi	sp,sp,-48
    4710:	d226                	sw	s1,36(sp)
    4712:	1ffff497          	auipc	s1,0x1ffff
    4716:	b8e48493          	addi	s1,s1,-1138 # 200032a0 <rfConfig>
    471a:	0004c783          	lbu	a5,0(s1)
    471e:	d422                	sw	s0,40(sp)
    4720:	d606                	sw	ra,44(sp)
    4722:	d04a                	sw	s2,32(sp)
    4724:	ce4e                	sw	s3,28(sp)
    4726:	cc52                	sw	s4,24(sp)
    4728:	8b85                	andi	a5,a5,1
    472a:	1ffff417          	auipc	s0,0x1ffff
    472e:	b5640413          	addi	s0,s0,-1194 # 20003280 <gBleIPPara>
    4732:	30078463          	beqz	a5,4a3a <rfRxProcess+0x32c>
    4736:	00044783          	lbu	a5,0(s0)
    473a:	8b85                	andi	a5,a5,1
    473c:	2c078663          	beqz	a5,4a08 <rfRxProcess+0x2fa>
    4740:	1ffff797          	auipc	a5,0x1ffff
    4744:	ba078793          	addi	a5,a5,-1120 # 200032e0 <gptrRFENDReg>
    4748:	4398                	lw	a4,0(a5)
    474a:	000107a3          	sb	zero,15(sp)
    474e:	01842903          	lw	s2,24(s0)
    4752:	575c                	lw	a5,44(a4)
    4754:	8385                	srli	a5,a5,0x1
    4756:	8b85                	andi	a5,a5,1
    4758:	c3a1                	beqz	a5,4798 <rfRxProcess+0x8a>
    475a:	40dc                	lw	a5,4(s1)
    475c:	65c1                	lui	a1,0x10
    475e:	a0058593          	addi	a1,a1,-1536 # fa00 <_data_lma+0x8114>
    4762:	02b7d6b3          	divu	a3,a5,a1
    4766:	fe100537          	lui	a0,0xfe100
    476a:	157d                	addi	a0,a0,-1
    476c:	02b7f7b3          	remu	a5,a5,a1
    4770:	8afd                	andi	a3,a3,31
    4772:	01469613          	slli	a2,a3,0x14
    4776:	4374                	lw	a3,68(a4)
    4778:	8ee9                	and	a3,a3,a0
    477a:	8ed1                	or	a3,a3,a2
    477c:	c374                	sw	a3,68(a4)
    477e:	0fa00693          	li	a3,250
    4782:	fffc0637          	lui	a2,0xfffc0
    4786:	07aa                	slli	a5,a5,0xa
    4788:	02d7d7b3          	divu	a5,a5,a3
    478c:	4374                	lw	a3,68(a4)
    478e:	8ef1                	and	a3,a3,a2
    4790:	07ba                	slli	a5,a5,0xe
    4792:	83b9                	srli	a5,a5,0xe
    4794:	8fd5                	or	a5,a5,a3
    4796:	c37c                	sw	a5,68(a4)
    4798:	4681                	li	a3,0
    479a:	00f10613          	addi	a2,sp,15
    479e:	4581                	li	a1,0
    47a0:	854a                	mv	a0,s2
    47a2:	1ffff797          	auipc	a5,0x1ffff
    47a6:	ac078f23          	sb	zero,-1314(a5) # 20003280 <gBleIPPara>
    47aa:	1fffc097          	auipc	ra,0x1fffc
    47ae:	5aa080e7          	jalr	1450(ra) # 20000d54 <ble_ll_chkcrc>
    47b2:	01851a13          	slli	s4,a0,0x18
    47b6:	418a5a13          	srai	s4,s4,0x18
    47ba:	020a1263          	bnez	s4,47de <rfRxProcess+0xd0>
    47be:	1ffff797          	auipc	a5,0x1ffff
    47c2:	b057c783          	lbu	a5,-1275(a5) # 200032c3 <rfInfo+0x3>
    47c6:	0ff00693          	li	a3,255
    47ca:	00d78a63          	beq	a5,a3,47de <rfRxProcess+0xd0>
    47ce:	4c18                	lw	a4,24(s0)
    47d0:	00074703          	lbu	a4,0(a4)
    47d4:	00d70563          	beq	a4,a3,47de <rfRxProcess+0xd0>
    47d8:	00f70363          	beq	a4,a5,47de <rfRxProcess+0xd0>
    47dc:	4a09                	li	s4,2
    47de:	00048783          	lb	a5,0(s1)
    47e2:	1ffff997          	auipc	s3,0x1ffff
    47e6:	ade98993          	addi	s3,s3,-1314 # 200032c0 <rfInfo>
    47ea:	1207ca63          	bltz	a5,491e <rfRxProcess+0x210>
    47ee:	120a1a63          	bnez	s4,4922 <rfRxProcess+0x214>
    47f2:	00f14783          	lbu	a5,15(sp)
    47f6:	00f90023          	sb	a5,0(s2)
    47fa:	00c9c783          	lbu	a5,12(s3)
    47fe:	8b91                	andi	a5,a5,4
    4800:	c795                	beqz	a5,482c <rfRxProcess+0x11e>
    4802:	00194783          	lbu	a5,1(s2)
    4806:	97ca                	add	a5,a5,s2
    4808:	0007c703          	lbu	a4,0(a5)
    480c:	08000793          	li	a5,128
    4810:	00f71e63          	bne	a4,a5,482c <rfRxProcess+0x11e>
    4814:	485c                	lw	a5,20(s0)
    4816:	0ff00713          	li	a4,255
    481a:	c398                	sw	a4,0(a5)
    481c:	0004c783          	lbu	a5,0(s1)
    4820:	0087e793          	ori	a5,a5,8
    4824:	1ffff717          	auipc	a4,0x1ffff
    4828:	a6f70e23          	sb	a5,-1412(a4) # 200032a0 <rfConfig>
    482c:	1ffff797          	auipc	a5,0x1ffff
    4830:	a4c78793          	addi	a5,a5,-1460 # 20003278 <gptrBBReg>
    4834:	439c                	lw	a5,0(a5)
    4836:	008006b7          	lui	a3,0x800
    483a:	4398                	lw	a4,0(a5)
    483c:	8f55                	or	a4,a4,a3
    483e:	c398                	sw	a4,0(a5)
    4840:	57d8                	lw	a4,44(a5)
    4842:	9b71                	andi	a4,a4,-4
    4844:	d7d8                	sw	a4,44(a5)
    4846:	0049a783          	lw	a5,4(s3)
    484a:	1ffff517          	auipc	a0,0x1ffff
    484e:	a5654503          	lbu	a0,-1450(a0) # 200032a0 <rfConfig>
    4852:	8511                	srai	a0,a0,0x4
    4854:	0017c583          	lbu	a1,1(a5)
    4858:	890d                	andi	a0,a0,3
    485a:	8c0ff0ef          	jal	ra,391a <BLE_SetPHYTxMode>
    485e:	1fffc097          	auipc	ra,0x1fffc
    4862:	4b8080e7          	jalr	1208(ra) # 20000d16 <ll_rx_wait_finish>
    4866:	bb8ff0ef          	jal	ra,3c1e <ble_ll_hw_api_shut>
    486a:	1ffff697          	auipc	a3,0x1ffff
    486e:	a626c683          	lbu	a3,-1438(a3) # 200032cc <rfInfo+0xc>
    4872:	0046f793          	andi	a5,a3,4
    4876:	14078b63          	beqz	a5,49cc <rfRxProcess+0x2be>
    487a:	1ffff717          	auipc	a4,0x1ffff
    487e:	9b270713          	addi	a4,a4,-1614 # 2000322c <ble>
    4882:	01670603          	lb	a2,22(a4)
    4886:	481c                	lw	a5,16(s0)
    4888:	0c065d63          	bgez	a2,4962 <rfRxProcess+0x254>
    488c:	17f1                	addi	a5,a5,-4
    488e:	1ffff717          	auipc	a4,0x1ffff
    4892:	a0f72123          	sw	a5,-1534(a4) # 20003290 <gBleIPPara+0x10>
    4896:	481c                	lw	a5,16(s0)
    4898:	0089a703          	lw	a4,8(s3)
    489c:	0c065b63          	bgez	a2,4972 <rfRxProcess+0x264>
    48a0:	40e78733          	sub	a4,a5,a4
    48a4:	00194783          	lbu	a5,1(s2)
    48a8:	01869593          	slli	a1,a3,0x18
    48ac:	85e1                	srai	a1,a1,0x18
    48ae:	97ca                	add	a5,a5,s2
    48b0:	0017c783          	lbu	a5,1(a5)
    48b4:	078e                	slli	a5,a5,0x3
    48b6:	0c05dd63          	bgez	a1,4990 <rfRxProcess+0x282>
    48ba:	0ce7f263          	bgeu	a5,a4,497e <rfRxProcess+0x270>
    48be:	8f1d                	sub	a4,a4,a5
    48c0:	02000693          	li	a3,32
    48c4:	00e6eb63          	bltu	a3,a4,48da <rfRxProcess+0x1cc>
    48c8:	4818                	lw	a4,16(s0)
    48ca:	0a065d63          	bgez	a2,4984 <rfRxProcess+0x276>
    48ce:	40f707b3          	sub	a5,a4,a5
    48d2:	1ffff717          	auipc	a4,0x1ffff
    48d6:	9ef72b23          	sw	a5,-1546(a4) # 200032c8 <rfInfo+0x8>
    48da:	4589                	li	a1,2
    48dc:	1ffff517          	auipc	a0,0x1ffff
    48e0:	9f454503          	lbu	a0,-1548(a0) # 200032d0 <rfInfo+0x10>
    48e4:	deafe0ef          	jal	ra,2ece <tmos_set_event>
    48e8:	0004c783          	lbu	a5,0(s1)
    48ec:	8ba1                	andi	a5,a5,8
    48ee:	cbf1                	beqz	a5,49c2 <rfRxProcess+0x2b4>
    48f0:	0049a503          	lw	a0,4(s3)
    48f4:	1ffff617          	auipc	a2,0x1ffff
    48f8:	9cf64603          	lbu	a2,-1585(a2) # 200032c3 <rfInfo+0x3>
    48fc:	1ffff697          	auipc	a3,0x1ffff
    4900:	9c66c683          	lbu	a3,-1594(a3) # 200032c2 <rfInfo+0x2>
    4904:	cd45                	beqz	a0,49bc <rfRxProcess+0x2ae>
    4906:	00154583          	lbu	a1,1(a0)
    490a:	0509                	addi	a0,a0,2
    490c:	3efd                	jal	450a <RF_Rx>
    490e:	0004c783          	lbu	a5,0(s1)
    4912:	9bdd                	andi	a5,a5,-9
    4914:	1ffff717          	auipc	a4,0x1ffff
    4918:	98f70623          	sb	a5,-1652(a4) # 200032a0 <rfConfig>
    491c:	a81d                	j	4952 <rfRxProcess+0x244>
    491e:	ec0a0ee3          	beqz	s4,47fa <rfRxProcess+0xec>
    4922:	afcff0ef          	jal	ra,3c1e <ble_ll_hw_api_shut>
    4926:	4c10                	lw	a2,24(s0)
    4928:	489c                	lw	a5,16(s1)
    492a:	450d                	li	a0,3
    492c:	0ffa7593          	andi	a1,s4,255
    4930:	9782                	jalr	a5
    4932:	0049a503          	lw	a0,4(s3)
    4936:	1ffff617          	auipc	a2,0x1ffff
    493a:	98d64603          	lbu	a2,-1651(a2) # 200032c3 <rfInfo+0x3>
    493e:	1ffff697          	auipc	a3,0x1ffff
    4942:	9846c683          	lbu	a3,-1660(a3) # 200032c2 <rfInfo+0x2>
    4946:	26050263          	beqz	a0,4baa <rfRxProcess+0x49c>
    494a:	00154583          	lbu	a1,1(a0)
    494e:	0509                	addi	a0,a0,2
    4950:	3e6d                	jal	450a <RF_Rx>
    4952:	50b2                	lw	ra,44(sp)
    4954:	5422                	lw	s0,40(sp)
    4956:	5492                	lw	s1,36(sp)
    4958:	5902                	lw	s2,32(sp)
    495a:	49f2                	lw	s3,28(sp)
    495c:	4a62                	lw	s4,24(sp)
    495e:	6145                	addi	sp,sp,48
    4960:	8082                	ret
    4962:	470d                	li	a4,3
    4964:	f2f764e3          	bltu	a4,a5,488c <rfRxProcess+0x17e>
    4968:	a8c00737          	lui	a4,0xa8c00
    496c:	1771                	addi	a4,a4,-4
    496e:	97ba                	add	a5,a5,a4
    4970:	bf39                	j	488e <rfRxProcess+0x180>
    4972:	f2e7f7e3          	bgeu	a5,a4,48a0 <rfRxProcess+0x192>
    4976:	a8c005b7          	lui	a1,0xa8c00
    497a:	97ae                	add	a5,a5,a1
    497c:	b715                	j	48a0 <rfRxProcess+0x192>
    497e:	40e78733          	sub	a4,a5,a4
    4982:	bf3d                	j	48c0 <rfRxProcess+0x1b2>
    4984:	f4f775e3          	bgeu	a4,a5,48ce <rfRxProcess+0x1c0>
    4988:	a8c006b7          	lui	a3,0xa8c00
    498c:	9736                	add	a4,a4,a3
    498e:	b781                	j	48ce <rfRxProcess+0x1c0>
    4990:	4818                	lw	a4,16(s0)
    4992:	00065f63          	bgez	a2,49b0 <rfRxProcess+0x2a2>
    4996:	40f707b3          	sub	a5,a4,a5
    499a:	f806e693          	ori	a3,a3,-128
    499e:	1ffff717          	auipc	a4,0x1ffff
    49a2:	92f72523          	sw	a5,-1750(a4) # 200032c8 <rfInfo+0x8>
    49a6:	1ffff797          	auipc	a5,0x1ffff
    49aa:	92d78323          	sb	a3,-1754(a5) # 200032cc <rfInfo+0xc>
    49ae:	b735                	j	48da <rfRxProcess+0x1cc>
    49b0:	fef773e3          	bgeu	a4,a5,4996 <rfRxProcess+0x288>
    49b4:	a8c00637          	lui	a2,0xa8c00
    49b8:	9732                	add	a4,a4,a2
    49ba:	bff1                	j	4996 <rfRxProcess+0x288>
    49bc:	4581                	li	a1,0
    49be:	4501                	li	a0,0
    49c0:	b7b1                	j	490c <rfRxProcess+0x1fe>
    49c2:	00194783          	lbu	a5,1(s2)
    49c6:	17f9                	addi	a5,a5,-2
    49c8:	00f900a3          	sb	a5,1(s2)
    49cc:	da4ff0ef          	jal	ra,3f70 <rf_stop>
    49d0:	489c                	lw	a5,16(s1)
    49d2:	4c10                	lw	a2,24(s0)
    49d4:	4581                	li	a1,0
    49d6:	450d                	li	a0,3
    49d8:	9782                	jalr	a5
    49da:	00144783          	lbu	a5,1(s0)
    49de:	8b85                	andi	a5,a5,1
    49e0:	cb99                	beqz	a5,49f6 <rfRxProcess+0x2e8>
    49e2:	1ffff797          	auipc	a5,0x1ffff
    49e6:	88078fa3          	sb	zero,-1889(a5) # 20003281 <gBleIPPara+0x1>
    49ea:	489c                	lw	a5,16(s1)
    49ec:	4601                	li	a2,0
    49ee:	4581                	li	a1,0
    49f0:	4511                	li	a0,4
    49f2:	9782                	jalr	a5
    49f4:	bfb9                	j	4952 <rfRxProcess+0x244>
    49f6:	1ffff797          	auipc	a5,0x1ffff
    49fa:	88078723          	sb	zero,-1906(a5) # 20003284 <gBleIPPara+0x4>
    49fe:	489c                	lw	a5,16(s1)
    4a00:	4601                	li	a2,0
    4a02:	4581                	li	a1,0
    4a04:	4551                	li	a0,20
    4a06:	b7f5                	j	49f2 <rfRxProcess+0x2e4>
    4a08:	93eff0ef          	jal	ra,3b46 <ll_multi_states_check>
    4a0c:	1ffff797          	auipc	a5,0x1ffff
    4a10:	86c78793          	addi	a5,a5,-1940 # 20003278 <gptrBBReg>
    4a14:	4398                	lw	a4,0(a5)
    4a16:	008006b7          	lui	a3,0x800
    4a1a:	431c                	lw	a5,0(a4)
    4a1c:	8fd5                	or	a5,a5,a3
    4a1e:	c31c                	sw	a5,0(a4)
    4a20:	d50ff0ef          	jal	ra,3f70 <rf_stop>
    4a24:	1ffff797          	auipc	a5,0x1ffff
    4a28:	80878793          	addi	a5,a5,-2040 # 2000322c <ble>
    4a2c:	5b9c                	lw	a5,48(a5)
    4a2e:	4589                	li	a1,2
    4a30:	d38d                	beqz	a5,4952 <rfRxProcess+0x244>
    4a32:	08100513          	li	a0,129
    4a36:	9782                	jalr	a5
    4a38:	bf29                	j	4952 <rfRxProcess+0x244>
    4a3a:	00144783          	lbu	a5,1(s0)
    4a3e:	8b85                	andi	a5,a5,1
    4a40:	22078163          	beqz	a5,4c62 <rfRxProcess+0x554>
    4a44:	1ffff797          	auipc	a5,0x1ffff
    4a48:	82078ea3          	sb	zero,-1987(a5) # 20003281 <gBleIPPara+0x1>
    4a4c:	01842903          	lw	s2,24(s0)
    4a50:	d20ff0ef          	jal	ra,3f70 <rf_stop>
    4a54:	1ffff697          	auipc	a3,0x1ffff
    4a58:	8786c683          	lbu	a3,-1928(a3) # 200032cc <rfInfo+0xc>
    4a5c:	0046f793          	andi	a5,a3,4
    4a60:	1a078a63          	beqz	a5,4c14 <rfRxProcess+0x506>
    4a64:	00194783          	lbu	a5,1(s2)
    4a68:	97ca                	add	a5,a5,s2
    4a6a:	0007c703          	lbu	a4,0(a5)
    4a6e:	08000793          	li	a5,128
    4a72:	00f71a63          	bne	a4,a5,4a86 <rfRxProcess+0x378>
    4a76:	0004c783          	lbu	a5,0(s1)
    4a7a:	0087e793          	ori	a5,a5,8
    4a7e:	1ffff717          	auipc	a4,0x1ffff
    4a82:	82f70123          	sb	a5,-2014(a4) # 200032a0 <rfConfig>
    4a86:	1fffe717          	auipc	a4,0x1fffe
    4a8a:	7a670713          	addi	a4,a4,1958 # 2000322c <ble>
    4a8e:	01670603          	lb	a2,22(a4)
    4a92:	481c                	lw	a5,16(s0)
    4a94:	10065e63          	bgez	a2,4bb0 <rfRxProcess+0x4a2>
    4a98:	17f1                	addi	a5,a5,-4
    4a9a:	1fffe717          	auipc	a4,0x1fffe
    4a9e:	7ef72b23          	sw	a5,2038(a4) # 20003290 <gBleIPPara+0x10>
    4aa2:	481c                	lw	a5,16(s0)
    4aa4:	1ffff717          	auipc	a4,0x1ffff
    4aa8:	81c70713          	addi	a4,a4,-2020 # 200032c0 <rfInfo>
    4aac:	4718                	lw	a4,8(a4)
    4aae:	10065963          	bgez	a2,4bc0 <rfRxProcess+0x4b2>
    4ab2:	40e78733          	sub	a4,a5,a4
    4ab6:	00194783          	lbu	a5,1(s2)
    4aba:	01869593          	slli	a1,a3,0x18
    4abe:	85e1                	srai	a1,a1,0x18
    4ac0:	97ca                	add	a5,a5,s2
    4ac2:	0017c783          	lbu	a5,1(a5)
    4ac6:	078e                	slli	a5,a5,0x3
    4ac8:	1005db63          	bgez	a1,4bde <rfRxProcess+0x4d0>
    4acc:	10e7f063          	bgeu	a5,a4,4bcc <rfRxProcess+0x4be>
    4ad0:	8f1d                	sub	a4,a4,a5
    4ad2:	02000693          	li	a3,32
    4ad6:	00e6eb63          	bltu	a3,a4,4aec <rfRxProcess+0x3de>
    4ada:	4818                	lw	a4,16(s0)
    4adc:	0e065b63          	bgez	a2,4bd2 <rfRxProcess+0x4c4>
    4ae0:	40f707b3          	sub	a5,a4,a5
    4ae4:	1fffe717          	auipc	a4,0x1fffe
    4ae8:	7ef72223          	sw	a5,2020(a4) # 200032c8 <rfInfo+0x8>
    4aec:	4589                	li	a1,2
    4aee:	1fffe517          	auipc	a0,0x1fffe
    4af2:	7e254503          	lbu	a0,2018(a0) # 200032d0 <rfInfo+0x10>
    4af6:	bd8fe0ef          	jal	ra,2ece <tmos_set_event>
    4afa:	0004c783          	lbu	a5,0(s1)
    4afe:	8ba1                	andi	a5,a5,8
    4b00:	10078563          	beqz	a5,4c0a <rfRxProcess+0x4fc>
    4b04:	1fffe797          	auipc	a5,0x1fffe
    4b08:	79878793          	addi	a5,a5,1944 # 2000329c <gptrLLEReg>
    4b0c:	4394                	lw	a3,0(a5)
    4b0e:	0c800793          	li	a5,200
    4b12:	0ff00713          	li	a4,255
    4b16:	d2fc                	sw	a5,100(a3)
    4b18:	485c                	lw	a5,20(s0)
    4b1a:	00330637          	lui	a2,0x330
    4b1e:	4501                	li	a0,0
    4b20:	c398                	sw	a4,0(a5)
    4b22:	1fffe797          	auipc	a5,0x1fffe
    4b26:	76078023          	sb	zero,1888(a5) # 20003282 <gBleIPPara+0x2>
    4b2a:	1fffe797          	auipc	a5,0x1fffe
    4b2e:	74078ca3          	sb	zero,1881(a5) # 20003283 <gBleIPPara+0x3>
    4b32:	1fffe797          	auipc	a5,0x1fffe
    4b36:	74078923          	sb	zero,1874(a5) # 20003284 <gBleIPPara+0x4>
    4b3a:	1fffe797          	auipc	a5,0x1fffe
    4b3e:	740785a3          	sb	zero,1867(a5) # 20003285 <gBleIPPara+0x5>
    4b42:	1fffe797          	auipc	a5,0x1fffe
    4b46:	73678793          	addi	a5,a5,1846 # 20003278 <gptrBBReg>
    4b4a:	4398                	lw	a4,0(a5)
    4b4c:	431c                	lw	a5,0(a4)
    4b4e:	e7f7f793          	andi	a5,a5,-385
    4b52:	c31c                	sw	a5,0(a4)
    4b54:	431c                	lw	a5,0(a4)
    4b56:	e7f7f793          	andi	a5,a5,-385
    4b5a:	1007e793          	ori	a5,a5,256
    4b5e:	c31c                	sw	a5,0(a4)
    4b60:	1fffe797          	auipc	a5,0x1fffe
    4b64:	78078793          	addi	a5,a5,1920 # 200032e0 <gptrRFENDReg>
    4b68:	4398                	lw	a4,0(a5)
    4b6a:	1fffe597          	auipc	a1,0x1fffe
    4b6e:	7365c583          	lbu	a1,1846(a1) # 200032a0 <rfConfig>
    4b72:	8591                	srai	a1,a1,0x4
    4b74:	471c                	lw	a5,8(a4)
    4b76:	898d                	andi	a1,a1,3
    4b78:	8fd1                	or	a5,a5,a2
    4b7a:	c71c                	sw	a5,8(a4)
    4b7c:	0da00793          	li	a5,218
    4b80:	cabc                	sw	a5,80(a3)
    4b82:	4605                	li	a2,1
    4b84:	1fffc097          	auipc	ra,0x1fffc
    4b88:	29a080e7          	jalr	666(ra) # 20000e1e <ll_tx_wait_finish>
    4b8c:	0004c783          	lbu	a5,0(s1)
    4b90:	1fffe697          	auipc	a3,0x1fffe
    4b94:	7326c683          	lbu	a3,1842(a3) # 200032c2 <rfInfo+0x2>
    4b98:	1fffe617          	auipc	a2,0x1fffe
    4b9c:	72b64603          	lbu	a2,1835(a2) # 200032c3 <rfInfo+0x3>
    4ba0:	9bdd                	andi	a5,a5,-9
    4ba2:	1fffe717          	auipc	a4,0x1fffe
    4ba6:	6ef70f23          	sb	a5,1790(a4) # 200032a0 <rfConfig>
    4baa:	4581                	li	a1,0
    4bac:	4501                	li	a0,0
    4bae:	b34d                	j	4950 <rfRxProcess+0x242>
    4bb0:	470d                	li	a4,3
    4bb2:	eef763e3          	bltu	a4,a5,4a98 <rfRxProcess+0x38a>
    4bb6:	a8c00737          	lui	a4,0xa8c00
    4bba:	1771                	addi	a4,a4,-4
    4bbc:	97ba                	add	a5,a5,a4
    4bbe:	bdf1                	j	4a9a <rfRxProcess+0x38c>
    4bc0:	eee7f9e3          	bgeu	a5,a4,4ab2 <rfRxProcess+0x3a4>
    4bc4:	a8c005b7          	lui	a1,0xa8c00
    4bc8:	97ae                	add	a5,a5,a1
    4bca:	b5e5                	j	4ab2 <rfRxProcess+0x3a4>
    4bcc:	40e78733          	sub	a4,a5,a4
    4bd0:	b709                	j	4ad2 <rfRxProcess+0x3c4>
    4bd2:	f0f777e3          	bgeu	a4,a5,4ae0 <rfRxProcess+0x3d2>
    4bd6:	a8c006b7          	lui	a3,0xa8c00
    4bda:	9736                	add	a4,a4,a3
    4bdc:	b711                	j	4ae0 <rfRxProcess+0x3d2>
    4bde:	4818                	lw	a4,16(s0)
    4be0:	00065f63          	bgez	a2,4bfe <rfRxProcess+0x4f0>
    4be4:	40f707b3          	sub	a5,a4,a5
    4be8:	f806e693          	ori	a3,a3,-128
    4bec:	1fffe717          	auipc	a4,0x1fffe
    4bf0:	6cf72e23          	sw	a5,1756(a4) # 200032c8 <rfInfo+0x8>
    4bf4:	1fffe797          	auipc	a5,0x1fffe
    4bf8:	6cd78c23          	sb	a3,1752(a5) # 200032cc <rfInfo+0xc>
    4bfc:	bdc5                	j	4aec <rfRxProcess+0x3de>
    4bfe:	fef773e3          	bgeu	a4,a5,4be4 <rfRxProcess+0x4d6>
    4c02:	a8c00637          	lui	a2,0xa8c00
    4c06:	9732                	add	a4,a4,a2
    4c08:	bff1                	j	4be4 <rfRxProcess+0x4d6>
    4c0a:	00194783          	lbu	a5,1(s2)
    4c0e:	17f9                	addi	a5,a5,-2
    4c10:	00f900a3          	sb	a5,1(s2)
    4c14:	4c08                	lw	a0,24(s0)
    4c16:	0ff00693          	li	a3,255
    4c1a:	4901                	li	s2,0
    4c1c:	00054703          	lbu	a4,0(a0)
    4c20:	00d70b63          	beq	a4,a3,4c36 <rfRxProcess+0x528>
    4c24:	1fffe797          	auipc	a5,0x1fffe
    4c28:	69f7c783          	lbu	a5,1695(a5) # 200032c3 <rfInfo+0x3>
    4c2c:	00d78563          	beq	a5,a3,4c36 <rfRxProcess+0x528>
    4c30:	00f70363          	beq	a4,a5,4c36 <rfRxProcess+0x528>
    4c34:	4909                	li	s2,2
    4c36:	00048783          	lb	a5,0(s1)
    4c3a:	4681                	li	a3,0
    4c3c:	0207d063          	bgez	a5,4c5c <rfRxProcess+0x54e>
    4c40:	4601                	li	a2,0
    4c42:	4581                	li	a1,0
    4c44:	1fffc097          	auipc	ra,0x1fffc
    4c48:	110080e7          	jalr	272(ra) # 20000d54 <ble_ll_chkcrc>
    4c4c:	00a96533          	or	a0,s2,a0
    4c50:	0ff57593          	andi	a1,a0,255
    4c54:	489c                	lw	a5,16(s1)
    4c56:	4c10                	lw	a2,24(s0)
    4c58:	450d                	li	a0,3
    4c5a:	bb61                	j	49f2 <rfRxProcess+0x2e4>
    4c5c:	862a                	mv	a2,a0
    4c5e:	4581                	li	a1,0
    4c60:	b7d5                	j	4c44 <rfRxProcess+0x536>
    4c62:	ee5fe0ef          	jal	ra,3b46 <ll_multi_states_check>
    4c66:	1fffe797          	auipc	a5,0x1fffe
    4c6a:	61278793          	addi	a5,a5,1554 # 20003278 <gptrBBReg>
    4c6e:	4398                	lw	a4,0(a5)
    4c70:	008006b7          	lui	a3,0x800
    4c74:	431c                	lw	a5,0(a4)
    4c76:	8fd5                	or	a5,a5,a3
    4c78:	c31c                	sw	a5,0(a4)
    4c7a:	af6ff0ef          	jal	ra,3f70 <rf_stop>
    4c7e:	1fffe797          	auipc	a5,0x1fffe
    4c82:	5ae78793          	addi	a5,a5,1454 # 2000322c <ble>
    4c86:	5b9c                	lw	a5,48(a5)
    4c88:	cc0785e3          	beqz	a5,4952 <rfRxProcess+0x244>
    4c8c:	4585                	li	a1,1
    4c8e:	b355                	j	4a32 <rfRxProcess+0x324>

00004c90 <RF_Shut>:
RF_Shut():
    4c90:	1fffe797          	auipc	a5,0x1fffe
    4c94:	62078f23          	sb	zero,1598(a5) # 200032ce <rfInfo+0xe>
    4c98:	1fffe797          	auipc	a5,0x1fffe
    4c9c:	62878793          	addi	a5,a5,1576 # 200032c0 <rfInfo>
    4ca0:	43c8                	lw	a0,4(a5)
    4ca2:	1141                	addi	sp,sp,-16
    4ca4:	c606                	sw	ra,12(sp)
    4ca6:	c509                	beqz	a0,4cb0 <RF_Shut+0x20>
    4ca8:	1fffd097          	auipc	ra,0x1fffd
    4cac:	942080e7          	jalr	-1726(ra) # 200015ea <tmos_memory_free>
    4cb0:	1fffe797          	auipc	a5,0x1fffe
    4cb4:	6007aa23          	sw	zero,1556(a5) # 200032c4 <rfInfo+0x4>
    4cb8:	1fffe797          	auipc	a5,0x1fffe
    4cbc:	5d17c783          	lbu	a5,1489(a5) # 20003289 <gBleIPPara+0x9>
    4cc0:	cf81                	beqz	a5,4cd8 <RF_Shut+0x48>
    4cc2:	1fffe717          	auipc	a4,0x1fffe
    4cc6:	5c674703          	lbu	a4,1478(a4) # 20003288 <gBleIPPara+0x8>
    4cca:	479d                	li	a5,7
    4ccc:	00f71663          	bne	a4,a5,4cd8 <RF_Shut+0x48>
    4cd0:	1fffe797          	auipc	a5,0x1fffe
    4cd4:	5a078ca3          	sb	zero,1465(a5) # 20003289 <gBleIPPara+0x9>
    4cd8:	1fffe697          	auipc	a3,0x1fffe
    4cdc:	5af6c683          	lbu	a3,1455(a3) # 20003287 <gBleIPPara+0x7>
    4ce0:	ffb68793          	addi	a5,a3,-5
    4ce4:	0ff7f793          	andi	a5,a5,255
    4ce8:	4705                	li	a4,1
    4cea:	00f76a63          	bltu	a4,a5,4cfe <RF_Shut+0x6e>
    4cee:	1fffe797          	auipc	a5,0x1fffe
    4cf2:	58d78d23          	sb	a3,1434(a5) # 20003288 <gBleIPPara+0x8>
    4cf6:	1fffe797          	auipc	a5,0x1fffe
    4cfa:	58e789a3          	sb	a4,1427(a5) # 20003289 <gBleIPPara+0x9>
    4cfe:	f21fe0ef          	jal	ra,3c1e <ble_ll_hw_api_shut>
    4d02:	45c1                	li	a1,16
    4d04:	1fffe517          	auipc	a0,0x1fffe
    4d08:	5cc54503          	lbu	a0,1484(a0) # 200032d0 <rfInfo+0x10>
    4d0c:	b02fe0ef          	jal	ra,300e <tmos_stop_task>
    4d10:	4501                	li	a0,0
    4d12:	4581                	li	a1,0
    4d14:	b66fe0ef          	jal	ra,307a <TMOS_ProcessRegister>
    4d18:	40b2                	lw	ra,12(sp)
    4d1a:	4501                	li	a0,0
    4d1c:	0141                	addi	sp,sp,16
    4d1e:	8082                	ret

00004d20 <RF_FrequencyHoppingShut>:
RF_FrequencyHoppingShut():
    4d20:	1141                	addi	sp,sp,-16
    4d22:	c606                	sw	ra,12(sp)
    4d24:	c422                	sw	s0,8(sp)
    4d26:	37ad                	jal	4c90 <RF_Shut>
    4d28:	1fffe797          	auipc	a5,0x1fffe
    4d2c:	59878793          	addi	a5,a5,1432 # 200032c0 <rfInfo>
    4d30:	00f7c703          	lbu	a4,15(a5)
    4d34:	4bdc                	lw	a5,20(a5)
    4d36:	45a1                	li	a1,8
    4d38:	1fffe517          	auipc	a0,0x1fffe
    4d3c:	59854503          	lbu	a0,1432(a0) # 200032d0 <rfInfo+0x10>
    4d40:	1fffe697          	auipc	a3,0x1fffe
    4d44:	56e680a3          	sb	a4,1377(a3) # 200032a1 <rfConfig+0x1>
    4d48:	1fffe717          	auipc	a4,0x1fffe
    4d4c:	56f72023          	sw	a5,1376(a4) # 200032a8 <rfConfig+0x8>
    4d50:	abefe0ef          	jal	ra,300e <tmos_stop_task>
    4d54:	4591                	li	a1,4
    4d56:	1fffe517          	auipc	a0,0x1fffe
    4d5a:	57a54503          	lbu	a0,1402(a0) # 200032d0 <rfInfo+0x10>
    4d5e:	ab0fe0ef          	jal	ra,300e <tmos_stop_task>
    4d62:	1fffe797          	auipc	a5,0x1fffe
    4d66:	56a7c783          	lbu	a5,1386(a5) # 200032cc <rfInfo+0xc>
    4d6a:	0027f713          	andi	a4,a5,2
    4d6e:	1fffe417          	auipc	s0,0x1fffe
    4d72:	53240413          	addi	s0,s0,1330 # 200032a0 <rfConfig>
    4d76:	cf19                	beqz	a4,4d94 <RF_FrequencyHoppingShut+0x74>
    4d78:	481c                	lw	a5,16(s0)
    4d7a:	4601                	li	a2,0
    4d7c:	4581                	li	a1,0
    4d7e:	02200513          	li	a0,34
    4d82:	9782                	jalr	a5
    4d84:	40b2                	lw	ra,12(sp)
    4d86:	4422                	lw	s0,8(sp)
    4d88:	1fffe797          	auipc	a5,0x1fffe
    4d8c:	54078223          	sb	zero,1348(a5) # 200032cc <rfInfo+0xc>
    4d90:	0141                	addi	sp,sp,16
    4d92:	8082                	ret
    4d94:	8b91                	andi	a5,a5,4
    4d96:	d7fd                	beqz	a5,4d84 <RF_FrequencyHoppingShut+0x64>
    4d98:	481c                	lw	a5,16(s0)
    4d9a:	4601                	li	a2,0
    4d9c:	4581                	li	a1,0
    4d9e:	02400513          	li	a0,36
    4da2:	b7c5                	j	4d82 <RF_FrequencyHoppingShut+0x62>

00004da4 <rf_hop_heart_beat>:
rf_hop_heart_beat():
    4da4:	7179                	addi	sp,sp,-48
    4da6:	d226                	sw	s1,36(sp)
    4da8:	1fffe497          	auipc	s1,0x1fffe
    4dac:	51848493          	addi	s1,s1,1304 # 200032c0 <rfInfo>
    4db0:	00c4c783          	lbu	a5,12(s1)
    4db4:	d606                	sw	ra,44(sp)
    4db6:	d422                	sw	s0,40(sp)
    4db8:	d04a                	sw	s2,32(sp)
    4dba:	ce4e                	sw	s3,28(sp)
    4dbc:	cc52                	sw	s4,24(sp)
    4dbe:	ca56                	sw	s5,20(sp)
    4dc0:	c85a                	sw	s6,16(sp)
    4dc2:	c65e                	sw	s7,12(sp)
    4dc4:	8b89                	andi	a5,a5,2
    4dc6:	cbe1                	beqz	a5,4e96 <rf_hop_heart_beat+0xf2>
    4dc8:	1fffea97          	auipc	s5,0x1fffe
    4dcc:	4d8aca83          	lbu	s5,1240(s5) # 200032a0 <rfConfig>
    4dd0:	009ae793          	ori	a5,s5,9
    4dd4:	6935                	lui	s2,0xd
    4dd6:	6985                	lui	s3,0x1
    4dd8:	6a3d                	lui	s4,0xf
    4dda:	1fffe717          	auipc	a4,0x1fffe
    4dde:	4cf70323          	sb	a5,1222(a4) # 200032a0 <rfConfig>
    4de2:	4401                	li	s0,0
    4de4:	1fffeb17          	auipc	s6,0x1fffe
    4de8:	49cb0b13          	addi	s6,s6,1180 # 20003280 <gBleIPPara>
    4dec:	1fffeb97          	auipc	s7,0x1fffe
    4df0:	4b0b8b93          	addi	s7,s7,1200 # 2000329c <gptrLLEReg>
    4df4:	093d                	addi	s2,s2,15
    4df6:	f9298993          	addi	s3,s3,-110 # f92 <_einit+0xf8e>
    4dfa:	0a3d                	addi	s4,s4,15
    4dfc:	1fffe697          	auipc	a3,0x1fffe
    4e00:	4c56c683          	lbu	a3,1221(a3) # 200032c1 <rfInfo+0x1>
    4e04:	1fffe617          	auipc	a2,0x1fffe
    4e08:	4bc64603          	lbu	a2,1212(a2) # 200032c0 <rfInfo>
    4e0c:	4581                	li	a1,0
    4e0e:	4501                	li	a0,0
    4e10:	c34ff0ef          	jal	ra,4244 <RF_Tx>
    4e14:	002b4783          	lbu	a5,2(s6)
    4e18:	8b85                	andi	a5,a5,1
    4e1a:	d3ed                	beqz	a5,4dfc <rf_hop_heart_beat+0x58>
    4e1c:	1fffe517          	auipc	a0,0x1fffe
    4e20:	48454503          	lbu	a0,1156(a0) # 200032a0 <rfConfig>
    4e24:	8511                	srai	a0,a0,0x4
    4e26:	4601                	li	a2,0
    4e28:	0ff00593          	li	a1,255
    4e2c:	890d                	andi	a0,a0,3
    4e2e:	1fffe797          	auipc	a5,0x1fffe
    4e32:	44078a23          	sb	zero,1108(a5) # 20003282 <gBleIPPara+0x2>
    4e36:	c11fe0ef          	jal	ra,3a46 <BLE_SetPHYRxMode>
    4e3a:	47f9                	li	a5,30
    4e3c:	0001                	nop
    4e3e:	17fd                	addi	a5,a5,-1
    4e40:	fff5                	bnez	a5,4e3c <rf_hop_heart_beat+0x98>
    4e42:	1fffe597          	auipc	a1,0x1fffe
    4e46:	45e5c583          	lbu	a1,1118(a1) # 200032a0 <rfConfig>
    4e4a:	8591                	srai	a1,a1,0x4
    4e4c:	0ff00613          	li	a2,255
    4e50:	898d                	andi	a1,a1,3
    4e52:	4505                	li	a0,1
    4e54:	1fffc097          	auipc	ra,0x1fffc
    4e58:	fca080e7          	jalr	-54(ra) # 20000e1e <ll_tx_wait_finish>
    4e5c:	003b4783          	lbu	a5,3(s6)
    4e60:	8b85                	andi	a5,a5,1
    4e62:	c7a9                	beqz	a5,4eac <rf_hop_heart_beat+0x108>
    4e64:	1fffe797          	auipc	a5,0x1fffe
    4e68:	40078fa3          	sb	zero,1055(a5) # 20003283 <gBleIPPara+0x3>
    4e6c:	904ff0ef          	jal	ra,3f70 <rf_stop>
    4e70:	00c4c783          	lbu	a5,12(s1)
    4e74:	4585                	li	a1,1
    4e76:	1fffe517          	auipc	a0,0x1fffe
    4e7a:	45a54503          	lbu	a0,1114(a0) # 200032d0 <rfInfo+0x10>
    4e7e:	f807e793          	ori	a5,a5,-128
    4e82:	1fffe717          	auipc	a4,0x1fffe
    4e86:	44f70523          	sb	a5,1098(a4) # 200032cc <rfInfo+0xc>
    4e8a:	844fe0ef          	jal	ra,2ece <tmos_set_event>
    4e8e:	1fffe797          	auipc	a5,0x1fffe
    4e92:	41578923          	sb	s5,1042(a5) # 200032a0 <rfConfig>
    4e96:	50b2                	lw	ra,44(sp)
    4e98:	5422                	lw	s0,40(sp)
    4e9a:	5492                	lw	s1,36(sp)
    4e9c:	5902                	lw	s2,32(sp)
    4e9e:	49f2                	lw	s3,28(sp)
    4ea0:	4a62                	lw	s4,24(sp)
    4ea2:	4ad2                	lw	s5,20(sp)
    4ea4:	4b42                	lw	s6,16(sp)
    4ea6:	4bb2                	lw	s7,12(sp)
    4ea8:	6145                	addi	sp,sp,48
    4eaa:	8082                	ret
    4eac:	8c4ff0ef          	jal	ra,3f70 <rf_stop>
    4eb0:	0405                	addi	s0,s0,1
    4eb2:	0ff47413          	andi	s0,s0,255
    4eb6:	47a1                	li	a5,8
    4eb8:	00f41463          	bne	s0,a5,4ec0 <rf_hop_heart_beat+0x11c>
    4ebc:	3595                	jal	4d20 <RF_FrequencyHoppingShut>
    4ebe:	bfc1                	j	4e8e <rf_hop_heart_beat+0xea>
    4ec0:	000ba783          	lw	a5,0(s7)
    4ec4:	0127a623          	sw	s2,12(a5)
    4ec8:	0000100f          	fence.i
    4ecc:	000ba783          	lw	a5,0(s7)
    4ed0:	6709                	lui	a4,0x2
    4ed2:	c798                	sw	a4,8(a5)
    4ed4:	f8000713          	li	a4,-128
    4ed8:	1fffe697          	auipc	a3,0x1fffe
    4edc:	3ae68623          	sb	a4,940(a3) # 20003284 <gBleIPPara+0x4>
    4ee0:	0737a223          	sw	s3,100(a5)
    4ee4:	0147a623          	sw	s4,12(a5)
    4ee8:	53f8                	lw	a4,100(a5)
    4eea:	ff7d                	bnez	a4,4ee8 <rf_hop_heart_beat+0x144>
    4eec:	bf01                	j	4dfc <rf_hop_heart_beat+0x58>

00004eee <RFFH_ProcessEvent>:
RFFH_ProcessEvent():
    4eee:	1141                	addi	sp,sp,-16
    4ef0:	c422                	sw	s0,8(sp)
    4ef2:	c606                	sw	ra,12(sp)
    4ef4:	0015f793          	andi	a5,a1,1
    4ef8:	842e                	mv	s0,a1
    4efa:	c3b9                	beqz	a5,4f40 <RFFH_ProcessEvent+0x52>
    4efc:	1fffe797          	auipc	a5,0x1fffe
    4f00:	3d07c783          	lbu	a5,976(a5) # 200032cc <rfInfo+0xc>
    4f04:	0027f713          	andi	a4,a5,2
    4f08:	c715                	beqz	a4,4f34 <RFFH_ProcessEvent+0x46>
    4f0a:	07e2                	slli	a5,a5,0x18
    4f0c:	87e1                	srai	a5,a5,0x18
    4f0e:	1fffe517          	auipc	a0,0x1fffe
    4f12:	3c254503          	lbu	a0,962(a0) # 200032d0 <rfInfo+0x10>
    4f16:	05000613          	li	a2,80
    4f1a:	0007da63          	bgez	a5,4f2e <RFFH_ProcessEvent+0x40>
    4f1e:	1fffe617          	auipc	a2,0x1fffe
    4f22:	39b64603          	lbu	a2,923(a2) # 200032b9 <rfConfig+0x19>
    4f26:	0a000793          	li	a5,160
    4f2a:	02f60633          	mul	a2,a2,a5
    4f2e:	4591                	li	a1,4
    4f30:	ffffd0ef          	jal	ra,2f2e <tmos_start_task>
    4f34:	00144513          	xori	a0,s0,1
    4f38:	40b2                	lw	ra,12(sp)
    4f3a:	4422                	lw	s0,8(sp)
    4f3c:	0141                	addi	sp,sp,16
    4f3e:	8082                	ret
    4f40:	0025f793          	andi	a5,a1,2
    4f44:	c3b1                	beqz	a5,4f88 <RFFH_ProcessEvent+0x9a>
    4f46:	1fffe797          	auipc	a5,0x1fffe
    4f4a:	3867c783          	lbu	a5,902(a5) # 200032cc <rfInfo+0xc>
    4f4e:	0047f713          	andi	a4,a5,4
    4f52:	cb05                	beqz	a4,4f82 <RFFH_ProcessEvent+0x94>
    4f54:	07e2                	slli	a5,a5,0x18
    4f56:	87e1                	srai	a5,a5,0x18
    4f58:	1fffe517          	auipc	a0,0x1fffe
    4f5c:	37854503          	lbu	a0,888(a0) # 200032d0 <rfInfo+0x10>
    4f60:	0a000613          	li	a2,160
    4f64:	0007dc63          	bgez	a5,4f7c <RFFH_ProcessEvent+0x8e>
    4f68:	1fffe617          	auipc	a2,0x1fffe
    4f6c:	35164603          	lbu	a2,849(a2) # 200032b9 <rfConfig+0x19>
    4f70:	0a000793          	li	a5,160
    4f74:	02f60633          	mul	a2,a2,a5
    4f78:	02860613          	addi	a2,a2,40
    4f7c:	45a1                	li	a1,8
    4f7e:	fb1fd0ef          	jal	ra,2f2e <tmos_start_task>
    4f82:	00244513          	xori	a0,s0,2
    4f86:	bf4d                	j	4f38 <RFFH_ProcessEvent+0x4a>
    4f88:	0045f793          	andi	a5,a1,4
    4f8c:	c789                	beqz	a5,4f96 <RFFH_ProcessEvent+0xa8>
    4f8e:	3d19                	jal	4da4 <rf_hop_heart_beat>
    4f90:	00444513          	xori	a0,s0,4
    4f94:	b755                	j	4f38 <RFFH_ProcessEvent+0x4a>
    4f96:	0085f793          	andi	a5,a1,8
    4f9a:	cb99                	beqz	a5,4fb0 <RFFH_ProcessEvent+0xc2>
    4f9c:	1fffe797          	auipc	a5,0x1fffe
    4fa0:	3307c783          	lbu	a5,816(a5) # 200032cc <rfInfo+0xc>
    4fa4:	8b91                	andi	a5,a5,4
    4fa6:	c391                	beqz	a5,4faa <RFFH_ProcessEvent+0xbc>
    4fa8:	3ba5                	jal	4d20 <RF_FrequencyHoppingShut>
    4faa:	00844513          	xori	a0,s0,8
    4fae:	b769                	j	4f38 <RFFH_ProcessEvent+0x4a>
    4fb0:	0105f793          	andi	a5,a1,16
    4fb4:	4501                	li	a0,0
    4fb6:	d3c9                	beqz	a5,4f38 <RFFH_ProcessEvent+0x4a>
    4fb8:	bd6fe0ef          	jal	ra,338e <TMOS_TempSample>
    4fbc:	1fffe717          	auipc	a4,0x1fffe
    4fc0:	2cb74703          	lbu	a4,715(a4) # 20003287 <gBleIPPara+0x7>
    4fc4:	479d                	li	a5,7
    4fc6:	00f71b63          	bne	a4,a5,4fdc <RFFH_ProcessEvent+0xee>
    4fca:	64000613          	li	a2,1600
    4fce:	45c1                	li	a1,16
    4fd0:	1fffe517          	auipc	a0,0x1fffe
    4fd4:	30054503          	lbu	a0,768(a0) # 200032d0 <rfInfo+0x10>
    4fd8:	f57fd0ef          	jal	ra,2f2e <tmos_start_task>
    4fdc:	01044513          	xori	a0,s0,16
    4fe0:	bfa1                	j	4f38 <RFFH_ProcessEvent+0x4a>

00004fe2 <RF_RoleInit>:
RF_RoleInit():
    4fe2:	1141                	addi	sp,sp,-16
    4fe4:	c606                	sw	ra,12(sp)
    4fe6:	c422                	sw	s0,8(sp)
    4fe8:	d7dfe0ef          	jal	ra,3d64 <BLE_IPCoreInit>
    4fec:	4671                	li	a2,28
    4fee:	4581                	li	a1,0
    4ff0:	1fffe517          	auipc	a0,0x1fffe
    4ff4:	2d050513          	addi	a0,a0,720 # 200032c0 <rfInfo>
    4ff8:	1fffb097          	auipc	ra,0x1fffb
    4ffc:	772080e7          	jalr	1906(ra) # 2000076a <tmos_memset>
    5000:	1fffe417          	auipc	s0,0x1fffe
    5004:	2c040413          	addi	s0,s0,704 # 200032c0 <rfInfo>
    5008:	57fd                	li	a5,-1
    500a:	00000517          	auipc	a0,0x0
    500e:	ee450513          	addi	a0,a0,-284 # 4eee <RFFH_ProcessEvent>
    5012:	c01c                	sw	a5,0(s0)
    5014:	972fe0ef          	jal	ra,3186 <TMOS_ProcessEventRegister>
    5018:	00a40823          	sb	a0,16(s0)
    501c:	4595                	li	a1,5
    501e:	fffff517          	auipc	a0,0xfffff
    5022:	6f050513          	addi	a0,a0,1776 # 470e <rfRxProcess>
    5026:	854fe0ef          	jal	ra,307a <TMOS_ProcessRegister>
    502a:	40b2                	lw	ra,12(sp)
    502c:	4422                	lw	s0,8(sp)
    502e:	4501                	li	a0,0
    5030:	0141                	addi	sp,sp,16
    5032:	8082                	ret

00005034 <RFEND_Reset>:
RFEND_Reset():
    5034:	1fffe797          	auipc	a5,0x1fffe
    5038:	2ac78793          	addi	a5,a5,684 # 200032e0 <gptrRFENDReg>
    503c:	4394                	lw	a3,0(a5)
    503e:	6705                	lui	a4,0x1
    5040:	10170713          	addi	a4,a4,257 # 1101 <_einit+0x10fd>
    5044:	c6d8                	sw	a4,12(a3)
    5046:	4751                	li	a4,20
    5048:	0001                	nop
    504a:	177d                	addi	a4,a4,-1
    504c:	ff75                	bnez	a4,5048 <RFEND_Reset+0x14>
    504e:	4398                	lw	a4,0(a5)
    5050:	00072623          	sw	zero,12(a4)
    5054:	4751                	li	a4,20
    5056:	0001                	nop
    5058:	177d                	addi	a4,a4,-1
    505a:	ff75                	bnez	a4,5056 <RFEND_Reset+0x22>
    505c:	4398                	lw	a4,0(a5)
    505e:	6785                	lui	a5,0x1
    5060:	10178793          	addi	a5,a5,257 # 1101 <_einit+0x10fd>
    5064:	c75c                	sw	a5,12(a4)
    5066:	8082                	ret

00005068 <RFEND_DevInit>:
RFEND_DevInit():
    5068:	1141                	addi	sp,sp,-16
    506a:	c606                	sw	ra,12(sp)
    506c:	37e1                	jal	5034 <RFEND_Reset>
    506e:	1fffe797          	auipc	a5,0x1fffe
    5072:	27278793          	addi	a5,a5,626 # 200032e0 <gptrRFENDReg>
    5076:	439c                	lw	a5,0(a5)
    5078:	48000713          	li	a4,1152
    507c:	90000337          	lui	t1,0x90000
    5080:	d798                	sw	a4,40(a5)
    5082:	47b8                	lw	a4,72(a5)
    5084:	137d                	addi	t1,t1,-1
    5086:	20000e37          	lui	t3,0x20000
    508a:	00677733          	and	a4,a4,t1
    508e:	01c76733          	or	a4,a4,t3
    5092:	c7b8                	sw	a4,72(a5)
    5094:	47b8                	lw	a4,72(a5)
    5096:	f90006b7          	lui	a3,0xf9000
    509a:	16fd                	addi	a3,a3,-1
    509c:	8f75                	and	a4,a4,a3
    509e:	04000637          	lui	a2,0x4000
    50a2:	8f51                	or	a4,a4,a2
    50a4:	c7b8                	sw	a4,72(a5)
    50a6:	47b8                	lw	a4,72(a5)
    50a8:	fff90637          	lui	a2,0xfff90
    50ac:	167d                	addi	a2,a2,-1
    50ae:	9b41                	andi	a4,a4,-16
    50b0:	00976713          	ori	a4,a4,9
    50b4:	c7b8                	sw	a4,72(a5)
    50b6:	47b8                	lw	a4,72(a5)
    50b8:	800008b7          	lui	a7,0x80000
    50bc:	02000eb7          	lui	t4,0x2000
    50c0:	8f71                	and	a4,a4,a2
    50c2:	c7b8                	sw	a4,72(a5)
    50c4:	47b8                	lw	a4,72(a5)
    50c6:	ff000637          	lui	a2,0xff000
    50ca:	167d                	addi	a2,a2,-1
    50cc:	01176733          	or	a4,a4,a7
    50d0:	c7b8                	sw	a4,72(a5)
    50d2:	47f8                	lw	a4,76(a5)
    50d4:	7545                	lui	a0,0xffff1
    50d6:	1e7d                	addi	t3,t3,-1
    50d8:	9b61                	andi	a4,a4,-8
    50da:	00376713          	ori	a4,a4,3
    50de:	c7f8                	sw	a4,76(a5)
    50e0:	47f8                	lw	a4,76(a5)
    50e2:	f8f77713          	andi	a4,a4,-113
    50e6:	03076713          	ori	a4,a4,48
    50ea:	c7f8                	sw	a4,76(a5)
    50ec:	47ec                	lw	a1,76(a5)
    50ee:	8ff5f593          	andi	a1,a1,-1793
    50f2:	3005e593          	ori	a1,a1,768
    50f6:	c7ec                	sw	a1,76(a5)
    50f8:	47f8                	lw	a4,76(a5)
    50fa:	8f71                	and	a4,a4,a2
    50fc:	c7f8                	sw	a4,76(a5)
    50fe:	47f8                	lw	a4,76(a5)
    5100:	6611                	lui	a2,0x4
    5102:	01d76733          	or	a4,a4,t4
    5106:	c7f8                	sw	a4,76(a5)
    5108:	0507a803          	lw	a6,80(a5)
    510c:	fff50713          	addi	a4,a0,-1 # ffff0fff <_eusrstack+0xdffe8fff>
    5110:	757d                	lui	a0,0xfffff
    5112:	00e87833          	and	a6,a6,a4
    5116:	00c86833          	or	a6,a6,a2
    511a:	0507a823          	sw	a6,80(a5)
    511e:	0547a803          	lw	a6,84(a5)
    5122:	157d                	addi	a0,a0,-1
    5124:	ff087813          	andi	a6,a6,-16
    5128:	00486813          	ori	a6,a6,4
    512c:	0507aa23          	sw	a6,84(a5)
    5130:	4bf0                	lw	a2,84(a5)
    5132:	08066613          	ori	a2,a2,128
    5136:	cbf0                	sw	a2,84(a5)
    5138:	4bf0                	lw	a2,84(a5)
    513a:	8e69                	and	a2,a2,a0
    513c:	cbf0                	sw	a2,84(a5)
    513e:	5fc8                	lw	a0,60(a5)
    5140:	8d79                	and	a0,a0,a4
    5142:	6721                	lui	a4,0x8
    5144:	8d59                	or	a0,a0,a4
    5146:	dfc8                	sw	a0,60(a5)
    5148:	5fcc                	lw	a1,60(a5)
    514a:	40000737          	lui	a4,0x40000
    514e:	8df5                	and	a1,a1,a3
    5150:	01d5e5b3          	or	a1,a1,t4
    5154:	dfcc                	sw	a1,60(a5)
    5156:	5fd0                	lw	a2,60(a5)
    5158:	007005b7          	lui	a1,0x700
    515c:	01c67633          	and	a2,a2,t3
    5160:	8e59                	or	a2,a2,a4
    5162:	dfd0                	sw	a2,60(a5)
    5164:	57d0                	lw	a2,44(a5)
    5166:	6709                	lui	a4,0x2
    5168:	8e4d                	or	a2,a2,a1
    516a:	d7d0                	sw	a2,44(a5)
    516c:	57d0                	lw	a2,44(a5)
    516e:	8ef1                	and	a3,a3,a2
    5170:	d7d4                	sw	a3,44(a5)
    5172:	57d4                	lw	a3,44(a5)
    5174:	7675                	lui	a2,0xffffd
    5176:	167d                	addi	a2,a2,-1
    5178:	8ef1                	and	a3,a3,a2
    517a:	8ed9                	or	a3,a3,a4
    517c:	d7d4                	sw	a3,44(a5)
    517e:	57d4                	lw	a3,44(a5)
    5180:	fffd0637          	lui	a2,0xfffd0
    5184:	167d                	addi	a2,a2,-1
    5186:	00020737          	lui	a4,0x20
    518a:	8ef1                	and	a3,a3,a2
    518c:	8ed9                	or	a3,a3,a4
    518e:	d7d4                	sw	a3,44(a5)
    5190:	5b94                	lw	a3,48(a5)
    5192:	9ac1                	andi	a3,a3,-16
    5194:	db94                	sw	a3,48(a5)
    5196:	5b94                	lw	a3,48(a5)
    5198:	f0f6f693          	andi	a3,a3,-241
    519c:	db94                	sw	a3,48(a5)
    519e:	5b94                	lw	a3,48(a5)
    51a0:	8ff6f693          	andi	a3,a3,-1793
    51a4:	db94                	sw	a3,48(a5)
    51a6:	5b98                	lw	a4,48(a5)
    51a8:	500006b7          	lui	a3,0x50000
    51ac:	8f4d                	or	a4,a4,a1
    51ae:	db98                	sw	a4,48(a5)
    51b0:	5b98                	lw	a4,48(a5)
    51b2:	00677733          	and	a4,a4,t1
    51b6:	8f55                	or	a4,a4,a3
    51b8:	db98                	sw	a4,48(a5)
    51ba:	5f98                	lw	a4,56(a5)
    51bc:	ff0806b7          	lui	a3,0xff080
    51c0:	16fd                	addi	a3,a3,-1
    51c2:	8f75                	and	a4,a4,a3
    51c4:	008806b7          	lui	a3,0x880
    51c8:	8f55                	or	a4,a4,a3
    51ca:	df98                	sw	a4,56(a5)
    51cc:	5f98                	lw	a4,56(a5)
    51ce:	011768b3          	or	a7,a4,a7
    51d2:	0317ac23          	sw	a7,56(a5)
    51d6:	40b2                	lw	ra,12(sp)
    51d8:	0141                	addi	sp,sp,16
    51da:	8082                	ret

000051dc <RFEND_RXFilter>:
RFEND_RXFilter():
    51dc:	1fffe717          	auipc	a4,0x1fffe
    51e0:	10470713          	addi	a4,a4,260 # 200032e0 <gptrRFENDReg>
    51e4:	431c                	lw	a5,0(a4)
    51e6:	7641                	lui	a2,0xffff0
    51e8:	167d                	addi	a2,a2,-1
    51ea:	4bb4                	lw	a3,80(a5)
    51ec:	8ef1                	and	a3,a3,a2
    51ee:	cbb4                	sw	a3,80(a5)
    51f0:	4794                	lw	a3,8(a5)
    51f2:	00200637          	lui	a2,0x200
    51f6:	8ed1                	or	a3,a3,a2
    51f8:	c794                	sw	a3,8(a5)
    51fa:	47d4                	lw	a3,12(a5)
    51fc:	0106e693          	ori	a3,a3,16
    5200:	c7d4                	sw	a3,12(a5)
    5202:	47d4                	lw	a3,12(a5)
    5204:	9abd                	andi	a3,a3,-17
    5206:	c7d4                	sw	a3,12(a5)
    5208:	0001                	nop
    520a:	0001                	nop
    520c:	0001                	nop
    520e:	0001                	nop
    5210:	4314                	lw	a3,0(a4)
    5212:	6605                	lui	a2,0x1
    5214:	46dc                	lw	a5,12(a3)
    5216:	0107e793          	ori	a5,a5,16
    521a:	c6dc                	sw	a5,12(a3)
    521c:	42dc                	lw	a5,4(a3)
    521e:	8fd1                	or	a5,a5,a2
    5220:	c2dc                	sw	a5,4(a3)
    5222:	09c6a783          	lw	a5,156(a3) # 88009c <_data_lma+0x8787b0>
    5226:	83a1                	srli	a5,a5,0x8
    5228:	8b85                	andi	a5,a5,1
    522a:	dfe5                	beqz	a5,5222 <RFEND_RXFilter+0x46>
    522c:	0001                	nop
    522e:	0001                	nop
    5230:	0001                	nop
    5232:	0001                	nop
    5234:	431c                	lw	a5,0(a4)
    5236:	6641                	lui	a2,0x10
    5238:	09c7a703          	lw	a4,156(a5)
    523c:	4bb4                	lw	a3,80(a5)
    523e:	8ed1                	or	a3,a3,a2
    5240:	cbb4                	sw	a3,80(a5)
    5242:	01f77693          	andi	a3,a4,31
    5246:	4bb8                	lw	a4,80(a5)
    5248:	9b01                	andi	a4,a4,-32
    524a:	8f55                	or	a4,a4,a3
    524c:	cbb8                	sw	a4,80(a5)
    524e:	4798                	lw	a4,8(a5)
    5250:	ffe006b7          	lui	a3,0xffe00
    5254:	16fd                	addi	a3,a3,-1
    5256:	8f75                	and	a4,a4,a3
    5258:	c798                	sw	a4,8(a5)
    525a:	8082                	ret

0000525c <RFEND_RXAdc>:
RFEND_RXAdc():
    525c:	1fffe797          	auipc	a5,0x1fffe
    5260:	08478793          	addi	a5,a5,132 # 200032e0 <gptrRFENDReg>
    5264:	439c                	lw	a5,0(a5)
    5266:	7741                	lui	a4,0xffff0
    5268:	177d                	addi	a4,a4,-1
    526a:	4fb4                	lw	a3,88(a5)
    526c:	6641                	lui	a2,0x10
    526e:	8ef9                	and	a3,a3,a4
    5270:	cfb4                	sw	a3,88(a5)
    5272:	4794                	lw	a3,8(a5)
    5274:	8ed1                	or	a3,a3,a2
    5276:	c794                	sw	a3,8(a5)
    5278:	47d4                	lw	a3,12(a5)
    527a:	eff6f693          	andi	a3,a3,-257
    527e:	c7d4                	sw	a3,12(a5)
    5280:	43d4                	lw	a3,4(a5)
    5282:	8f75                	and	a4,a4,a3
    5284:	c3d8                	sw	a4,4(a5)
    5286:	47d4                	lw	a3,12(a5)
    5288:	1006e693          	ori	a3,a3,256
    528c:	c7d4                	sw	a3,12(a5)
    528e:	43d8                	lw	a4,4(a5)
    5290:	8f51                	or	a4,a4,a2
    5292:	c3d8                	sw	a4,4(a5)
    5294:	8082                	ret

00005296 <RFEND_TXCtune>:
RFEND_TXCtune():
    5296:	7139                	addi	sp,sp,-64
    5298:	dc22                	sw	s0,56(sp)
    529a:	1fffe417          	auipc	s0,0x1fffe
    529e:	04640413          	addi	s0,s0,70 # 200032e0 <gptrRFENDReg>
    52a2:	401c                	lw	a5,0(s0)
    52a4:	de06                	sw	ra,60(sp)
    52a6:	da26                	sw	s1,52(sp)
    52a8:	d84a                	sw	s2,48(sp)
    52aa:	d64e                	sw	s3,44(sp)
    52ac:	d452                	sw	s4,40(sp)
    52ae:	d256                	sw	s5,36(sp)
    52b0:	d05a                	sw	s6,32(sp)
    52b2:	ce5e                	sw	s7,28(sp)
    52b4:	cc62                	sw	s8,24(sp)
    52b6:	ca66                	sw	s9,20(sp)
    52b8:	c86a                	sw	s10,16(sp)
    52ba:	c66e                	sw	s11,12(sp)
    52bc:	43d8                	lw	a4,4(a5)
    52be:	76fd                	lui	a3,0xfffff
    52c0:	16fd                	addi	a3,a3,-1
    52c2:	eff77713          	andi	a4,a4,-257
    52c6:	c3d8                	sw	a4,4(a5)
    52c8:	5798                	lw	a4,40(a5)
    52ca:	8f75                	and	a4,a4,a3
    52cc:	d798                	sw	a4,40(a5)
    52ce:	57d8                	lw	a4,44(a5)
    52d0:	000206b7          	lui	a3,0x20
    52d4:	9b3d                	andi	a4,a4,-17
    52d6:	d7d8                	sw	a4,44(a5)
    52d8:	4798                	lw	a4,8(a5)
    52da:	8f55                	or	a4,a4,a3
    52dc:	c798                	sw	a4,8(a5)
    52de:	43d8                	lw	a4,4(a5)
    52e0:	01076713          	ori	a4,a4,16
    52e4:	c3d8                	sw	a4,4(a5)
    52e6:	8121c703          	lbu	a4,-2030(gp) # 2000174a <nCO2401>
    52ea:	8131c683          	lbu	a3,-2029(gp) # 2000174b <nGA2401>
    52ee:	8f55                	or	a4,a4,a3
    52f0:	ef61                	bnez	a4,53c8 <RFEND_TXCtune+0x132>
    52f2:	43d8                	lw	a4,4(a5)
    52f4:	7481                	lui	s1,0xfffe0
    52f6:	0ff48493          	addi	s1,s1,255 # fffe00ff <_eusrstack+0xdffd80ff>
    52fa:	9b79                	andi	a4,a4,-2
    52fc:	c3d8                	sw	a4,4(a5)
    52fe:	5f98                	lw	a4,56(a5)
    5300:	66b1                	lui	a3,0xc
    5302:	f0068693          	addi	a3,a3,-256 # bf00 <_data_lma+0x4614>
    5306:	8f65                	and	a4,a4,s1
    5308:	8f55                	or	a4,a4,a3
    530a:	df98                	sw	a4,56(a5)
    530c:	43d8                	lw	a4,4(a5)
    530e:	00176713          	ori	a4,a4,1
    5312:	c3d8                	sw	a4,4(a5)
    5314:	1fffc097          	auipc	ra,0x1fffc
    5318:	1d4080e7          	jalr	468(ra) # 200014e8 <RFEND_WaitTune>
    531c:	401c                	lw	a5,0(s0)
    531e:	0907a703          	lw	a4,144(a5)
    5322:	03f77713          	andi	a4,a4,63
    5326:	80e18923          	sb	a4,-2030(gp) # 2000174a <nCO2401>
    532a:	0947a703          	lw	a4,148(a5)
    532e:	8329                	srli	a4,a4,0xa
    5330:	07f77713          	andi	a4,a4,127
    5334:	80e189a3          	sb	a4,-2029(gp) # 2000174b <nGA2401>
    5338:	43d8                	lw	a4,4(a5)
    533a:	66b9                	lui	a3,0xe
    533c:	70068693          	addi	a3,a3,1792 # e700 <_data_lma+0x6e14>
    5340:	9b79                	andi	a4,a4,-2
    5342:	c3d8                	sw	a4,4(a5)
    5344:	5f98                	lw	a4,56(a5)
    5346:	8f65                	and	a4,a4,s1
    5348:	8f55                	or	a4,a4,a3
    534a:	df98                	sw	a4,56(a5)
    534c:	43d8                	lw	a4,4(a5)
    534e:	00176713          	ori	a4,a4,1
    5352:	c3d8                	sw	a4,4(a5)
    5354:	1fffc097          	auipc	ra,0x1fffc
    5358:	194080e7          	jalr	404(ra) # 200014e8 <RFEND_WaitTune>
    535c:	401c                	lw	a5,0(s0)
    535e:	0907a703          	lw	a4,144(a5)
    5362:	03f77713          	andi	a4,a4,63
    5366:	1fffe697          	auipc	a3,0x1fffe
    536a:	f6e68fa3          	sb	a4,-129(a3) # 200032e5 <nCO2480>
    536e:	0947a703          	lw	a4,148(a5)
    5372:	8329                	srli	a4,a4,0xa
    5374:	07f77713          	andi	a4,a4,127
    5378:	1fffe697          	auipc	a3,0x1fffe
    537c:	f6e682a3          	sb	a4,-155(a3) # 200032dd <nGA2480>
    5380:	43d8                	lw	a4,4(a5)
    5382:	66b5                	lui	a3,0xd
    5384:	30068693          	addi	a3,a3,768 # d300 <_data_lma+0x5a14>
    5388:	9b79                	andi	a4,a4,-2
    538a:	c3d8                	sw	a4,4(a5)
    538c:	5f98                	lw	a4,56(a5)
    538e:	8f65                	and	a4,a4,s1
    5390:	8f55                	or	a4,a4,a3
    5392:	df98                	sw	a4,56(a5)
    5394:	43d8                	lw	a4,4(a5)
    5396:	00176713          	ori	a4,a4,1
    539a:	c3d8                	sw	a4,4(a5)
    539c:	1fffc097          	auipc	ra,0x1fffc
    53a0:	14c080e7          	jalr	332(ra) # 200014e8 <RFEND_WaitTune>
    53a4:	4018                	lw	a4,0(s0)
    53a6:	09072783          	lw	a5,144(a4) # ffff0090 <_eusrstack+0xdffe8090>
    53aa:	03f7f793          	andi	a5,a5,63
    53ae:	1fffe697          	auipc	a3,0x1fffe
    53b2:	f2f68b23          	sb	a5,-202(a3) # 200032e4 <nCO2440>
    53b6:	09472783          	lw	a5,148(a4)
    53ba:	83a9                	srli	a5,a5,0xa
    53bc:	07f7f793          	andi	a5,a5,127
    53c0:	1fffe717          	auipc	a4,0x1fffe
    53c4:	f0f70e23          	sb	a5,-228(a4) # 200032dc <nGA2440>
    53c8:	401c                	lw	a5,0(s0)
    53ca:	1fffec17          	auipc	s8,0x1fffe
    53ce:	f1ac4c03          	lbu	s8,-230(s8) # 200032e4 <nCO2440>
    53d2:	8121c683          	lbu	a3,-2030(gp) # 2000174a <nCO2401>
    53d6:	0a07a703          	lw	a4,160(a5)
    53da:	418686b3          	sub	a3,a3,s8
    53de:	00f6f613          	andi	a2,a3,15
    53e2:	9b41                	andi	a4,a4,-16
    53e4:	8f51                	or	a4,a4,a2
    53e6:	0ae7a023          	sw	a4,160(a5)
    53ea:	02600713          	li	a4,38
    53ee:	02e68733          	mul	a4,a3,a4
    53f2:	02700613          	li	a2,39
    53f6:	0a07a583          	lw	a1,160(a5)
    53fa:	7e7d                	lui	t3,0xfffff
    53fc:	0ffe0e13          	addi	t3,t3,255 # fffff0ff <_eusrstack+0xdfff70ff>
    5400:	f0f5f593          	andi	a1,a1,-241
    5404:	02400513          	li	a0,36
    5408:	7345                	lui	t1,0xffff1
    540a:	137d                	addi	t1,t1,-1
    540c:	02300413          	li	s0,35
    5410:	02c74733          	div	a4,a4,a2
    5414:	fff108b7          	lui	a7,0xfff10
    5418:	18fd                	addi	a7,a7,-1
    541a:	02200813          	li	a6,34
    541e:	02100e93          	li	t4,33
    5422:	4f7d                	li	t5,31
    5424:	4ff9                	li	t6,30
    5426:	42f5                	li	t0,29
    5428:	43f1                	li	t2,28
    542a:	4d6d                	li	s10,27
    542c:	4bd1                	li	s7,20
    542e:	4b45                	li	s6,17
    5430:	44bd                	li	s1,15
    5432:	4939                	li	s2,14
    5434:	4a31                	li	s4,12
    5436:	4aad                	li	s5,11
    5438:	49b5                	li	s3,13
    543a:	8b3d                	andi	a4,a4,15
    543c:	0712                	slli	a4,a4,0x4
    543e:	8f4d                	or	a4,a4,a1
    5440:	02500593          	li	a1,37
    5444:	0ae7a023          	sw	a4,160(a5)
    5448:	02b68733          	mul	a4,a3,a1
    544c:	0a07a583          	lw	a1,160(a5)
    5450:	01c5f5b3          	and	a1,a1,t3
    5454:	02c74733          	div	a4,a4,a2
    5458:	8b3d                	andi	a4,a4,15
    545a:	0722                	slli	a4,a4,0x8
    545c:	8f4d                	or	a4,a4,a1
    545e:	0ae7a023          	sw	a4,160(a5)
    5462:	02a68733          	mul	a4,a3,a0
    5466:	0a07a583          	lw	a1,160(a5)
    546a:	f1000537          	lui	a0,0xf1000
    546e:	157d                	addi	a0,a0,-1
    5470:	0065f5b3          	and	a1,a1,t1
    5474:	02c74733          	div	a4,a4,a2
    5478:	8b3d                	andi	a4,a4,15
    547a:	0732                	slli	a4,a4,0xc
    547c:	8f4d                	or	a4,a4,a1
    547e:	0ae7a023          	sw	a4,160(a5)
    5482:	02868733          	mul	a4,a3,s0
    5486:	0a07a583          	lw	a1,160(a5)
    548a:	4461                	li	s0,24
    548c:	0115f5b3          	and	a1,a1,a7
    5490:	02c74733          	div	a4,a4,a2
    5494:	8b3d                	andi	a4,a4,15
    5496:	0742                	slli	a4,a4,0x10
    5498:	8f4d                	or	a4,a4,a1
    549a:	0ae7a023          	sw	a4,160(a5)
    549e:	03068733          	mul	a4,a3,a6
    54a2:	0a07a583          	lw	a1,160(a5)
    54a6:	ff100837          	lui	a6,0xff100
    54aa:	187d                	addi	a6,a6,-1
    54ac:	0105f5b3          	and	a1,a1,a6
    54b0:	02c74733          	div	a4,a4,a2
    54b4:	8b3d                	andi	a4,a4,15
    54b6:	0752                	slli	a4,a4,0x14
    54b8:	8f4d                	or	a4,a4,a1
    54ba:	0ae7a023          	sw	a4,160(a5)
    54be:	03d68733          	mul	a4,a3,t4
    54c2:	0a07a583          	lw	a1,160(a5)
    54c6:	10000eb7          	lui	t4,0x10000
    54ca:	1efd                	addi	t4,t4,-1
    54cc:	8de9                	and	a1,a1,a0
    54ce:	02c74733          	div	a4,a4,a2
    54d2:	8b3d                	andi	a4,a4,15
    54d4:	0762                	slli	a4,a4,0x18
    54d6:	8f4d                	or	a4,a4,a1
    54d8:	0ae7a023          	sw	a4,160(a5)
    54dc:	00569713          	slli	a4,a3,0x5
    54e0:	02c74733          	div	a4,a4,a2
    54e4:	01c71593          	slli	a1,a4,0x1c
    54e8:	0a07a703          	lw	a4,160(a5)
    54ec:	01d77733          	and	a4,a4,t4
    54f0:	8f4d                	or	a4,a4,a1
    54f2:	0ae7a023          	sw	a4,160(a5)
    54f6:	03e68733          	mul	a4,a3,t5
    54fa:	4f5d                	li	t5,23
    54fc:	02c74733          	div	a4,a4,a2
    5500:	00f77593          	andi	a1,a4,15
    5504:	0a47a703          	lw	a4,164(a5)
    5508:	9b41                	andi	a4,a4,-16
    550a:	8f4d                	or	a4,a4,a1
    550c:	0ae7a223          	sw	a4,164(a5)
    5510:	03f68733          	mul	a4,a3,t6
    5514:	0a47a583          	lw	a1,164(a5)
    5518:	4fd9                	li	t6,22
    551a:	f0f5f593          	andi	a1,a1,-241
    551e:	02c74733          	div	a4,a4,a2
    5522:	8b3d                	andi	a4,a4,15
    5524:	0712                	slli	a4,a4,0x4
    5526:	8f4d                	or	a4,a4,a1
    5528:	0ae7a223          	sw	a4,164(a5)
    552c:	02568733          	mul	a4,a3,t0
    5530:	0a47a583          	lw	a1,164(a5)
    5534:	42d5                	li	t0,21
    5536:	01c5f5b3          	and	a1,a1,t3
    553a:	02c74733          	div	a4,a4,a2
    553e:	8b3d                	andi	a4,a4,15
    5540:	0722                	slli	a4,a4,0x8
    5542:	8f4d                	or	a4,a4,a1
    5544:	0ae7a223          	sw	a4,164(a5)
    5548:	02768733          	mul	a4,a3,t2
    554c:	0a47a583          	lw	a1,164(a5)
    5550:	43cd                	li	t2,19
    5552:	0065f5b3          	and	a1,a1,t1
    5556:	02c74733          	div	a4,a4,a2
    555a:	8b3d                	andi	a4,a4,15
    555c:	0732                	slli	a4,a4,0xc
    555e:	8f4d                	or	a4,a4,a1
    5560:	0ae7a223          	sw	a4,164(a5)
    5564:	03a68733          	mul	a4,a3,s10
    5568:	0a47a583          	lw	a1,164(a5)
    556c:	4d49                	li	s10,18
    556e:	0115f5b3          	and	a1,a1,a7
    5572:	02c74733          	div	a4,a4,a2
    5576:	8b3d                	andi	a4,a4,15
    5578:	0742                	slli	a4,a4,0x10
    557a:	8f4d                	or	a4,a4,a1
    557c:	0ae7a223          	sw	a4,164(a5)
    5580:	4769                	li	a4,26
    5582:	02e68733          	mul	a4,a3,a4
    5586:	0a47a583          	lw	a1,164(a5)
    558a:	0105f5b3          	and	a1,a1,a6
    558e:	02c74733          	div	a4,a4,a2
    5592:	8b3d                	andi	a4,a4,15
    5594:	0752                	slli	a4,a4,0x14
    5596:	8f4d                	or	a4,a4,a1
    5598:	45e5                	li	a1,25
    559a:	0ae7a223          	sw	a4,164(a5)
    559e:	02b68733          	mul	a4,a3,a1
    55a2:	0a47a583          	lw	a1,164(a5)
    55a6:	8de9                	and	a1,a1,a0
    55a8:	02c74733          	div	a4,a4,a2
    55ac:	8b3d                	andi	a4,a4,15
    55ae:	0762                	slli	a4,a4,0x18
    55b0:	8f4d                	or	a4,a4,a1
    55b2:	0ae7a223          	sw	a4,164(a5)
    55b6:	02868733          	mul	a4,a3,s0
    55ba:	440d                	li	s0,3
    55bc:	02c74733          	div	a4,a4,a2
    55c0:	01c71593          	slli	a1,a4,0x1c
    55c4:	0a47a703          	lw	a4,164(a5)
    55c8:	01d77733          	and	a4,a4,t4
    55cc:	8f4d                	or	a4,a4,a1
    55ce:	0ae7a223          	sw	a4,164(a5)
    55d2:	03e68733          	mul	a4,a3,t5
    55d6:	4f25                	li	t5,9
    55d8:	02c74733          	div	a4,a4,a2
    55dc:	00f77593          	andi	a1,a4,15
    55e0:	0a87a703          	lw	a4,168(a5)
    55e4:	9b41                	andi	a4,a4,-16
    55e6:	8f4d                	or	a4,a4,a1
    55e8:	0ae7a423          	sw	a4,168(a5)
    55ec:	03f68733          	mul	a4,a3,t6
    55f0:	0a87a583          	lw	a1,168(a5)
    55f4:	4f9d                	li	t6,7
    55f6:	f0f5f593          	andi	a1,a1,-241
    55fa:	02c74733          	div	a4,a4,a2
    55fe:	8b3d                	andi	a4,a4,15
    5600:	0712                	slli	a4,a4,0x4
    5602:	8f4d                	or	a4,a4,a1
    5604:	0ae7a423          	sw	a4,168(a5)
    5608:	02568733          	mul	a4,a3,t0
    560c:	0a87a583          	lw	a1,168(a5)
    5610:	4299                	li	t0,6
    5612:	01c5f5b3          	and	a1,a1,t3
    5616:	02c74733          	div	a4,a4,a2
    561a:	8b3d                	andi	a4,a4,15
    561c:	0722                	slli	a4,a4,0x8
    561e:	8f4d                	or	a4,a4,a1
    5620:	0ae7a423          	sw	a4,168(a5)
    5624:	03768733          	mul	a4,a3,s7
    5628:	0a87a583          	lw	a1,168(a5)
    562c:	0065f5b3          	and	a1,a1,t1
    5630:	02c74733          	div	a4,a4,a2
    5634:	8b3d                	andi	a4,a4,15
    5636:	0732                	slli	a4,a4,0xc
    5638:	8f4d                	or	a4,a4,a1
    563a:	0ae7a423          	sw	a4,168(a5)
    563e:	02768733          	mul	a4,a3,t2
    5642:	0a87a583          	lw	a1,168(a5)
    5646:	4395                	li	t2,5
    5648:	0115f5b3          	and	a1,a1,a7
    564c:	02c74733          	div	a4,a4,a2
    5650:	8b3d                	andi	a4,a4,15
    5652:	0742                	slli	a4,a4,0x10
    5654:	8f4d                	or	a4,a4,a1
    5656:	0ae7a423          	sw	a4,168(a5)
    565a:	03a68733          	mul	a4,a3,s10
    565e:	0a87a583          	lw	a1,168(a5)
    5662:	4d29                	li	s10,10
    5664:	0105f5b3          	and	a1,a1,a6
    5668:	02c74733          	div	a4,a4,a2
    566c:	8b3d                	andi	a4,a4,15
    566e:	0752                	slli	a4,a4,0x14
    5670:	8f4d                	or	a4,a4,a1
    5672:	0ae7a423          	sw	a4,168(a5)
    5676:	03668733          	mul	a4,a3,s6
    567a:	0a87a583          	lw	a1,168(a5)
    567e:	8de9                	and	a1,a1,a0
    5680:	02c74733          	div	a4,a4,a2
    5684:	8b3d                	andi	a4,a4,15
    5686:	0762                	slli	a4,a4,0x18
    5688:	8f4d                	or	a4,a4,a1
    568a:	00469593          	slli	a1,a3,0x4
    568e:	02c5c5b3          	div	a1,a1,a2
    5692:	0ae7a423          	sw	a4,168(a5)
    5696:	0a87a703          	lw	a4,168(a5)
    569a:	01d77733          	and	a4,a4,t4
    569e:	05f2                	slli	a1,a1,0x1c
    56a0:	8f4d                	or	a4,a4,a1
    56a2:	029685b3          	mul	a1,a3,s1
    56a6:	0ae7a423          	sw	a4,168(a5)
    56aa:	0ac7a703          	lw	a4,172(a5)
    56ae:	9b41                	andi	a4,a4,-16
    56b0:	02c5c5b3          	div	a1,a1,a2
    56b4:	89bd                	andi	a1,a1,15
    56b6:	8f4d                	or	a4,a4,a1
    56b8:	0ae7a623          	sw	a4,172(a5)
    56bc:	03268733          	mul	a4,a3,s2
    56c0:	0ac7a583          	lw	a1,172(a5)
    56c4:	f0f5f593          	andi	a1,a1,-241
    56c8:	02c74733          	div	a4,a4,a2
    56cc:	8b3d                	andi	a4,a4,15
    56ce:	0712                	slli	a4,a4,0x4
    56d0:	8f4d                	or	a4,a4,a1
    56d2:	0286c5b3          	div	a1,a3,s0
    56d6:	0ae7a623          	sw	a4,172(a5)
    56da:	0ac7a703          	lw	a4,172(a5)
    56de:	01c77733          	and	a4,a4,t3
    56e2:	89bd                	andi	a1,a1,15
    56e4:	05a2                	slli	a1,a1,0x8
    56e6:	8f4d                	or	a4,a4,a1
    56e8:	0ae7a623          	sw	a4,172(a5)
    56ec:	03468733          	mul	a4,a3,s4
    56f0:	0ac7a583          	lw	a1,172(a5)
    56f4:	0065f5b3          	and	a1,a1,t1
    56f8:	02c74733          	div	a4,a4,a2
    56fc:	8b3d                	andi	a4,a4,15
    56fe:	0732                	slli	a4,a4,0xc
    5700:	8f4d                	or	a4,a4,a1
    5702:	0ae7a623          	sw	a4,172(a5)
    5706:	03568733          	mul	a4,a3,s5
    570a:	0ac7a583          	lw	a1,172(a5)
    570e:	0115f5b3          	and	a1,a1,a7
    5712:	02c74733          	div	a4,a4,a2
    5716:	8b3d                	andi	a4,a4,15
    5718:	0742                	slli	a4,a4,0x10
    571a:	8f4d                	or	a4,a4,a1
    571c:	0ae7a623          	sw	a4,172(a5)
    5720:	03a68733          	mul	a4,a3,s10
    5724:	0ac7a583          	lw	a1,172(a5)
    5728:	0105f5b3          	and	a1,a1,a6
    572c:	02c74733          	div	a4,a4,a2
    5730:	8b3d                	andi	a4,a4,15
    5732:	0752                	slli	a4,a4,0x14
    5734:	8f4d                	or	a4,a4,a1
    5736:	0ae7a623          	sw	a4,172(a5)
    573a:	03e68733          	mul	a4,a3,t5
    573e:	0ac7a583          	lw	a1,172(a5)
    5742:	8de9                	and	a1,a1,a0
    5744:	02c74733          	div	a4,a4,a2
    5748:	8b3d                	andi	a4,a4,15
    574a:	0762                	slli	a4,a4,0x18
    574c:	8f4d                	or	a4,a4,a1
    574e:	00369593          	slli	a1,a3,0x3
    5752:	02c5c5b3          	div	a1,a1,a2
    5756:	0ae7a623          	sw	a4,172(a5)
    575a:	0ac7a703          	lw	a4,172(a5)
    575e:	01d77733          	and	a4,a4,t4
    5762:	05f2                	slli	a1,a1,0x1c
    5764:	8f4d                	or	a4,a4,a1
    5766:	03f685b3          	mul	a1,a3,t6
    576a:	0ae7a623          	sw	a4,172(a5)
    576e:	0b07a703          	lw	a4,176(a5)
    5772:	9b41                	andi	a4,a4,-16
    5774:	02c5c5b3          	div	a1,a1,a2
    5778:	89bd                	andi	a1,a1,15
    577a:	8f4d                	or	a4,a4,a1
    577c:	0ae7a823          	sw	a4,176(a5)
    5780:	02568733          	mul	a4,a3,t0
    5784:	0b07a583          	lw	a1,176(a5)
    5788:	f0f5f593          	andi	a1,a1,-241
    578c:	02c74733          	div	a4,a4,a2
    5790:	8b3d                	andi	a4,a4,15
    5792:	0712                	slli	a4,a4,0x4
    5794:	8f4d                	or	a4,a4,a1
    5796:	0ae7a823          	sw	a4,176(a5)
    579a:	02768733          	mul	a4,a3,t2
    579e:	0b07a583          	lw	a1,176(a5)
    57a2:	01c5f5b3          	and	a1,a1,t3
    57a6:	02c74733          	div	a4,a4,a2
    57aa:	8b3d                	andi	a4,a4,15
    57ac:	0722                	slli	a4,a4,0x8
    57ae:	8f4d                	or	a4,a4,a1
    57b0:	0ae7a823          	sw	a4,176(a5)
    57b4:	00269713          	slli	a4,a3,0x2
    57b8:	02c74733          	div	a4,a4,a2
    57bc:	0b07a583          	lw	a1,176(a5)
    57c0:	0065f5b3          	and	a1,a1,t1
    57c4:	8b3d                	andi	a4,a4,15
    57c6:	0732                	slli	a4,a4,0xc
    57c8:	8f4d                	or	a4,a4,a1
    57ca:	0336c5b3          	div	a1,a3,s3
    57ce:	0ae7a823          	sw	a4,176(a5)
    57d2:	0b07a703          	lw	a4,176(a5)
    57d6:	01177733          	and	a4,a4,a7
    57da:	89bd                	andi	a1,a1,15
    57dc:	05c2                	slli	a1,a1,0x10
    57de:	8f4d                	or	a4,a4,a1
    57e0:	0ae7a823          	sw	a4,176(a5)
    57e4:	00169713          	slli	a4,a3,0x1
    57e8:	02c74733          	div	a4,a4,a2
    57ec:	0b07a583          	lw	a1,176(a5)
    57f0:	0105f5b3          	and	a1,a1,a6
    57f4:	8b3d                	andi	a4,a4,15
    57f6:	0752                	slli	a4,a4,0x14
    57f8:	8f4d                	or	a4,a4,a1
    57fa:	02c6c5b3          	div	a1,a3,a2
    57fe:	0ae7a823          	sw	a4,176(a5)
    5802:	0b07a703          	lw	a4,176(a5)
    5806:	8f69                	and	a4,a4,a0
    5808:	89bd                	andi	a1,a1,15
    580a:	05e2                	slli	a1,a1,0x18
    580c:	8f4d                	or	a4,a4,a1
    580e:	0ae7a823          	sw	a4,176(a5)
    5812:	0b07a703          	lw	a4,176(a5)
    5816:	02800593          	li	a1,40
    581a:	01d77733          	and	a4,a4,t4
    581e:	0ae7a823          	sw	a4,176(a5)
    5822:	1fffe717          	auipc	a4,0x1fffe
    5826:	ac374703          	lbu	a4,-1341(a4) # 200032e5 <nCO2480>
    582a:	40ec0733          	sub	a4,s8,a4
    582e:	02b74db3          	div	s11,a4,a1
    5832:	0b47ac83          	lw	s9,180(a5)
    5836:	ff0cfc93          	andi	s9,s9,-16
    583a:	03774bb3          	div	s7,a4,s7
    583e:	00fdfd93          	andi	s11,s11,15
    5842:	01bcecb3          	or	s9,s9,s11
    5846:	0b97aa23          	sw	s9,180(a5)
    584a:	0b47ac83          	lw	s9,180(a5)
    584e:	4dcd                	li	s11,19
    5850:	f0fcfc93          	andi	s9,s9,-241
    5854:	00fbfb93          	andi	s7,s7,15
    5858:	0b92                	slli	s7,s7,0x4
    585a:	017cebb3          	or	s7,s9,s7
    585e:	0b77aa23          	sw	s7,180(a5)
    5862:	02870bb3          	mul	s7,a4,s0
    5866:	0b47ac83          	lw	s9,180(a5)
    586a:	01ccfcb3          	and	s9,s9,t3
    586e:	02bbcbb3          	div	s7,s7,a1
    5872:	00fbfb93          	andi	s7,s7,15
    5876:	0ba2                	slli	s7,s7,0x8
    5878:	017cebb3          	or	s7,s9,s7
    587c:	03a74cb3          	div	s9,a4,s10
    5880:	0b77aa23          	sw	s7,180(a5)
    5884:	0b47ab83          	lw	s7,180(a5)
    5888:	006bfbb3          	and	s7,s7,t1
    588c:	00fcfc93          	andi	s9,s9,15
    5890:	0cb2                	slli	s9,s9,0xc
    5892:	019bebb3          	or	s7,s7,s9
    5896:	0b77aa23          	sw	s7,180(a5)
    589a:	4ba1                	li	s7,8
    589c:	03774bb3          	div	s7,a4,s7
    58a0:	0b47ac83          	lw	s9,180(a5)
    58a4:	011cfcb3          	and	s9,s9,a7
    58a8:	00fbfb93          	andi	s7,s7,15
    58ac:	0bc2                	slli	s7,s7,0x10
    58ae:	017cebb3          	or	s7,s9,s7
    58b2:	0b77aa23          	sw	s7,180(a5)
    58b6:	02570bb3          	mul	s7,a4,t0
    58ba:	0b47ac83          	lw	s9,180(a5)
    58be:	010cfcb3          	and	s9,s9,a6
    58c2:	02bbcbb3          	div	s7,s7,a1
    58c6:	00fbfb93          	andi	s7,s7,15
    58ca:	0bd2                	slli	s7,s7,0x14
    58cc:	017cebb3          	or	s7,s9,s7
    58d0:	0b77aa23          	sw	s7,180(a5)
    58d4:	03f70bb3          	mul	s7,a4,t6
    58d8:	0b47ac83          	lw	s9,180(a5)
    58dc:	00acfcb3          	and	s9,s9,a0
    58e0:	02bbcbb3          	div	s7,s7,a1
    58e4:	00fbfb93          	andi	s7,s7,15
    58e8:	0be2                	slli	s7,s7,0x18
    58ea:	017cebb3          	or	s7,s9,s7
    58ee:	02774cb3          	div	s9,a4,t2
    58f2:	0b77aa23          	sw	s7,180(a5)
    58f6:	0b47ab83          	lw	s7,180(a5)
    58fa:	01dbfbb3          	and	s7,s7,t4
    58fe:	0cf2                	slli	s9,s9,0x1c
    5900:	019bebb3          	or	s7,s7,s9
    5904:	03e70cb3          	mul	s9,a4,t5
    5908:	0b77aa23          	sw	s7,180(a5)
    590c:	0b87ab83          	lw	s7,184(a5)
    5910:	ff0bfb93          	andi	s7,s7,-16
    5914:	02bcccb3          	div	s9,s9,a1
    5918:	03570ab3          	mul	s5,a4,s5
    591c:	00fcfc93          	andi	s9,s9,15
    5920:	019bebb3          	or	s7,s7,s9
    5924:	0b77ac23          	sw	s7,184(a5)
    5928:	4b91                	li	s7,4
    592a:	0b87ac83          	lw	s9,184(a5)
    592e:	f0fcfc93          	andi	s9,s9,-241
    5932:	03774bb3          	div	s7,a4,s7
    5936:	03470a33          	mul	s4,a4,s4
    593a:	00fbfb93          	andi	s7,s7,15
    593e:	0b92                	slli	s7,s7,0x4
    5940:	017cebb3          	or	s7,s9,s7
    5944:	0b77ac23          	sw	s7,184(a5)
    5948:	0b87ab83          	lw	s7,184(a5)
    594c:	4cd5                	li	s9,21
    594e:	01cbfbb3          	and	s7,s7,t3
    5952:	02bacab3          	div	s5,s5,a1
    5956:	033709b3          	mul	s3,a4,s3
    595a:	00fafa93          	andi	s5,s5,15
    595e:	0aa2                	slli	s5,s5,0x8
    5960:	015beab3          	or	s5,s7,s5
    5964:	0b57ac23          	sw	s5,184(a5)
    5968:	0b87aa83          	lw	s5,184(a5)
    596c:	4bd9                	li	s7,22
    596e:	006afab3          	and	s5,s5,t1
    5972:	02ba4a33          	div	s4,s4,a1
    5976:	03270933          	mul	s2,a4,s2
    597a:	00fa7a13          	andi	s4,s4,15
    597e:	0a32                	slli	s4,s4,0xc
    5980:	014aea33          	or	s4,s5,s4
    5984:	0b47ac23          	sw	s4,184(a5)
    5988:	0b87aa03          	lw	s4,184(a5)
    598c:	4ae1                	li	s5,24
    598e:	011a7a33          	and	s4,s4,a7
    5992:	02b9c9b3          	div	s3,s3,a1
    5996:	029704b3          	mul	s1,a4,s1
    599a:	00f9f993          	andi	s3,s3,15
    599e:	09c2                	slli	s3,s3,0x10
    59a0:	013a69b3          	or	s3,s4,s3
    59a4:	0b37ac23          	sw	s3,184(a5)
    59a8:	0b87a983          	lw	s3,184(a5)
    59ac:	4a65                	li	s4,25
    59ae:	0109f9b3          	and	s3,s3,a6
    59b2:	02b94933          	div	s2,s2,a1
    59b6:	02b4c4b3          	div	s1,s1,a1
    59ba:	00f97913          	andi	s2,s2,15
    59be:	0952                	slli	s2,s2,0x14
    59c0:	0129e933          	or	s2,s3,s2
    59c4:	0b27ac23          	sw	s2,184(a5)
    59c8:	0b87a903          	lw	s2,184(a5)
    59cc:	49e9                	li	s3,26
    59ce:	00a97933          	and	s2,s2,a0
    59d2:	03670b33          	mul	s6,a4,s6
    59d6:	88bd                	andi	s1,s1,15
    59d8:	04e2                	slli	s1,s1,0x18
    59da:	009964b3          	or	s1,s2,s1
    59de:	00471913          	slli	s2,a4,0x4
    59e2:	0a97ac23          	sw	s1,184(a5)
    59e6:	0b87a483          	lw	s1,184(a5)
    59ea:	01d4f4b3          	and	s1,s1,t4
    59ee:	02b94933          	div	s2,s2,a1
    59f2:	02bb4b33          	div	s6,s6,a1
    59f6:	0972                	slli	s2,s2,0x1c
    59f8:	0124e4b3          	or	s1,s1,s2
    59fc:	0a97ac23          	sw	s1,184(a5)
    5a00:	0bc7a483          	lw	s1,188(a5)
    5a04:	98c1                	andi	s1,s1,-16
    5a06:	00fb7b13          	andi	s6,s6,15
    5a0a:	0164eb33          	or	s6,s1,s6
    5a0e:	44c9                	li	s1,18
    5a10:	029704b3          	mul	s1,a4,s1
    5a14:	0b67ae23          	sw	s6,188(a5)
    5a18:	0bc7a903          	lw	s2,188(a5)
    5a1c:	4b5d                	li	s6,23
    5a1e:	f0f97913          	andi	s2,s2,-241
    5a22:	02b4c4b3          	div	s1,s1,a1
    5a26:	88bd                	andi	s1,s1,15
    5a28:	0492                	slli	s1,s1,0x4
    5a2a:	009964b3          	or	s1,s2,s1
    5a2e:	0a97ae23          	sw	s1,188(a5)
    5a32:	03b704b3          	mul	s1,a4,s11
    5a36:	0bc7a903          	lw	s2,188(a5)
    5a3a:	4df5                	li	s11,29
    5a3c:	01c97933          	and	s2,s2,t3
    5a40:	02b4c4b3          	div	s1,s1,a1
    5a44:	88bd                	andi	s1,s1,15
    5a46:	04a2                	slli	s1,s1,0x8
    5a48:	009964b3          	or	s1,s2,s1
    5a4c:	0a97ae23          	sw	s1,188(a5)
    5a50:	4489                	li	s1,2
    5a52:	029744b3          	div	s1,a4,s1
    5a56:	0bc7a903          	lw	s2,188(a5)
    5a5a:	00697933          	and	s2,s2,t1
    5a5e:	88bd                	andi	s1,s1,15
    5a60:	04b2                	slli	s1,s1,0xc
    5a62:	009964b3          	or	s1,s2,s1
    5a66:	0a97ae23          	sw	s1,188(a5)
    5a6a:	039704b3          	mul	s1,a4,s9
    5a6e:	0bc7a903          	lw	s2,188(a5)
    5a72:	4cf9                	li	s9,30
    5a74:	01197933          	and	s2,s2,a7
    5a78:	02b4c4b3          	div	s1,s1,a1
    5a7c:	88bd                	andi	s1,s1,15
    5a7e:	04c2                	slli	s1,s1,0x10
    5a80:	009964b3          	or	s1,s2,s1
    5a84:	0a97ae23          	sw	s1,188(a5)
    5a88:	037704b3          	mul	s1,a4,s7
    5a8c:	0bc7a903          	lw	s2,188(a5)
    5a90:	4bfd                	li	s7,31
    5a92:	01097933          	and	s2,s2,a6
    5a96:	02b4c4b3          	div	s1,s1,a1
    5a9a:	88bd                	andi	s1,s1,15
    5a9c:	04d2                	slli	s1,s1,0x14
    5a9e:	009964b3          	or	s1,s2,s1
    5aa2:	0a97ae23          	sw	s1,188(a5)
    5aa6:	036704b3          	mul	s1,a4,s6
    5aaa:	0bc7a903          	lw	s2,188(a5)
    5aae:	02100b13          	li	s6,33
    5ab2:	00a97933          	and	s2,s2,a0
    5ab6:	02b4c4b3          	div	s1,s1,a1
    5aba:	88bd                	andi	s1,s1,15
    5abc:	04e2                	slli	s1,s1,0x18
    5abe:	009964b3          	or	s1,s2,s1
    5ac2:	0a97ae23          	sw	s1,188(a5)
    5ac6:	035704b3          	mul	s1,a4,s5
    5aca:	0bc7a903          	lw	s2,188(a5)
    5ace:	02200a93          	li	s5,34
    5ad2:	01d97933          	and	s2,s2,t4
    5ad6:	02b4c4b3          	div	s1,s1,a1
    5ada:	04f2                	slli	s1,s1,0x1c
    5adc:	009964b3          	or	s1,s2,s1
    5ae0:	0a97ae23          	sw	s1,188(a5)
    5ae4:	034704b3          	mul	s1,a4,s4
    5ae8:	0c07a903          	lw	s2,192(a5)
    5aec:	02300a13          	li	s4,35
    5af0:	ff097913          	andi	s2,s2,-16
    5af4:	02b4c4b3          	div	s1,s1,a1
    5af8:	88bd                	andi	s1,s1,15
    5afa:	009964b3          	or	s1,s2,s1
    5afe:	0c97a023          	sw	s1,192(a5)
    5b02:	033704b3          	mul	s1,a4,s3
    5b06:	0c07a903          	lw	s2,192(a5)
    5b0a:	02400993          	li	s3,36
    5b0e:	f0f97913          	andi	s2,s2,-241
    5b12:	02b4c4b3          	div	s1,s1,a1
    5b16:	88bd                	andi	s1,s1,15
    5b18:	0492                	slli	s1,s1,0x4
    5b1a:	009964b3          	or	s1,s2,s1
    5b1e:	496d                	li	s2,27
    5b20:	0c97a023          	sw	s1,192(a5)
    5b24:	032704b3          	mul	s1,a4,s2
    5b28:	0c07a903          	lw	s2,192(a5)
    5b2c:	01c97933          	and	s2,s2,t3
    5b30:	02b4c4b3          	div	s1,s1,a1
    5b34:	88bd                	andi	s1,s1,15
    5b36:	04a2                	slli	s1,s1,0x8
    5b38:	009964b3          	or	s1,s2,s1
    5b3c:	0c97a023          	sw	s1,192(a5)
    5b40:	44f1                	li	s1,28
    5b42:	029704b3          	mul	s1,a4,s1
    5b46:	0c07a903          	lw	s2,192(a5)
    5b4a:	00697933          	and	s2,s2,t1
    5b4e:	02b4c4b3          	div	s1,s1,a1
    5b52:	88bd                	andi	s1,s1,15
    5b54:	04b2                	slli	s1,s1,0xc
    5b56:	009964b3          	or	s1,s2,s1
    5b5a:	0c97a023          	sw	s1,192(a5)
    5b5e:	03b704b3          	mul	s1,a4,s11
    5b62:	0c07a903          	lw	s2,192(a5)
    5b66:	01197933          	and	s2,s2,a7
    5b6a:	02b4c4b3          	div	s1,s1,a1
    5b6e:	88bd                	andi	s1,s1,15
    5b70:	04c2                	slli	s1,s1,0x10
    5b72:	009964b3          	or	s1,s2,s1
    5b76:	0c97a023          	sw	s1,192(a5)
    5b7a:	039704b3          	mul	s1,a4,s9
    5b7e:	0c07a903          	lw	s2,192(a5)
    5b82:	01097933          	and	s2,s2,a6
    5b86:	02b4c4b3          	div	s1,s1,a1
    5b8a:	88bd                	andi	s1,s1,15
    5b8c:	04d2                	slli	s1,s1,0x14
    5b8e:	009964b3          	or	s1,s2,s1
    5b92:	0c97a023          	sw	s1,192(a5)
    5b96:	037704b3          	mul	s1,a4,s7
    5b9a:	0c07a903          	lw	s2,192(a5)
    5b9e:	00a97933          	and	s2,s2,a0
    5ba2:	02b4c4b3          	div	s1,s1,a1
    5ba6:	88bd                	andi	s1,s1,15
    5ba8:	04e2                	slli	s1,s1,0x18
    5baa:	009964b3          	or	s1,s2,s1
    5bae:	0c97a023          	sw	s1,192(a5)
    5bb2:	00571493          	slli	s1,a4,0x5
    5bb6:	02b4c4b3          	div	s1,s1,a1
    5bba:	01c49913          	slli	s2,s1,0x1c
    5bbe:	0c07a483          	lw	s1,192(a5)
    5bc2:	02c70633          	mul	a2,a4,a2
    5bc6:	01d4f4b3          	and	s1,s1,t4
    5bca:	0124e4b3          	or	s1,s1,s2
    5bce:	0c97a023          	sw	s1,192(a5)
    5bd2:	0c47a903          	lw	s2,196(a5)
    5bd6:	ff097913          	andi	s2,s2,-16
    5bda:	036704b3          	mul	s1,a4,s6
    5bde:	02b4c4b3          	div	s1,s1,a1
    5be2:	88bd                	andi	s1,s1,15
    5be4:	009964b3          	or	s1,s2,s1
    5be8:	0c97a223          	sw	s1,196(a5)
    5bec:	035704b3          	mul	s1,a4,s5
    5bf0:	0c47a903          	lw	s2,196(a5)
    5bf4:	f0f97913          	andi	s2,s2,-241
    5bf8:	02b4c4b3          	div	s1,s1,a1
    5bfc:	88bd                	andi	s1,s1,15
    5bfe:	0492                	slli	s1,s1,0x4
    5c00:	009964b3          	or	s1,s2,s1
    5c04:	0c97a223          	sw	s1,196(a5)
    5c08:	034704b3          	mul	s1,a4,s4
    5c0c:	0c47a903          	lw	s2,196(a5)
    5c10:	01c97933          	and	s2,s2,t3
    5c14:	02b4c4b3          	div	s1,s1,a1
    5c18:	88bd                	andi	s1,s1,15
    5c1a:	04a2                	slli	s1,s1,0x8
    5c1c:	009964b3          	or	s1,s2,s1
    5c20:	0c97a223          	sw	s1,196(a5)
    5c24:	033704b3          	mul	s1,a4,s3
    5c28:	0c47a903          	lw	s2,196(a5)
    5c2c:	00697933          	and	s2,s2,t1
    5c30:	02b4c4b3          	div	s1,s1,a1
    5c34:	88bd                	andi	s1,s1,15
    5c36:	04b2                	slli	s1,s1,0xc
    5c38:	009964b3          	or	s1,s2,s1
    5c3c:	02500913          	li	s2,37
    5c40:	0c97a223          	sw	s1,196(a5)
    5c44:	032704b3          	mul	s1,a4,s2
    5c48:	0c47a903          	lw	s2,196(a5)
    5c4c:	01197933          	and	s2,s2,a7
    5c50:	02b4c4b3          	div	s1,s1,a1
    5c54:	88bd                	andi	s1,s1,15
    5c56:	04c2                	slli	s1,s1,0x10
    5c58:	009964b3          	or	s1,s2,s1
    5c5c:	0c97a223          	sw	s1,196(a5)
    5c60:	02600493          	li	s1,38
    5c64:	029704b3          	mul	s1,a4,s1
    5c68:	0c47a903          	lw	s2,196(a5)
    5c6c:	01097933          	and	s2,s2,a6
    5c70:	02b4c4b3          	div	s1,s1,a1
    5c74:	02b64633          	div	a2,a2,a1
    5c78:	88bd                	andi	s1,s1,15
    5c7a:	04d2                	slli	s1,s1,0x14
    5c7c:	009964b3          	or	s1,s2,s1
    5c80:	0c97a223          	sw	s1,196(a5)
    5c84:	0c47a483          	lw	s1,196(a5)
    5c88:	8ce9                	and	s1,s1,a0
    5c8a:	8a3d                	andi	a2,a2,15
    5c8c:	0662                	slli	a2,a2,0x18
    5c8e:	8e45                	or	a2,a2,s1
    5c90:	0cc7a223          	sw	a2,196(a5)
    5c94:	0c47a603          	lw	a2,196(a5)
    5c98:	01c71493          	slli	s1,a4,0x1c
    5c9c:	01d67633          	and	a2,a2,t4
    5ca0:	8e45                	or	a2,a2,s1
    5ca2:	0cc7a223          	sw	a2,196(a5)
    5ca6:	02900613          	li	a2,41
    5caa:	02c70633          	mul	a2,a4,a2
    5cae:	0c87a483          	lw	s1,200(a5)
    5cb2:	98c1                	andi	s1,s1,-16
    5cb4:	02b64633          	div	a2,a2,a1
    5cb8:	8a3d                	andi	a2,a2,15
    5cba:	8e45                	or	a2,a2,s1
    5cbc:	0cc7a423          	sw	a2,200(a5)
    5cc0:	02a00613          	li	a2,42
    5cc4:	02c70633          	mul	a2,a4,a2
    5cc8:	02b645b3          	div	a1,a2,a1
    5ccc:	0c87a603          	lw	a2,200(a5)
    5cd0:	f0f67613          	andi	a2,a2,-241
    5cd4:	89bd                	andi	a1,a1,15
    5cd6:	0592                	slli	a1,a1,0x4
    5cd8:	8dd1                	or	a1,a1,a2
    5cda:	0cb7a423          	sw	a1,200(a5)
    5cde:	1fffd597          	auipc	a1,0x1fffd
    5ce2:	5fe5c583          	lbu	a1,1534(a1) # 200032dc <nGA2440>
    5ce6:	1fffd617          	auipc	a2,0x1fffd
    5cea:	5f764603          	lbu	a2,1527(a2) # 200032dd <nGA2480>
    5cee:	40c58633          	sub	a2,a1,a2
    5cf2:	03a604b3          	mul	s1,a2,s10
    5cf6:	0c87a903          	lw	s2,200(a5)
    5cfa:	01c97933          	and	s2,s2,t3
    5cfe:	02e4c4b3          	div	s1,s1,a4
    5d02:	0084e493          	ori	s1,s1,8
    5d06:	88bd                	andi	s1,s1,15
    5d08:	04a2                	slli	s1,s1,0x8
    5d0a:	009964b3          	or	s1,s2,s1
    5d0e:	0c97a423          	sw	s1,200(a5)
    5d12:	03e604b3          	mul	s1,a2,t5
    5d16:	0c87a903          	lw	s2,200(a5)
    5d1a:	00697933          	and	s2,s2,t1
    5d1e:	02e4c4b3          	div	s1,s1,a4
    5d22:	0084e493          	ori	s1,s1,8
    5d26:	88bd                	andi	s1,s1,15
    5d28:	04b2                	slli	s1,s1,0xc
    5d2a:	009964b3          	or	s1,s2,s1
    5d2e:	0c97a423          	sw	s1,200(a5)
    5d32:	00361493          	slli	s1,a2,0x3
    5d36:	02e4c4b3          	div	s1,s1,a4
    5d3a:	0c87a903          	lw	s2,200(a5)
    5d3e:	01197933          	and	s2,s2,a7
    5d42:	0084e493          	ori	s1,s1,8
    5d46:	88bd                	andi	s1,s1,15
    5d48:	04c2                	slli	s1,s1,0x10
    5d4a:	009964b3          	or	s1,s2,s1
    5d4e:	0c97a423          	sw	s1,200(a5)
    5d52:	03f604b3          	mul	s1,a2,t6
    5d56:	0c87a903          	lw	s2,200(a5)
    5d5a:	01097933          	and	s2,s2,a6
    5d5e:	02e4c4b3          	div	s1,s1,a4
    5d62:	0084e493          	ori	s1,s1,8
    5d66:	88bd                	andi	s1,s1,15
    5d68:	04d2                	slli	s1,s1,0x14
    5d6a:	009964b3          	or	s1,s2,s1
    5d6e:	0c97a423          	sw	s1,200(a5)
    5d72:	025604b3          	mul	s1,a2,t0
    5d76:	0c87a903          	lw	s2,200(a5)
    5d7a:	00a97933          	and	s2,s2,a0
    5d7e:	02e4c4b3          	div	s1,s1,a4
    5d82:	0084e493          	ori	s1,s1,8
    5d86:	88bd                	andi	s1,s1,15
    5d88:	04e2                	slli	s1,s1,0x18
    5d8a:	009964b3          	or	s1,s2,s1
    5d8e:	0c97a423          	sw	s1,200(a5)
    5d92:	027604b3          	mul	s1,a2,t2
    5d96:	0c87a903          	lw	s2,200(a5)
    5d9a:	01d97933          	and	s2,s2,t4
    5d9e:	02e4c4b3          	div	s1,s1,a4
    5da2:	0084e493          	ori	s1,s1,8
    5da6:	04f2                	slli	s1,s1,0x1c
    5da8:	009964b3          	or	s1,s2,s1
    5dac:	0c97a423          	sw	s1,200(a5)
    5db0:	00261493          	slli	s1,a2,0x2
    5db4:	02e4c4b3          	div	s1,s1,a4
    5db8:	0cc7a903          	lw	s2,204(a5)
    5dbc:	ff097913          	andi	s2,s2,-16
    5dc0:	0084e493          	ori	s1,s1,8
    5dc4:	88bd                	andi	s1,s1,15
    5dc6:	009964b3          	or	s1,s2,s1
    5dca:	0c97a623          	sw	s1,204(a5)
    5dce:	028604b3          	mul	s1,a2,s0
    5dd2:	0cc7a903          	lw	s2,204(a5)
    5dd6:	f0f97913          	andi	s2,s2,-241
    5dda:	02e4c4b3          	div	s1,s1,a4
    5dde:	0084e493          	ori	s1,s1,8
    5de2:	88bd                	andi	s1,s1,15
    5de4:	0492                	slli	s1,s1,0x4
    5de6:	009964b3          	or	s1,s2,s1
    5dea:	0c97a623          	sw	s1,204(a5)
    5dee:	00161493          	slli	s1,a2,0x1
    5df2:	02e4c4b3          	div	s1,s1,a4
    5df6:	0cc7a903          	lw	s2,204(a5)
    5dfa:	01c97933          	and	s2,s2,t3
    5dfe:	02e64733          	div	a4,a2,a4
    5e02:	0084e493          	ori	s1,s1,8
    5e06:	88bd                	andi	s1,s1,15
    5e08:	04a2                	slli	s1,s1,0x8
    5e0a:	009964b3          	or	s1,s2,s1
    5e0e:	0c97a623          	sw	s1,204(a5)
    5e12:	0cc7a603          	lw	a2,204(a5)
    5e16:	00667633          	and	a2,a2,t1
    5e1a:	00876713          	ori	a4,a4,8
    5e1e:	8b3d                	andi	a4,a4,15
    5e20:	0732                	slli	a4,a4,0xc
    5e22:	8f51                	or	a4,a4,a2
    5e24:	0ce7a623          	sw	a4,204(a5)
    5e28:	0cc7a703          	lw	a4,204(a5)
    5e2c:	01177733          	and	a4,a4,a7
    5e30:	0ce7a623          	sw	a4,204(a5)
    5e34:	8131c703          	lbu	a4,-2029(gp) # 2000174b <nGA2401>
    5e38:	8f0d                	sub	a4,a4,a1
    5e3a:	02d74633          	div	a2,a4,a3
    5e3e:	07f5f593          	andi	a1,a1,127
    5e42:	05e2                	slli	a1,a1,0x18
    5e44:	8a3d                	andi	a2,a2,15
    5e46:	01461493          	slli	s1,a2,0x14
    5e4a:	0cc7a603          	lw	a2,204(a5)
    5e4e:	02870433          	mul	s0,a4,s0
    5e52:	01067633          	and	a2,a2,a6
    5e56:	8e45                	or	a2,a2,s1
    5e58:	0cc7a623          	sw	a2,204(a5)
    5e5c:	00171613          	slli	a2,a4,0x1
    5e60:	0cc7a483          	lw	s1,204(a5)
    5e64:	8ce9                	and	s1,s1,a0
    5e66:	02d64633          	div	a2,a2,a3
    5e6a:	8a3d                	andi	a2,a2,15
    5e6c:	0662                	slli	a2,a2,0x18
    5e6e:	8e45                	or	a2,a2,s1
    5e70:	0cc7a623          	sw	a2,204(a5)
    5e74:	0cc7a603          	lw	a2,204(a5)
    5e78:	02d44433          	div	s0,s0,a3
    5e7c:	01d67eb3          	and	t4,a2,t4
    5e80:	00271613          	slli	a2,a4,0x2
    5e84:	027703b3          	mul	t2,a4,t2
    5e88:	0472                	slli	s0,s0,0x1c
    5e8a:	008ee433          	or	s0,t4,s0
    5e8e:	0c87a623          	sw	s0,204(a5)
    5e92:	02d64633          	div	a2,a2,a3
    5e96:	025702b3          	mul	t0,a4,t0
    5e9a:	00f67e93          	andi	t4,a2,15
    5e9e:	0d07a603          	lw	a2,208(a5)
    5ea2:	9a41                	andi	a2,a2,-16
    5ea4:	01d66633          	or	a2,a2,t4
    5ea8:	0cc7a823          	sw	a2,208(a5)
    5eac:	0d07a603          	lw	a2,208(a5)
    5eb0:	02d3c3b3          	div	t2,t2,a3
    5eb4:	f0f67613          	andi	a2,a2,-241
    5eb8:	02d2c2b3          	div	t0,t0,a3
    5ebc:	00f3f393          	andi	t2,t2,15
    5ec0:	0392                	slli	t2,t2,0x4
    5ec2:	007663b3          	or	t2,a2,t2
    5ec6:	0c77a823          	sw	t2,208(a5)
    5eca:	0d07a603          	lw	a2,208(a5)
    5ece:	01c67e33          	and	t3,a2,t3
    5ed2:	03f70fb3          	mul	t6,a4,t6
    5ed6:	00f2f293          	andi	t0,t0,15
    5eda:	02a2                	slli	t0,t0,0x8
    5edc:	005e62b3          	or	t0,t3,t0
    5ee0:	0c57a823          	sw	t0,208(a5)
    5ee4:	0d07a603          	lw	a2,208(a5)
    5ee8:	00667333          	and	t1,a2,t1
    5eec:	00371613          	slli	a2,a4,0x3
    5ef0:	02dfcfb3          	div	t6,t6,a3
    5ef4:	03e70f33          	mul	t5,a4,t5
    5ef8:	00ffff93          	andi	t6,t6,15
    5efc:	0fb2                	slli	t6,t6,0xc
    5efe:	01f36fb3          	or	t6,t1,t6
    5f02:	0df7a823          	sw	t6,208(a5)
    5f06:	0d07a303          	lw	t1,208(a5)
    5f0a:	011378b3          	and	a7,t1,a7
    5f0e:	02d64633          	div	a2,a2,a3
    5f12:	03a70d33          	mul	s10,a4,s10
    5f16:	8a3d                	andi	a2,a2,15
    5f18:	0642                	slli	a2,a2,0x10
    5f1a:	00c8e633          	or	a2,a7,a2
    5f1e:	0cc7a823          	sw	a2,208(a5)
    5f22:	0d07a603          	lw	a2,208(a5)
    5f26:	01067833          	and	a6,a2,a6
    5f2a:	02df4f33          	div	t5,t5,a3
    5f2e:	02dd46b3          	div	a3,s10,a3
    5f32:	00ff7f13          	andi	t5,t5,15
    5f36:	0f52                	slli	t5,t5,0x14
    5f38:	01e86f33          	or	t5,a6,t5
    5f3c:	0de7a823          	sw	t5,208(a5)
    5f40:	0d07a703          	lw	a4,208(a5)
    5f44:	8d79                	and	a0,a0,a4
    5f46:	8abd                	andi	a3,a3,15
    5f48:	06e2                	slli	a3,a3,0x18
    5f4a:	8ec9                	or	a3,a3,a0
    5f4c:	0cd7a823          	sw	a3,208(a5)
    5f50:	43d8                	lw	a4,4(a5)
    5f52:	6685                	lui	a3,0x1
    5f54:	9b3d                	andi	a4,a4,-17
    5f56:	c3d8                	sw	a4,4(a5)
    5f58:	43d8                	lw	a4,4(a5)
    5f5a:	9b79                	andi	a4,a4,-2
    5f5c:	c3d8                	sw	a4,4(a5)
    5f5e:	5798                	lw	a4,40(a5)
    5f60:	8f55                	or	a4,a4,a3
    5f62:	d798                	sw	a4,40(a5)
    5f64:	57d8                	lw	a4,44(a5)
    5f66:	810006b7          	lui	a3,0x81000
    5f6a:	16fd                	addi	a3,a3,-1
    5f6c:	01076713          	ori	a4,a4,16
    5f70:	d7d8                	sw	a4,44(a5)
    5f72:	03fc7713          	andi	a4,s8,63
    5f76:	0387ac03          	lw	s8,56(a5)
    5f7a:	fc0c7c13          	andi	s8,s8,-64
    5f7e:	00ec6c33          	or	s8,s8,a4
    5f82:	0387ac23          	sw	s8,56(a5)
    5f86:	5f98                	lw	a4,56(a5)
    5f88:	8f75                	and	a4,a4,a3
    5f8a:	8dd9                	or	a1,a1,a4
    5f8c:	df8c                	sw	a1,56(a5)
    5f8e:	5462                	lw	s0,56(sp)
    5f90:	50f2                	lw	ra,60(sp)
    5f92:	54d2                	lw	s1,52(sp)
    5f94:	5942                	lw	s2,48(sp)
    5f96:	59b2                	lw	s3,44(sp)
    5f98:	5a22                	lw	s4,40(sp)
    5f9a:	5a92                	lw	s5,36(sp)
    5f9c:	5b02                	lw	s6,32(sp)
    5f9e:	4bf2                	lw	s7,28(sp)
    5fa0:	4c62                	lw	s8,24(sp)
    5fa2:	4cd2                	lw	s9,20(sp)
    5fa4:	4d42                	lw	s10,16(sp)
    5fa6:	4db2                	lw	s11,12(sp)
    5fa8:	6121                	addi	sp,sp,64
    5faa:	8082                	ret

00005fac <RFEND_TXFtune>:
RFEND_TXFtune():
    5fac:	1fffd797          	auipc	a5,0x1fffd
    5fb0:	33478793          	addi	a5,a5,820 # 200032e0 <gptrRFENDReg>
    5fb4:	4398                	lw	a4,0(a5)
    5fb6:	435c                	lw	a5,4(a4)
    5fb8:	1007e793          	ori	a5,a5,256
    5fbc:	c35c                	sw	a5,4(a4)
    5fbe:	8082                	ret

00005fc0 <tmos_memory_getlen>:
tmos_memory_getlen():
    5fc0:	1fffd797          	auipc	a5,0x1fffd
    5fc4:	33078793          	addi	a5,a5,816 # 200032f0 <MemCtlStart>
    5fc8:	1fffd717          	auipc	a4,0x1fffd
    5fcc:	32070713          	addi	a4,a4,800 # 200032e8 <MemCtlEnd>
    5fd0:	439c                	lw	a5,0(a5)
    5fd2:	4318                	lw	a4,0(a4)
    5fd4:	4501                	li	a0,0
    5fd6:	00f71363          	bne	a4,a5,5fdc <tmos_memory_getlen+0x1c>
    5fda:	8082                	ret
    5fdc:	0067d683          	lhu	a3,6(a5)
    5fe0:	e681                	bnez	a3,5fe8 <tmos_memory_getlen+0x28>
    5fe2:	0047d683          	lhu	a3,4(a5)
    5fe6:	9536                	add	a0,a0,a3
    5fe8:	439c                	lw	a5,0(a5)
    5fea:	b7f5                	j	5fd6 <tmos_memory_getlen+0x16>

00005fec <tmos_memory_init>:
tmos_memory_init():
    5fec:	1fffd797          	auipc	a5,0x1fffd
    5ff0:	24078793          	addi	a5,a5,576 # 2000322c <ble>
    5ff4:	438c                	lw	a1,0(a5)
    5ff6:	1fffd717          	auipc	a4,0x1fffd
    5ffa:	23a75703          	lhu	a4,570(a4) # 20003230 <ble+0x4>
    5ffe:	1141                	addi	sp,sp,-16
    6000:	22058613          	addi	a2,a1,544
    6004:	1fffd797          	auipc	a5,0x1fffd
    6008:	2ec7a623          	sw	a2,748(a5) # 200032f0 <MemCtlStart>
    600c:	ff858793          	addi	a5,a1,-8
    6010:	97ba                	add	a5,a5,a4
    6012:	6505                	lui	a0,0x1
    6014:	1fffd697          	auipc	a3,0x1fffd
    6018:	2cf6aa23          	sw	a5,724(a3) # 200032e8 <MemCtlEnd>
    601c:	c606                	sw	ra,12(sp)
    601e:	051d                	addi	a0,a0,7
    6020:	00375693          	srli	a3,a4,0x3
    6024:	00e57463          	bgeu	a0,a4,602c <tmos_memory_init+0x40>
    6028:	20000693          	li	a3,512
    602c:	00d60733          	add	a4,a2,a3
    6030:	1fffd517          	auipc	a0,0x1fffd
    6034:	2ae52e23          	sw	a4,700(a0) # 200032ec <MemCtlPartition>
    6038:	22e5a023          	sw	a4,544(a1)
    603c:	16e1                	addi	a3,a3,-8
    603e:	00d61223          	sh	a3,4(a2)
    6042:	00061323          	sh	zero,6(a2)
    6046:	c31c                	sw	a5,0(a4)
    6048:	8f99                	sub	a5,a5,a4
    604a:	17e1                	addi	a5,a5,-8
    604c:	00f71223          	sh	a5,4(a4)
    6050:	00071323          	sh	zero,6(a4)
    6054:	37b5                	jal	5fc0 <tmos_memory_getlen>
    6056:	40b2                	lw	ra,12(sp)
    6058:	1fffd797          	auipc	a5,0x1fffd
    605c:	18a79123          	sh	a0,386(a5) # 200031da <gTmosPara+0x6>
    6060:	0141                	addi	sp,sp,16
    6062:	8082                	ret

00006064 <LL_InitiateSetRF>:
LL_InitiateSetRF():
    6064:	1141                	addi	sp,sp,-16
    6066:	1fffd797          	auipc	a5,0x1fffd
    606a:	29278793          	addi	a5,a5,658 # 200032f8 <gBleLlPara>
    606e:	c226                	sw	s1,4(sp)
    6070:	1fffd497          	auipc	s1,0x1fffd
    6074:	22c48493          	addi	s1,s1,556 # 2000329c <gptrLLEReg>
    6078:	c422                	sw	s0,8(sp)
    607a:	0847a403          	lw	s0,132(a5)
    607e:	409c                	lw	a5,0(s1)
    6080:	c606                	sw	ra,12(sp)
    6082:	c04a                	sw	s2,0(sp)
    6084:	4398                	lw	a4,0(a5)
    6086:	8b0d                	andi	a4,a4,3
    6088:	c305                	beqz	a4,60a8 <LL_InitiateSetRF+0x44>
    608a:	4bb8                	lw	a4,80(a5)
    608c:	9b61                	andi	a4,a4,-8
    608e:	cbb8                	sw	a4,80(a5)
    6090:	4398                	lw	a4,0(a5)
    6092:	00876713          	ori	a4,a4,8
    6096:	c398                	sw	a4,0(a5)
    6098:	439c                	lw	a5,0(a5)
    609a:	838d                	srli	a5,a5,0x3
    609c:	8b85                	andi	a5,a5,1
    609e:	c789                	beqz	a5,60a8 <LL_InitiateSetRF+0x44>
    60a0:	0001                	nop
    60a2:	0001                	nop
    60a4:	0001                	nop
    60a6:	0001                	nop
    60a8:	1fffd797          	auipc	a5,0x1fffd
    60ac:	1d078793          	addi	a5,a5,464 # 20003278 <gptrBBReg>
    60b0:	4394                	lw	a3,0(a5)
    60b2:	8e89c737          	lui	a4,0x8e89c
    60b6:	ed670713          	addi	a4,a4,-298 # 8e89bed6 <_eusrstack+0x6e893ed6>
    60ba:	c698                	sw	a4,8(a3)
    60bc:	00555737          	lui	a4,0x555
    60c0:	55570713          	addi	a4,a4,1365 # 555555 <_data_lma+0x54dc69>
    60c4:	c2d8                	sw	a4,4(a3)
    60c6:	03a44703          	lbu	a4,58(s0)
    60ca:	0ff00693          	li	a3,255
    60ce:	893e                	mv	s2,a5
    60d0:	00d70763          	beq	a4,a3,60de <LL_InitiateSetRF+0x7a>
    60d4:	57fd                	li	a5,-1
    60d6:	02e40ca3          	sb	a4,57(s0)
    60da:	02f40d23          	sb	a5,58(s0)
    60de:	03944503          	lbu	a0,57(s0)
    60e2:	4789                	li	a5,2
    60e4:	00f50663          	beq	a0,a5,60f0 <LL_InitiateSetRF+0x8c>
    60e8:	4785                	li	a5,1
    60ea:	02f40ca3          	sb	a5,57(s0)
    60ee:	4501                	li	a0,0
    60f0:	4098                	lw	a4,0(s1)
    60f2:	435c                	lw	a5,4(a4)
    60f4:	0017e793          	ori	a5,a5,1
    60f8:	c35c                	sw	a5,4(a4)
    60fa:	fb200793          	li	a5,-78
    60fe:	00f40323          	sb	a5,6(s0)
    6102:	1fffd797          	auipc	a5,0x1fffd
    6106:	1877c783          	lbu	a5,391(a5) # 20003289 <gBleIPPara+0x9>
    610a:	cf81                	beqz	a5,6122 <LL_InitiateSetRF+0xbe>
    610c:	1fffd717          	auipc	a4,0x1fffd
    6110:	17c74703          	lbu	a4,380(a4) # 20003288 <gBleIPPara+0x8>
    6114:	478d                	li	a5,3
    6116:	00f71663          	bne	a4,a5,6122 <LL_InitiateSetRF+0xbe>
    611a:	1fffd797          	auipc	a5,0x1fffd
    611e:	160787a3          	sb	zero,367(a5) # 20003289 <gBleIPPara+0x9>
    6122:	1fffd717          	auipc	a4,0x1fffd
    6126:	16574703          	lbu	a4,357(a4) # 20003287 <gBleIPPara+0x7>
    612a:	479d                	li	a5,7
    612c:	00f71863          	bne	a4,a5,613c <LL_InitiateSetRF+0xd8>
    6130:	10700793          	li	a5,263
    6134:	1fffd717          	auipc	a4,0x1fffd
    6138:	14f71a23          	sh	a5,340(a4) # 20003288 <gBleIPPara+0x8>
    613c:	4799                	li	a5,6
    613e:	1fffd717          	auipc	a4,0x1fffd
    6142:	14f704a3          	sb	a5,329(a4) # 20003287 <gBleIPPara+0x7>
    6146:	4601                	li	a2,0
    6148:	1fffd797          	auipc	a5,0x1fffd
    614c:	12078c23          	sb	zero,312(a5) # 20003280 <gBleIPPara>
    6150:	02500593          	li	a1,37
    6154:	1fffd797          	auipc	a5,0x1fffd
    6158:	12078823          	sb	zero,304(a5) # 20003284 <gBleIPPara+0x4>
    615c:	8ebfd0ef          	jal	ra,3a46 <BLE_SetPHYRxMode>
    6160:	4090                	lw	a2,0(s1)
    6162:	1fffd797          	auipc	a5,0x1fffd
    6166:	120781a3          	sb	zero,291(a5) # 20003285 <gBleIPPara+0x5>
    616a:	1fffd797          	auipc	a5,0x1fffd
    616e:	10078ba3          	sb	zero,279(a5) # 20003281 <gBleIPPara+0x1>
    6172:	4785                	li	a5,1
    6174:	c21c                	sw	a5,0(a2)
    6176:	00092783          	lw	a5,0(s2) # d000 <_data_lma+0x5714>
    617a:	003305b7          	lui	a1,0x330
    617e:	4398                	lw	a4,0(a5)
    6180:	e7f77713          	andi	a4,a4,-385
    6184:	c398                	sw	a4,0(a5)
    6186:	4398                	lw	a4,0(a5)
    6188:	e7f77713          	andi	a4,a4,-385
    618c:	10076713          	ori	a4,a4,256
    6190:	c398                	sw	a4,0(a5)
    6192:	1fffd717          	auipc	a4,0x1fffd
    6196:	14e70713          	addi	a4,a4,334 # 200032e0 <gptrRFENDReg>
    619a:	4318                	lw	a4,0(a4)
    619c:	4714                	lw	a3,8(a4)
    619e:	8ecd                	or	a3,a3,a1
    61a0:	c714                	sw	a3,8(a4)
    61a2:	0d900693          	li	a3,217
    61a6:	ca34                	sw	a3,80(a2)
    61a8:	5754                	lw	a3,44(a4)
    61aa:	9af5                	andi	a3,a3,-3
    61ac:	d754                	sw	a3,44(a4)
    61ae:	00544703          	lbu	a4,5(s0)
    61b2:	07f77693          	andi	a3,a4,127
    61b6:	4398                	lw	a4,0(a5)
    61b8:	f8077713          	andi	a4,a4,-128
    61bc:	8f55                	or	a4,a4,a3
    61be:	c398                	sw	a4,0(a5)
    61c0:	40b2                	lw	ra,12(sp)
    61c2:	4422                	lw	s0,8(sp)
    61c4:	4492                	lw	s1,4(sp)
    61c6:	4902                	lw	s2,0(sp)
    61c8:	0141                	addi	sp,sp,16
    61ca:	8082                	ret

000061cc <memcpy>:
memcpy():
    61cc:	00a5c7b3          	xor	a5,a1,a0
    61d0:	8b8d                	andi	a5,a5,3
    61d2:	00c50733          	add	a4,a0,a2
    61d6:	e781                	bnez	a5,61de <memcpy+0x12>
    61d8:	478d                	li	a5,3
    61da:	00c7ee63          	bltu	a5,a2,61f6 <memcpy+0x2a>
    61de:	87aa                	mv	a5,a0
    61e0:	0ae57063          	bgeu	a0,a4,6280 <memcpy+0xb4>
    61e4:	0005c683          	lbu	a3,0(a1) # 330000 <_data_lma+0x328714>
    61e8:	0785                	addi	a5,a5,1
    61ea:	0585                	addi	a1,a1,1
    61ec:	fed78fa3          	sb	a3,-1(a5)
    61f0:	fee7eae3          	bltu	a5,a4,61e4 <memcpy+0x18>
    61f4:	8082                	ret
    61f6:	00357693          	andi	a3,a0,3
    61fa:	87aa                	mv	a5,a0
    61fc:	ca91                	beqz	a3,6210 <memcpy+0x44>
    61fe:	0005c683          	lbu	a3,0(a1)
    6202:	0785                	addi	a5,a5,1
    6204:	0585                	addi	a1,a1,1
    6206:	fed78fa3          	sb	a3,-1(a5)
    620a:	0037f693          	andi	a3,a5,3
    620e:	b7fd                	j	61fc <memcpy+0x30>
    6210:	ffc77693          	andi	a3,a4,-4
    6214:	fe068613          	addi	a2,a3,-32
    6218:	06c7f063          	bgeu	a5,a2,6278 <memcpy+0xac>
    621c:	0005a383          	lw	t2,0(a1)
    6220:	0045a283          	lw	t0,4(a1)
    6224:	0085af83          	lw	t6,8(a1)
    6228:	00c5af03          	lw	t5,12(a1)
    622c:	0105ae83          	lw	t4,16(a1)
    6230:	0145ae03          	lw	t3,20(a1)
    6234:	0185a303          	lw	t1,24(a1)
    6238:	01c5a883          	lw	a7,28(a1)
    623c:	02458593          	addi	a1,a1,36
    6240:	0077a023          	sw	t2,0(a5)
    6244:	ffc5a803          	lw	a6,-4(a1)
    6248:	0057a223          	sw	t0,4(a5)
    624c:	01f7a423          	sw	t6,8(a5)
    6250:	01e7a623          	sw	t5,12(a5)
    6254:	01d7a823          	sw	t4,16(a5)
    6258:	01c7aa23          	sw	t3,20(a5)
    625c:	0067ac23          	sw	t1,24(a5)
    6260:	0117ae23          	sw	a7,28(a5)
    6264:	02478793          	addi	a5,a5,36
    6268:	ff07ae23          	sw	a6,-4(a5)
    626c:	b775                	j	6218 <memcpy+0x4c>
    626e:	4190                	lw	a2,0(a1)
    6270:	0791                	addi	a5,a5,4
    6272:	0591                	addi	a1,a1,4
    6274:	fec7ae23          	sw	a2,-4(a5)
    6278:	fed7ebe3          	bltu	a5,a3,626e <memcpy+0xa2>
    627c:	f6e7e4e3          	bltu	a5,a4,61e4 <memcpy+0x18>
    6280:	8082                	ret

00006282 <iprintf>:
printf():
    6282:	7139                	addi	sp,sp,-64
    6284:	da3e                	sw	a5,52(sp)
    6286:	d22e                	sw	a1,36(sp)
    6288:	d432                	sw	a2,40(sp)
    628a:	d636                	sw	a3,44(sp)
    628c:	d83a                	sw	a4,48(sp)
    628e:	dc42                	sw	a6,56(sp)
    6290:	de46                	sw	a7,60(sp)
    6292:	80c18793          	addi	a5,gp,-2036 # 20001744 <_impure_ptr>
    6296:	cc22                	sw	s0,24(sp)
    6298:	4380                	lw	s0,0(a5)
    629a:	ca26                	sw	s1,20(sp)
    629c:	ce06                	sw	ra,28(sp)
    629e:	84aa                	mv	s1,a0
    62a0:	c409                	beqz	s0,62aa <iprintf+0x28>
    62a2:	4c1c                	lw	a5,24(s0)
    62a4:	e399                	bnez	a5,62aa <iprintf+0x28>
    62a6:	8522                	mv	a0,s0
    62a8:	23b9                	jal	67f6 <__sinit>
    62aa:	440c                	lw	a1,8(s0)
    62ac:	1054                	addi	a3,sp,36
    62ae:	8626                	mv	a2,s1
    62b0:	8522                	mv	a0,s0
    62b2:	c636                	sw	a3,12(sp)
    62b4:	19d000ef          	jal	ra,6c50 <_vfiprintf_r>
    62b8:	40f2                	lw	ra,28(sp)
    62ba:	4462                	lw	s0,24(sp)
    62bc:	44d2                	lw	s1,20(sp)
    62be:	6121                	addi	sp,sp,64
    62c0:	8082                	ret

000062c2 <putchar>:
putchar():
    62c2:	1101                	addi	sp,sp,-32
    62c4:	80c18793          	addi	a5,gp,-2036 # 20001744 <_impure_ptr>
    62c8:	cc22                	sw	s0,24(sp)
    62ca:	4380                	lw	s0,0(a5)
    62cc:	ce06                	sw	ra,28(sp)
    62ce:	85aa                	mv	a1,a0
    62d0:	c419                	beqz	s0,62de <putchar+0x1c>
    62d2:	4c1c                	lw	a5,24(s0)
    62d4:	e789                	bnez	a5,62de <putchar+0x1c>
    62d6:	c62a                	sw	a0,12(sp)
    62d8:	8522                	mv	a0,s0
    62da:	2b31                	jal	67f6 <__sinit>
    62dc:	45b2                	lw	a1,12(sp)
    62de:	4410                	lw	a2,8(s0)
    62e0:	8522                	mv	a0,s0
    62e2:	4462                	lw	s0,24(sp)
    62e4:	40f2                	lw	ra,28(sp)
    62e6:	6105                	addi	sp,sp,32
    62e8:	7b90006f          	j	72a0 <_putc_r>

000062ec <_puts_r>:
_puts_r():
    62ec:	1101                	addi	sp,sp,-32
    62ee:	ca26                	sw	s1,20(sp)
    62f0:	c84a                	sw	s2,16(sp)
    62f2:	ce06                	sw	ra,28(sp)
    62f4:	cc22                	sw	s0,24(sp)
    62f6:	c64e                	sw	s3,12(sp)
    62f8:	c452                	sw	s4,8(sp)
    62fa:	84aa                	mv	s1,a0
    62fc:	892e                	mv	s2,a1
    62fe:	c501                	beqz	a0,6306 <_puts_r+0x1a>
    6300:	4d1c                	lw	a5,24(a0)
    6302:	e391                	bnez	a5,6306 <_puts_r+0x1a>
    6304:	29cd                	jal	67f6 <__sinit>
    6306:	4c9c                	lw	a5,24(s1)
    6308:	4480                	lw	s0,8(s1)
    630a:	e399                	bnez	a5,6310 <_puts_r+0x24>
    630c:	8526                	mv	a0,s1
    630e:	21e5                	jal	67f6 <__sinit>
    6310:	00001797          	auipc	a5,0x1
    6314:	55878793          	addi	a5,a5,1368 # 7868 <__sf_fake_stdin>
    6318:	02f41c63          	bne	s0,a5,6350 <_puts_r+0x64>
    631c:	40c0                	lw	s0,4(s1)
    631e:	00c45783          	lhu	a5,12(s0)
    6322:	8ba1                	andi	a5,a5,8
    6324:	c7b1                	beqz	a5,6370 <_puts_r+0x84>
    6326:	481c                	lw	a5,16(s0)
    6328:	c7a1                	beqz	a5,6370 <_puts_r+0x84>
    632a:	59fd                	li	s3,-1
    632c:	4a29                	li	s4,10
    632e:	441c                	lw	a5,8(s0)
    6330:	00094583          	lbu	a1,0(s2)
    6334:	17fd                	addi	a5,a5,-1
    6336:	e9b1                	bnez	a1,638a <_puts_r+0x9e>
    6338:	c41c                	sw	a5,8(s0)
    633a:	0607de63          	bgez	a5,63b6 <_puts_r+0xca>
    633e:	8622                	mv	a2,s0
    6340:	45a9                	li	a1,10
    6342:	8526                	mv	a0,s1
    6344:	2071                	jal	63d0 <__swbuf_r>
    6346:	57fd                	li	a5,-1
    6348:	02f50863          	beq	a0,a5,6378 <_puts_r+0x8c>
    634c:	4529                	li	a0,10
    634e:	a035                	j	637a <_puts_r+0x8e>
    6350:	00001797          	auipc	a5,0x1
    6354:	53878793          	addi	a5,a5,1336 # 7888 <__sf_fake_stdout>
    6358:	00f41463          	bne	s0,a5,6360 <_puts_r+0x74>
    635c:	4480                	lw	s0,8(s1)
    635e:	b7c1                	j	631e <_puts_r+0x32>
    6360:	00001797          	auipc	a5,0x1
    6364:	4e878793          	addi	a5,a5,1256 # 7848 <__sf_fake_stderr>
    6368:	faf41be3          	bne	s0,a5,631e <_puts_r+0x32>
    636c:	44c0                	lw	s0,12(s1)
    636e:	bf45                	j	631e <_puts_r+0x32>
    6370:	85a2                	mv	a1,s0
    6372:	8526                	mv	a0,s1
    6374:	2a31                	jal	6490 <__swsetup_r>
    6376:	d955                	beqz	a0,632a <_puts_r+0x3e>
    6378:	557d                	li	a0,-1
    637a:	40f2                	lw	ra,28(sp)
    637c:	4462                	lw	s0,24(sp)
    637e:	44d2                	lw	s1,20(sp)
    6380:	4942                	lw	s2,16(sp)
    6382:	49b2                	lw	s3,12(sp)
    6384:	4a22                	lw	s4,8(sp)
    6386:	6105                	addi	sp,sp,32
    6388:	8082                	ret
    638a:	c41c                	sw	a5,8(s0)
    638c:	0905                	addi	s2,s2,1
    638e:	0007d763          	bgez	a5,639c <_puts_r+0xb0>
    6392:	4c18                	lw	a4,24(s0)
    6394:	00e7cb63          	blt	a5,a4,63aa <_puts_r+0xbe>
    6398:	01458963          	beq	a1,s4,63aa <_puts_r+0xbe>
    639c:	401c                	lw	a5,0(s0)
    639e:	00178713          	addi	a4,a5,1
    63a2:	c018                	sw	a4,0(s0)
    63a4:	00b78023          	sb	a1,0(a5)
    63a8:	b759                	j	632e <_puts_r+0x42>
    63aa:	8622                	mv	a2,s0
    63ac:	8526                	mv	a0,s1
    63ae:	200d                	jal	63d0 <__swbuf_r>
    63b0:	f7351fe3          	bne	a0,s3,632e <_puts_r+0x42>
    63b4:	b7d1                	j	6378 <_puts_r+0x8c>
    63b6:	401c                	lw	a5,0(s0)
    63b8:	00178713          	addi	a4,a5,1
    63bc:	c018                	sw	a4,0(s0)
    63be:	4729                	li	a4,10
    63c0:	00e78023          	sb	a4,0(a5)
    63c4:	b761                	j	634c <_puts_r+0x60>

000063c6 <puts>:
puts():
    63c6:	80c18793          	addi	a5,gp,-2036 # 20001744 <_impure_ptr>
    63ca:	85aa                	mv	a1,a0
    63cc:	4388                	lw	a0,0(a5)
    63ce:	bf39                	j	62ec <_puts_r>

000063d0 <__swbuf_r>:
__swbuf_r():
    63d0:	1101                	addi	sp,sp,-32
    63d2:	cc22                	sw	s0,24(sp)
    63d4:	ca26                	sw	s1,20(sp)
    63d6:	c84a                	sw	s2,16(sp)
    63d8:	ce06                	sw	ra,28(sp)
    63da:	c64e                	sw	s3,12(sp)
    63dc:	84aa                	mv	s1,a0
    63de:	892e                	mv	s2,a1
    63e0:	8432                	mv	s0,a2
    63e2:	c501                	beqz	a0,63ea <__swbuf_r+0x1a>
    63e4:	4d1c                	lw	a5,24(a0)
    63e6:	e391                	bnez	a5,63ea <__swbuf_r+0x1a>
    63e8:	2139                	jal	67f6 <__sinit>
    63ea:	00001797          	auipc	a5,0x1
    63ee:	47e78793          	addi	a5,a5,1150 # 7868 <__sf_fake_stdin>
    63f2:	06f41963          	bne	s0,a5,6464 <__swbuf_r+0x94>
    63f6:	40c0                	lw	s0,4(s1)
    63f8:	4c1c                	lw	a5,24(s0)
    63fa:	c41c                	sw	a5,8(s0)
    63fc:	00c45783          	lhu	a5,12(s0)
    6400:	8ba1                	andi	a5,a5,8
    6402:	c3c9                	beqz	a5,6484 <__swbuf_r+0xb4>
    6404:	481c                	lw	a5,16(s0)
    6406:	cfbd                	beqz	a5,6484 <__swbuf_r+0xb4>
    6408:	481c                	lw	a5,16(s0)
    640a:	4008                	lw	a0,0(s0)
    640c:	0ff97993          	andi	s3,s2,255
    6410:	0ff97913          	andi	s2,s2,255
    6414:	8d1d                	sub	a0,a0,a5
    6416:	485c                	lw	a5,20(s0)
    6418:	00f54663          	blt	a0,a5,6424 <__swbuf_r+0x54>
    641c:	85a2                	mv	a1,s0
    641e:	8526                	mv	a0,s1
    6420:	2c65                	jal	66d8 <_fflush_r>
    6422:	e52d                	bnez	a0,648c <__swbuf_r+0xbc>
    6424:	441c                	lw	a5,8(s0)
    6426:	0505                	addi	a0,a0,1
    6428:	17fd                	addi	a5,a5,-1
    642a:	c41c                	sw	a5,8(s0)
    642c:	401c                	lw	a5,0(s0)
    642e:	00178713          	addi	a4,a5,1
    6432:	c018                	sw	a4,0(s0)
    6434:	01378023          	sb	s3,0(a5)
    6438:	485c                	lw	a5,20(s0)
    643a:	00a78963          	beq	a5,a0,644c <__swbuf_r+0x7c>
    643e:	00c45783          	lhu	a5,12(s0)
    6442:	8b85                	andi	a5,a5,1
    6444:	cb81                	beqz	a5,6454 <__swbuf_r+0x84>
    6446:	47a9                	li	a5,10
    6448:	00f91663          	bne	s2,a5,6454 <__swbuf_r+0x84>
    644c:	85a2                	mv	a1,s0
    644e:	8526                	mv	a0,s1
    6450:	2461                	jal	66d8 <_fflush_r>
    6452:	ed0d                	bnez	a0,648c <__swbuf_r+0xbc>
    6454:	40f2                	lw	ra,28(sp)
    6456:	4462                	lw	s0,24(sp)
    6458:	854a                	mv	a0,s2
    645a:	44d2                	lw	s1,20(sp)
    645c:	4942                	lw	s2,16(sp)
    645e:	49b2                	lw	s3,12(sp)
    6460:	6105                	addi	sp,sp,32
    6462:	8082                	ret
    6464:	00001797          	auipc	a5,0x1
    6468:	42478793          	addi	a5,a5,1060 # 7888 <__sf_fake_stdout>
    646c:	00f41463          	bne	s0,a5,6474 <__swbuf_r+0xa4>
    6470:	4480                	lw	s0,8(s1)
    6472:	b759                	j	63f8 <__swbuf_r+0x28>
    6474:	00001797          	auipc	a5,0x1
    6478:	3d478793          	addi	a5,a5,980 # 7848 <__sf_fake_stderr>
    647c:	f6f41ee3          	bne	s0,a5,63f8 <__swbuf_r+0x28>
    6480:	44c0                	lw	s0,12(s1)
    6482:	bf9d                	j	63f8 <__swbuf_r+0x28>
    6484:	85a2                	mv	a1,s0
    6486:	8526                	mv	a0,s1
    6488:	2021                	jal	6490 <__swsetup_r>
    648a:	dd3d                	beqz	a0,6408 <__swbuf_r+0x38>
    648c:	597d                	li	s2,-1
    648e:	b7d9                	j	6454 <__swbuf_r+0x84>

00006490 <__swsetup_r>:
__swsetup_r():
    6490:	1141                	addi	sp,sp,-16
    6492:	80c18793          	addi	a5,gp,-2036 # 20001744 <_impure_ptr>
    6496:	c226                	sw	s1,4(sp)
    6498:	4384                	lw	s1,0(a5)
    649a:	c422                	sw	s0,8(sp)
    649c:	c04a                	sw	s2,0(sp)
    649e:	c606                	sw	ra,12(sp)
    64a0:	892a                	mv	s2,a0
    64a2:	842e                	mv	s0,a1
    64a4:	c489                	beqz	s1,64ae <__swsetup_r+0x1e>
    64a6:	4c9c                	lw	a5,24(s1)
    64a8:	e399                	bnez	a5,64ae <__swsetup_r+0x1e>
    64aa:	8526                	mv	a0,s1
    64ac:	26a9                	jal	67f6 <__sinit>
    64ae:	00001797          	auipc	a5,0x1
    64b2:	3ba78793          	addi	a5,a5,954 # 7868 <__sf_fake_stdin>
    64b6:	02f41c63          	bne	s0,a5,64ee <__swsetup_r+0x5e>
    64ba:	40c0                	lw	s0,4(s1)
    64bc:	00c41703          	lh	a4,12(s0)
    64c0:	01071793          	slli	a5,a4,0x10
    64c4:	83c1                	srli	a5,a5,0x10
    64c6:	0087f693          	andi	a3,a5,8
    64ca:	eeb5                	bnez	a3,6546 <__swsetup_r+0xb6>
    64cc:	0107f693          	andi	a3,a5,16
    64d0:	ee9d                	bnez	a3,650e <__swsetup_r+0x7e>
    64d2:	47a5                	li	a5,9
    64d4:	00f92023          	sw	a5,0(s2)
    64d8:	04076713          	ori	a4,a4,64
    64dc:	00e41623          	sh	a4,12(s0)
    64e0:	557d                	li	a0,-1
    64e2:	40b2                	lw	ra,12(sp)
    64e4:	4422                	lw	s0,8(sp)
    64e6:	4492                	lw	s1,4(sp)
    64e8:	4902                	lw	s2,0(sp)
    64ea:	0141                	addi	sp,sp,16
    64ec:	8082                	ret
    64ee:	00001797          	auipc	a5,0x1
    64f2:	39a78793          	addi	a5,a5,922 # 7888 <__sf_fake_stdout>
    64f6:	00f41463          	bne	s0,a5,64fe <__swsetup_r+0x6e>
    64fa:	4480                	lw	s0,8(s1)
    64fc:	b7c1                	j	64bc <__swsetup_r+0x2c>
    64fe:	00001797          	auipc	a5,0x1
    6502:	34a78793          	addi	a5,a5,842 # 7848 <__sf_fake_stderr>
    6506:	faf41be3          	bne	s0,a5,64bc <__swsetup_r+0x2c>
    650a:	44c0                	lw	s0,12(s1)
    650c:	bf45                	j	64bc <__swsetup_r+0x2c>
    650e:	8b91                	andi	a5,a5,4
    6510:	c78d                	beqz	a5,653a <__swsetup_r+0xaa>
    6512:	584c                	lw	a1,52(s0)
    6514:	c989                	beqz	a1,6526 <__swsetup_r+0x96>
    6516:	04440793          	addi	a5,s0,68
    651a:	00f58463          	beq	a1,a5,6522 <__swsetup_r+0x92>
    651e:	854a                	mv	a0,s2
    6520:	2391                	jal	6a64 <_free_r>
    6522:	02042a23          	sw	zero,52(s0)
    6526:	00c45783          	lhu	a5,12(s0)
    652a:	00042223          	sw	zero,4(s0)
    652e:	fdb7f793          	andi	a5,a5,-37
    6532:	00f41623          	sh	a5,12(s0)
    6536:	481c                	lw	a5,16(s0)
    6538:	c01c                	sw	a5,0(s0)
    653a:	00c45783          	lhu	a5,12(s0)
    653e:	0087e793          	ori	a5,a5,8
    6542:	00f41623          	sh	a5,12(s0)
    6546:	481c                	lw	a5,16(s0)
    6548:	ef81                	bnez	a5,6560 <__swsetup_r+0xd0>
    654a:	00c45783          	lhu	a5,12(s0)
    654e:	20000713          	li	a4,512
    6552:	2807f793          	andi	a5,a5,640
    6556:	00e78563          	beq	a5,a4,6560 <__swsetup_r+0xd0>
    655a:	85a2                	mv	a1,s0
    655c:	854a                	mv	a0,s2
    655e:	21a5                	jal	69c6 <__smakebuf_r>
    6560:	00c45783          	lhu	a5,12(s0)
    6564:	0017f713          	andi	a4,a5,1
    6568:	c705                	beqz	a4,6590 <__swsetup_r+0x100>
    656a:	485c                	lw	a5,20(s0)
    656c:	00042423          	sw	zero,8(s0)
    6570:	40f007b3          	neg	a5,a5
    6574:	cc1c                	sw	a5,24(s0)
    6576:	481c                	lw	a5,16(s0)
    6578:	4501                	li	a0,0
    657a:	f7a5                	bnez	a5,64e2 <__swsetup_r+0x52>
    657c:	00c41783          	lh	a5,12(s0)
    6580:	0807f713          	andi	a4,a5,128
    6584:	df39                	beqz	a4,64e2 <__swsetup_r+0x52>
    6586:	0407e793          	ori	a5,a5,64
    658a:	00f41623          	sh	a5,12(s0)
    658e:	bf89                	j	64e0 <__swsetup_r+0x50>
    6590:	8b89                	andi	a5,a5,2
    6592:	4701                	li	a4,0
    6594:	e391                	bnez	a5,6598 <__swsetup_r+0x108>
    6596:	4858                	lw	a4,20(s0)
    6598:	c418                	sw	a4,8(s0)
    659a:	bff1                	j	6576 <__swsetup_r+0xe6>

0000659c <__sflush_r>:
__sflush_r():
    659c:	00c5d783          	lhu	a5,12(a1)
    65a0:	1101                	addi	sp,sp,-32
    65a2:	cc22                	sw	s0,24(sp)
    65a4:	ca26                	sw	s1,20(sp)
    65a6:	ce06                	sw	ra,28(sp)
    65a8:	c84a                	sw	s2,16(sp)
    65aa:	c64e                	sw	s3,12(sp)
    65ac:	0087f713          	andi	a4,a5,8
    65b0:	84aa                	mv	s1,a0
    65b2:	842e                	mv	s0,a1
    65b4:	ef71                	bnez	a4,6690 <__sflush_r+0xf4>
    65b6:	41d8                	lw	a4,4(a1)
    65b8:	00e04d63          	bgtz	a4,65d2 <__sflush_r+0x36>
    65bc:	41b8                	lw	a4,64(a1)
    65be:	00e04a63          	bgtz	a4,65d2 <__sflush_r+0x36>
    65c2:	4501                	li	a0,0
    65c4:	40f2                	lw	ra,28(sp)
    65c6:	4462                	lw	s0,24(sp)
    65c8:	44d2                	lw	s1,20(sp)
    65ca:	4942                	lw	s2,16(sp)
    65cc:	49b2                	lw	s3,12(sp)
    65ce:	6105                	addi	sp,sp,32
    65d0:	8082                	ret
    65d2:	5458                	lw	a4,44(s0)
    65d4:	d77d                	beqz	a4,65c2 <__sflush_r+0x26>
    65d6:	0004a903          	lw	s2,0(s1)
    65da:	01379693          	slli	a3,a5,0x13
    65de:	0004a023          	sw	zero,0(s1)
    65e2:	0606dd63          	bgez	a3,665c <__sflush_r+0xc0>
    65e6:	4870                	lw	a2,84(s0)
    65e8:	00c45783          	lhu	a5,12(s0)
    65ec:	8b91                	andi	a5,a5,4
    65ee:	c799                	beqz	a5,65fc <__sflush_r+0x60>
    65f0:	405c                	lw	a5,4(s0)
    65f2:	8e1d                	sub	a2,a2,a5
    65f4:	585c                	lw	a5,52(s0)
    65f6:	c399                	beqz	a5,65fc <__sflush_r+0x60>
    65f8:	403c                	lw	a5,64(s0)
    65fa:	8e1d                	sub	a2,a2,a5
    65fc:	545c                	lw	a5,44(s0)
    65fe:	500c                	lw	a1,32(s0)
    6600:	4681                	li	a3,0
    6602:	8526                	mv	a0,s1
    6604:	9782                	jalr	a5
    6606:	57fd                	li	a5,-1
    6608:	00c45703          	lhu	a4,12(s0)
    660c:	00f51d63          	bne	a0,a5,6626 <__sflush_r+0x8a>
    6610:	4094                	lw	a3,0(s1)
    6612:	47f5                	li	a5,29
    6614:	06d7e863          	bltu	a5,a3,6684 <__sflush_r+0xe8>
    6618:	204007b7          	lui	a5,0x20400
    661c:	0785                	addi	a5,a5,1
    661e:	00d7d7b3          	srl	a5,a5,a3
    6622:	8b85                	andi	a5,a5,1
    6624:	c3a5                	beqz	a5,6684 <__sflush_r+0xe8>
    6626:	481c                	lw	a5,16(s0)
    6628:	00042223          	sw	zero,4(s0)
    662c:	c01c                	sw	a5,0(s0)
    662e:	01371793          	slli	a5,a4,0x13
    6632:	0007d863          	bgez	a5,6642 <__sflush_r+0xa6>
    6636:	57fd                	li	a5,-1
    6638:	00f51463          	bne	a0,a5,6640 <__sflush_r+0xa4>
    663c:	409c                	lw	a5,0(s1)
    663e:	e391                	bnez	a5,6642 <__sflush_r+0xa6>
    6640:	c868                	sw	a0,84(s0)
    6642:	584c                	lw	a1,52(s0)
    6644:	0124a023          	sw	s2,0(s1)
    6648:	ddad                	beqz	a1,65c2 <__sflush_r+0x26>
    664a:	04440793          	addi	a5,s0,68
    664e:	00f58463          	beq	a1,a5,6656 <__sflush_r+0xba>
    6652:	8526                	mv	a0,s1
    6654:	2901                	jal	6a64 <_free_r>
    6656:	02042a23          	sw	zero,52(s0)
    665a:	b7a5                	j	65c2 <__sflush_r+0x26>
    665c:	500c                	lw	a1,32(s0)
    665e:	4601                	li	a2,0
    6660:	4685                	li	a3,1
    6662:	8526                	mv	a0,s1
    6664:	9702                	jalr	a4
    6666:	57fd                	li	a5,-1
    6668:	862a                	mv	a2,a0
    666a:	f6f51fe3          	bne	a0,a5,65e8 <__sflush_r+0x4c>
    666e:	409c                	lw	a5,0(s1)
    6670:	dfa5                	beqz	a5,65e8 <__sflush_r+0x4c>
    6672:	4775                	li	a4,29
    6674:	00e78563          	beq	a5,a4,667e <__sflush_r+0xe2>
    6678:	4759                	li	a4,22
    667a:	04e79463          	bne	a5,a4,66c2 <__sflush_r+0x126>
    667e:	0124a023          	sw	s2,0(s1)
    6682:	b781                	j	65c2 <__sflush_r+0x26>
    6684:	04076713          	ori	a4,a4,64
    6688:	00e41623          	sh	a4,12(s0)
    668c:	557d                	li	a0,-1
    668e:	bf1d                	j	65c4 <__sflush_r+0x28>
    6690:	0105a983          	lw	s3,16(a1)
    6694:	f20987e3          	beqz	s3,65c2 <__sflush_r+0x26>
    6698:	0005a903          	lw	s2,0(a1)
    669c:	8b8d                	andi	a5,a5,3
    669e:	0135a023          	sw	s3,0(a1)
    66a2:	41390933          	sub	s2,s2,s3
    66a6:	4701                	li	a4,0
    66a8:	e391                	bnez	a5,66ac <__sflush_r+0x110>
    66aa:	49d8                	lw	a4,20(a1)
    66ac:	c418                	sw	a4,8(s0)
    66ae:	f1205ae3          	blez	s2,65c2 <__sflush_r+0x26>
    66b2:	541c                	lw	a5,40(s0)
    66b4:	500c                	lw	a1,32(s0)
    66b6:	86ca                	mv	a3,s2
    66b8:	864e                	mv	a2,s3
    66ba:	8526                	mv	a0,s1
    66bc:	9782                	jalr	a5
    66be:	00a04963          	bgtz	a0,66d0 <__sflush_r+0x134>
    66c2:	00c45783          	lhu	a5,12(s0)
    66c6:	0407e793          	ori	a5,a5,64
    66ca:	00f41623          	sh	a5,12(s0)
    66ce:	bf7d                	j	668c <__sflush_r+0xf0>
    66d0:	99aa                	add	s3,s3,a0
    66d2:	40a90933          	sub	s2,s2,a0
    66d6:	bfe1                	j	66ae <__sflush_r+0x112>

000066d8 <_fflush_r>:
_fflush_r():
    66d8:	499c                	lw	a5,16(a1)
    66da:	cfb9                	beqz	a5,6738 <_fflush_r+0x60>
    66dc:	1101                	addi	sp,sp,-32
    66de:	cc22                	sw	s0,24(sp)
    66e0:	ce06                	sw	ra,28(sp)
    66e2:	842a                	mv	s0,a0
    66e4:	c511                	beqz	a0,66f0 <_fflush_r+0x18>
    66e6:	4d1c                	lw	a5,24(a0)
    66e8:	e781                	bnez	a5,66f0 <_fflush_r+0x18>
    66ea:	c62e                	sw	a1,12(sp)
    66ec:	2229                	jal	67f6 <__sinit>
    66ee:	45b2                	lw	a1,12(sp)
    66f0:	00001797          	auipc	a5,0x1
    66f4:	17878793          	addi	a5,a5,376 # 7868 <__sf_fake_stdin>
    66f8:	00f59b63          	bne	a1,a5,670e <_fflush_r+0x36>
    66fc:	404c                	lw	a1,4(s0)
    66fe:	00c59783          	lh	a5,12(a1)
    6702:	c795                	beqz	a5,672e <_fflush_r+0x56>
    6704:	8522                	mv	a0,s0
    6706:	4462                	lw	s0,24(sp)
    6708:	40f2                	lw	ra,28(sp)
    670a:	6105                	addi	sp,sp,32
    670c:	bd41                	j	659c <__sflush_r>
    670e:	00001797          	auipc	a5,0x1
    6712:	17a78793          	addi	a5,a5,378 # 7888 <__sf_fake_stdout>
    6716:	00f59463          	bne	a1,a5,671e <_fflush_r+0x46>
    671a:	440c                	lw	a1,8(s0)
    671c:	b7cd                	j	66fe <_fflush_r+0x26>
    671e:	00001797          	auipc	a5,0x1
    6722:	12a78793          	addi	a5,a5,298 # 7848 <__sf_fake_stderr>
    6726:	fcf59ce3          	bne	a1,a5,66fe <_fflush_r+0x26>
    672a:	444c                	lw	a1,12(s0)
    672c:	bfc9                	j	66fe <_fflush_r+0x26>
    672e:	40f2                	lw	ra,28(sp)
    6730:	4462                	lw	s0,24(sp)
    6732:	4501                	li	a0,0
    6734:	6105                	addi	sp,sp,32
    6736:	8082                	ret
    6738:	4501                	li	a0,0
    673a:	8082                	ret

0000673c <std>:
std():
    673c:	1141                	addi	sp,sp,-16
    673e:	c422                	sw	s0,8(sp)
    6740:	c606                	sw	ra,12(sp)
    6742:	842a                	mv	s0,a0
    6744:	00b51623          	sh	a1,12(a0)
    6748:	00c51723          	sh	a2,14(a0)
    674c:	00052023          	sw	zero,0(a0)
    6750:	00052223          	sw	zero,4(a0)
    6754:	00052423          	sw	zero,8(a0)
    6758:	06052223          	sw	zero,100(a0)
    675c:	00052823          	sw	zero,16(a0)
    6760:	00052a23          	sw	zero,20(a0)
    6764:	00052c23          	sw	zero,24(a0)
    6768:	4621                	li	a2,8
    676a:	4581                	li	a1,0
    676c:	05c50513          	addi	a0,a0,92
    6770:	816fb0ef          	jal	ra,1786 <memset>
    6774:	00001797          	auipc	a5,0x1
    6778:	be278793          	addi	a5,a5,-1054 # 7356 <__sread>
    677c:	d05c                	sw	a5,36(s0)
    677e:	00001797          	auipc	a5,0x1
    6782:	c0878793          	addi	a5,a5,-1016 # 7386 <__swrite>
    6786:	d41c                	sw	a5,40(s0)
    6788:	00001797          	auipc	a5,0x1
    678c:	c4c78793          	addi	a5,a5,-948 # 73d4 <__sseek>
    6790:	d45c                	sw	a5,44(s0)
    6792:	00001797          	auipc	a5,0x1
    6796:	c7878793          	addi	a5,a5,-904 # 740a <__sclose>
    679a:	d000                	sw	s0,32(s0)
    679c:	d81c                	sw	a5,48(s0)
    679e:	40b2                	lw	ra,12(sp)
    67a0:	4422                	lw	s0,8(sp)
    67a2:	0141                	addi	sp,sp,16
    67a4:	8082                	ret

000067a6 <_cleanup_r>:
_cleanup_r():
    67a6:	00000597          	auipc	a1,0x0
    67aa:	f3258593          	addi	a1,a1,-206 # 66d8 <_fflush_r>
    67ae:	aa89                	j	6900 <_fwalk_reent>

000067b0 <__sfmoreglue>:
__sfmoreglue():
    67b0:	1141                	addi	sp,sp,-16
    67b2:	c226                	sw	s1,4(sp)
    67b4:	06800613          	li	a2,104
    67b8:	fff58493          	addi	s1,a1,-1
    67bc:	02c484b3          	mul	s1,s1,a2
    67c0:	c04a                	sw	s2,0(sp)
    67c2:	892e                	mv	s2,a1
    67c4:	c422                	sw	s0,8(sp)
    67c6:	c606                	sw	ra,12(sp)
    67c8:	07448593          	addi	a1,s1,116
    67cc:	2681                	jal	6b0c <_malloc_r>
    67ce:	842a                	mv	s0,a0
    67d0:	cd01                	beqz	a0,67e8 <__sfmoreglue+0x38>
    67d2:	00052023          	sw	zero,0(a0)
    67d6:	01252223          	sw	s2,4(a0)
    67da:	0531                	addi	a0,a0,12
    67dc:	c408                	sw	a0,8(s0)
    67de:	06848613          	addi	a2,s1,104
    67e2:	4581                	li	a1,0
    67e4:	fa3fa0ef          	jal	ra,1786 <memset>
    67e8:	8522                	mv	a0,s0
    67ea:	40b2                	lw	ra,12(sp)
    67ec:	4422                	lw	s0,8(sp)
    67ee:	4492                	lw	s1,4(sp)
    67f0:	4902                	lw	s2,0(sp)
    67f2:	0141                	addi	sp,sp,16
    67f4:	8082                	ret

000067f6 <__sinit>:
__sinit():
    67f6:	4d1c                	lw	a5,24(a0)
    67f8:	e3bd                	bnez	a5,685e <__sinit+0x68>
    67fa:	1141                	addi	sp,sp,-16
    67fc:	c606                	sw	ra,12(sp)
    67fe:	c422                	sw	s0,8(sp)
    6800:	00000797          	auipc	a5,0x0
    6804:	fa678793          	addi	a5,a5,-90 # 67a6 <_cleanup_r>
    6808:	d51c                	sw	a5,40(a0)
    680a:	00001797          	auipc	a5,0x1
    680e:	0de78793          	addi	a5,a5,222 # 78e8 <_global_impure_ptr>
    6812:	439c                	lw	a5,0(a5)
    6814:	04052423          	sw	zero,72(a0)
    6818:	04052623          	sw	zero,76(a0)
    681c:	04052823          	sw	zero,80(a0)
    6820:	00f51463          	bne	a0,a5,6828 <__sinit+0x32>
    6824:	4785                	li	a5,1
    6826:	cd1c                	sw	a5,24(a0)
    6828:	842a                	mv	s0,a0
    682a:	281d                	jal	6860 <__sfp>
    682c:	c048                	sw	a0,4(s0)
    682e:	8522                	mv	a0,s0
    6830:	2805                	jal	6860 <__sfp>
    6832:	c408                	sw	a0,8(s0)
    6834:	8522                	mv	a0,s0
    6836:	202d                	jal	6860 <__sfp>
    6838:	c448                	sw	a0,12(s0)
    683a:	4048                	lw	a0,4(s0)
    683c:	4601                	li	a2,0
    683e:	4591                	li	a1,4
    6840:	3df5                	jal	673c <std>
    6842:	4408                	lw	a0,8(s0)
    6844:	4605                	li	a2,1
    6846:	45a5                	li	a1,9
    6848:	3dd5                	jal	673c <std>
    684a:	4448                	lw	a0,12(s0)
    684c:	4609                	li	a2,2
    684e:	45c9                	li	a1,18
    6850:	35f5                	jal	673c <std>
    6852:	4785                	li	a5,1
    6854:	cc1c                	sw	a5,24(s0)
    6856:	40b2                	lw	ra,12(sp)
    6858:	4422                	lw	s0,8(sp)
    685a:	0141                	addi	sp,sp,16
    685c:	8082                	ret
    685e:	8082                	ret

00006860 <__sfp>:
__sfp():
    6860:	1141                	addi	sp,sp,-16
    6862:	00001797          	auipc	a5,0x1
    6866:	08678793          	addi	a5,a5,134 # 78e8 <_global_impure_ptr>
    686a:	c226                	sw	s1,4(sp)
    686c:	4384                	lw	s1,0(a5)
    686e:	c04a                	sw	s2,0(sp)
    6870:	c606                	sw	ra,12(sp)
    6872:	4c9c                	lw	a5,24(s1)
    6874:	c422                	sw	s0,8(sp)
    6876:	892a                	mv	s2,a0
    6878:	e399                	bnez	a5,687e <__sfp+0x1e>
    687a:	8526                	mv	a0,s1
    687c:	3fad                	jal	67f6 <__sinit>
    687e:	04848493          	addi	s1,s1,72
    6882:	4480                	lw	s0,8(s1)
    6884:	40dc                	lw	a5,4(s1)
    6886:	17fd                	addi	a5,a5,-1
    6888:	0007d663          	bgez	a5,6894 <__sfp+0x34>
    688c:	409c                	lw	a5,0(s1)
    688e:	cfb9                	beqz	a5,68ec <__sfp+0x8c>
    6890:	4084                	lw	s1,0(s1)
    6892:	bfc5                	j	6882 <__sfp+0x22>
    6894:	00c41703          	lh	a4,12(s0)
    6898:	e739                	bnez	a4,68e6 <__sfp+0x86>
    689a:	77c1                	lui	a5,0xffff0
    689c:	0785                	addi	a5,a5,1
    689e:	06042223          	sw	zero,100(s0)
    68a2:	00042023          	sw	zero,0(s0)
    68a6:	00042223          	sw	zero,4(s0)
    68aa:	00042423          	sw	zero,8(s0)
    68ae:	c45c                	sw	a5,12(s0)
    68b0:	00042823          	sw	zero,16(s0)
    68b4:	00042a23          	sw	zero,20(s0)
    68b8:	00042c23          	sw	zero,24(s0)
    68bc:	4621                	li	a2,8
    68be:	4581                	li	a1,0
    68c0:	05c40513          	addi	a0,s0,92
    68c4:	ec3fa0ef          	jal	ra,1786 <memset>
    68c8:	02042a23          	sw	zero,52(s0)
    68cc:	02042c23          	sw	zero,56(s0)
    68d0:	04042423          	sw	zero,72(s0)
    68d4:	04042623          	sw	zero,76(s0)
    68d8:	8522                	mv	a0,s0
    68da:	40b2                	lw	ra,12(sp)
    68dc:	4422                	lw	s0,8(sp)
    68de:	4492                	lw	s1,4(sp)
    68e0:	4902                	lw	s2,0(sp)
    68e2:	0141                	addi	sp,sp,16
    68e4:	8082                	ret
    68e6:	06840413          	addi	s0,s0,104
    68ea:	bf71                	j	6886 <__sfp+0x26>
    68ec:	4591                	li	a1,4
    68ee:	854a                	mv	a0,s2
    68f0:	35c1                	jal	67b0 <__sfmoreglue>
    68f2:	c088                	sw	a0,0(s1)
    68f4:	fd51                	bnez	a0,6890 <__sfp+0x30>
    68f6:	47b1                	li	a5,12
    68f8:	00f92023          	sw	a5,0(s2)
    68fc:	4401                	li	s0,0
    68fe:	bfe9                	j	68d8 <__sfp+0x78>

00006900 <_fwalk_reent>:
_fwalk_reent():
    6900:	7179                	addi	sp,sp,-48
    6902:	d422                	sw	s0,40(sp)
    6904:	d04a                	sw	s2,32(sp)
    6906:	cc52                	sw	s4,24(sp)
    6908:	ca56                	sw	s5,20(sp)
    690a:	c85a                	sw	s6,16(sp)
    690c:	c65e                	sw	s7,12(sp)
    690e:	d606                	sw	ra,44(sp)
    6910:	d226                	sw	s1,36(sp)
    6912:	ce4e                	sw	s3,28(sp)
    6914:	8a2a                	mv	s4,a0
    6916:	8aae                	mv	s5,a1
    6918:	04850413          	addi	s0,a0,72
    691c:	4901                	li	s2,0
    691e:	4b05                	li	s6,1
    6920:	5bfd                	li	s7,-1
    6922:	ec09                	bnez	s0,693c <_fwalk_reent+0x3c>
    6924:	50b2                	lw	ra,44(sp)
    6926:	5422                	lw	s0,40(sp)
    6928:	854a                	mv	a0,s2
    692a:	5492                	lw	s1,36(sp)
    692c:	5902                	lw	s2,32(sp)
    692e:	49f2                	lw	s3,28(sp)
    6930:	4a62                	lw	s4,24(sp)
    6932:	4ad2                	lw	s5,20(sp)
    6934:	4b42                	lw	s6,16(sp)
    6936:	4bb2                	lw	s7,12(sp)
    6938:	6145                	addi	sp,sp,48
    693a:	8082                	ret
    693c:	4404                	lw	s1,8(s0)
    693e:	00442983          	lw	s3,4(s0)
    6942:	19fd                	addi	s3,s3,-1
    6944:	0009d463          	bgez	s3,694c <_fwalk_reent+0x4c>
    6948:	4000                	lw	s0,0(s0)
    694a:	bfe1                	j	6922 <_fwalk_reent+0x22>
    694c:	00c4d783          	lhu	a5,12(s1)
    6950:	00fb7b63          	bgeu	s6,a5,6966 <_fwalk_reent+0x66>
    6954:	00e49783          	lh	a5,14(s1)
    6958:	01778763          	beq	a5,s7,6966 <_fwalk_reent+0x66>
    695c:	85a6                	mv	a1,s1
    695e:	8552                	mv	a0,s4
    6960:	9a82                	jalr	s5
    6962:	00a96933          	or	s2,s2,a0
    6966:	06848493          	addi	s1,s1,104
    696a:	bfe1                	j	6942 <_fwalk_reent+0x42>

0000696c <__swhatbuf_r>:
__swhatbuf_r():
    696c:	7119                	addi	sp,sp,-128
    696e:	daa6                	sw	s1,116(sp)
    6970:	84ae                	mv	s1,a1
    6972:	00e59583          	lh	a1,14(a1)
    6976:	dca2                	sw	s0,120(sp)
    6978:	de86                	sw	ra,124(sp)
    697a:	8432                	mv	s0,a2
    697c:	0005dc63          	bgez	a1,6994 <__swhatbuf_r+0x28>
    6980:	00c4d783          	lhu	a5,12(s1)
    6984:	0006a023          	sw	zero,0(a3)
    6988:	0807f793          	andi	a5,a5,128
    698c:	e785                	bnez	a5,69b4 <__swhatbuf_r+0x48>
    698e:	40000793          	li	a5,1024
    6992:	a01d                	j	69b8 <__swhatbuf_r+0x4c>
    6994:	0830                	addi	a2,sp,24
    6996:	c636                	sw	a3,12(sp)
    6998:	2df000ef          	jal	ra,7476 <_fstat_r>
    699c:	46b2                	lw	a3,12(sp)
    699e:	fe0541e3          	bltz	a0,6980 <__swhatbuf_r+0x14>
    69a2:	4772                	lw	a4,28(sp)
    69a4:	67bd                	lui	a5,0xf
    69a6:	8ff9                	and	a5,a5,a4
    69a8:	7779                	lui	a4,0xffffe
    69aa:	97ba                	add	a5,a5,a4
    69ac:	0017b793          	seqz	a5,a5
    69b0:	c29c                	sw	a5,0(a3)
    69b2:	bff1                	j	698e <__swhatbuf_r+0x22>
    69b4:	04000793          	li	a5,64
    69b8:	c01c                	sw	a5,0(s0)
    69ba:	50f6                	lw	ra,124(sp)
    69bc:	5466                	lw	s0,120(sp)
    69be:	54d6                	lw	s1,116(sp)
    69c0:	4501                	li	a0,0
    69c2:	6109                	addi	sp,sp,128
    69c4:	8082                	ret

000069c6 <__smakebuf_r>:
__smakebuf_r():
    69c6:	00c5d783          	lhu	a5,12(a1)
    69ca:	1101                	addi	sp,sp,-32
    69cc:	cc22                	sw	s0,24(sp)
    69ce:	ce06                	sw	ra,28(sp)
    69d0:	ca26                	sw	s1,20(sp)
    69d2:	c84a                	sw	s2,16(sp)
    69d4:	8b89                	andi	a5,a5,2
    69d6:	842e                	mv	s0,a1
    69d8:	cf89                	beqz	a5,69f2 <__smakebuf_r+0x2c>
    69da:	04740793          	addi	a5,s0,71
    69de:	c01c                	sw	a5,0(s0)
    69e0:	c81c                	sw	a5,16(s0)
    69e2:	4785                	li	a5,1
    69e4:	c85c                	sw	a5,20(s0)
    69e6:	40f2                	lw	ra,28(sp)
    69e8:	4462                	lw	s0,24(sp)
    69ea:	44d2                	lw	s1,20(sp)
    69ec:	4942                	lw	s2,16(sp)
    69ee:	6105                	addi	sp,sp,32
    69f0:	8082                	ret
    69f2:	0074                	addi	a3,sp,12
    69f4:	0030                	addi	a2,sp,8
    69f6:	84aa                	mv	s1,a0
    69f8:	3f95                	jal	696c <__swhatbuf_r>
    69fa:	45a2                	lw	a1,8(sp)
    69fc:	892a                	mv	s2,a0
    69fe:	8526                	mv	a0,s1
    6a00:	2231                	jal	6b0c <_malloc_r>
    6a02:	ed01                	bnez	a0,6a1a <__smakebuf_r+0x54>
    6a04:	00c41783          	lh	a5,12(s0)
    6a08:	2007f713          	andi	a4,a5,512
    6a0c:	ff69                	bnez	a4,69e6 <__smakebuf_r+0x20>
    6a0e:	9bf1                	andi	a5,a5,-4
    6a10:	0027e793          	ori	a5,a5,2
    6a14:	00f41623          	sh	a5,12(s0)
    6a18:	b7c9                	j	69da <__smakebuf_r+0x14>
    6a1a:	00000797          	auipc	a5,0x0
    6a1e:	d8c78793          	addi	a5,a5,-628 # 67a6 <_cleanup_r>
    6a22:	d49c                	sw	a5,40(s1)
    6a24:	00c45783          	lhu	a5,12(s0)
    6a28:	c008                	sw	a0,0(s0)
    6a2a:	c808                	sw	a0,16(s0)
    6a2c:	0807e793          	ori	a5,a5,128
    6a30:	00f41623          	sh	a5,12(s0)
    6a34:	47a2                	lw	a5,8(sp)
    6a36:	c85c                	sw	a5,20(s0)
    6a38:	47b2                	lw	a5,12(sp)
    6a3a:	cf91                	beqz	a5,6a56 <__smakebuf_r+0x90>
    6a3c:	00e41583          	lh	a1,14(s0)
    6a40:	8526                	mv	a0,s1
    6a42:	267000ef          	jal	ra,74a8 <_isatty_r>
    6a46:	c901                	beqz	a0,6a56 <__smakebuf_r+0x90>
    6a48:	00c45783          	lhu	a5,12(s0)
    6a4c:	9bf1                	andi	a5,a5,-4
    6a4e:	0017e793          	ori	a5,a5,1
    6a52:	00f41623          	sh	a5,12(s0)
    6a56:	00c45783          	lhu	a5,12(s0)
    6a5a:	00f96933          	or	s2,s2,a5
    6a5e:	01241623          	sh	s2,12(s0)
    6a62:	b751                	j	69e6 <__smakebuf_r+0x20>

00006a64 <_free_r>:
_free_r():
    6a64:	c1dd                	beqz	a1,6b0a <_free_r+0xa6>
    6a66:	ffc5a783          	lw	a5,-4(a1)
    6a6a:	1141                	addi	sp,sp,-16
    6a6c:	c422                	sw	s0,8(sp)
    6a6e:	c606                	sw	ra,12(sp)
    6a70:	c226                	sw	s1,4(sp)
    6a72:	ffc58413          	addi	s0,a1,-4
    6a76:	0007d363          	bgez	a5,6a7c <_free_r+0x18>
    6a7a:	943e                	add	s0,s0,a5
    6a7c:	84aa                	mv	s1,a0
    6a7e:	2a9000ef          	jal	ra,7526 <__malloc_lock>
    6a82:	81818793          	addi	a5,gp,-2024 # 20001750 <__malloc_free_list>
    6a86:	439c                	lw	a5,0(a5)
    6a88:	ef81                	bnez	a5,6aa0 <_free_r+0x3c>
    6a8a:	00042223          	sw	zero,4(s0)
    6a8e:	8081ac23          	sw	s0,-2024(gp) # 20001750 <__malloc_free_list>
    6a92:	4422                	lw	s0,8(sp)
    6a94:	40b2                	lw	ra,12(sp)
    6a96:	8526                	mv	a0,s1
    6a98:	4492                	lw	s1,4(sp)
    6a9a:	0141                	addi	sp,sp,16
    6a9c:	28d0006f          	j	7528 <__malloc_unlock>
    6aa0:	00f47e63          	bgeu	s0,a5,6abc <_free_r+0x58>
    6aa4:	4014                	lw	a3,0(s0)
    6aa6:	00d40733          	add	a4,s0,a3
    6aaa:	00e79663          	bne	a5,a4,6ab6 <_free_r+0x52>
    6aae:	4398                	lw	a4,0(a5)
    6ab0:	43dc                	lw	a5,4(a5)
    6ab2:	9736                	add	a4,a4,a3
    6ab4:	c018                	sw	a4,0(s0)
    6ab6:	c05c                	sw	a5,4(s0)
    6ab8:	bfd9                	j	6a8e <_free_r+0x2a>
    6aba:	87ba                	mv	a5,a4
    6abc:	43d8                	lw	a4,4(a5)
    6abe:	c319                	beqz	a4,6ac4 <_free_r+0x60>
    6ac0:	fee47de3          	bgeu	s0,a4,6aba <_free_r+0x56>
    6ac4:	4394                	lw	a3,0(a5)
    6ac6:	00d78633          	add	a2,a5,a3
    6aca:	00861f63          	bne	a2,s0,6ae8 <_free_r+0x84>
    6ace:	4010                	lw	a2,0(s0)
    6ad0:	96b2                	add	a3,a3,a2
    6ad2:	c394                	sw	a3,0(a5)
    6ad4:	00d78633          	add	a2,a5,a3
    6ad8:	fac71de3          	bne	a4,a2,6a92 <_free_r+0x2e>
    6adc:	4310                	lw	a2,0(a4)
    6ade:	4358                	lw	a4,4(a4)
    6ae0:	96b2                	add	a3,a3,a2
    6ae2:	c394                	sw	a3,0(a5)
    6ae4:	c3d8                	sw	a4,4(a5)
    6ae6:	b775                	j	6a92 <_free_r+0x2e>
    6ae8:	00c47563          	bgeu	s0,a2,6af2 <_free_r+0x8e>
    6aec:	47b1                	li	a5,12
    6aee:	c09c                	sw	a5,0(s1)
    6af0:	b74d                	j	6a92 <_free_r+0x2e>
    6af2:	4010                	lw	a2,0(s0)
    6af4:	00c406b3          	add	a3,s0,a2
    6af8:	00d71663          	bne	a4,a3,6b04 <_free_r+0xa0>
    6afc:	4314                	lw	a3,0(a4)
    6afe:	4358                	lw	a4,4(a4)
    6b00:	96b2                	add	a3,a3,a2
    6b02:	c014                	sw	a3,0(s0)
    6b04:	c058                	sw	a4,4(s0)
    6b06:	c3c0                	sw	s0,4(a5)
    6b08:	b769                	j	6a92 <_free_r+0x2e>
    6b0a:	8082                	ret

00006b0c <_malloc_r>:
_malloc_r():
    6b0c:	1101                	addi	sp,sp,-32
    6b0e:	ca26                	sw	s1,20(sp)
    6b10:	00358493          	addi	s1,a1,3
    6b14:	98f1                	andi	s1,s1,-4
    6b16:	ce06                	sw	ra,28(sp)
    6b18:	cc22                	sw	s0,24(sp)
    6b1a:	c84a                	sw	s2,16(sp)
    6b1c:	c64e                	sw	s3,12(sp)
    6b1e:	04a1                	addi	s1,s1,8
    6b20:	47b1                	li	a5,12
    6b22:	04f4f563          	bgeu	s1,a5,6b6c <_malloc_r+0x60>
    6b26:	44b1                	li	s1,12
    6b28:	04b4e463          	bltu	s1,a1,6b70 <_malloc_r+0x64>
    6b2c:	892a                	mv	s2,a0
    6b2e:	1f9000ef          	jal	ra,7526 <__malloc_lock>
    6b32:	81818793          	addi	a5,gp,-2024 # 20001750 <__malloc_free_list>
    6b36:	4398                	lw	a4,0(a5)
    6b38:	843a                	mv	s0,a4
    6b3a:	e429                	bnez	s0,6b84 <_malloc_r+0x78>
    6b3c:	81c18793          	addi	a5,gp,-2020 # 20001754 <__malloc_sbrk_start>
    6b40:	439c                	lw	a5,0(a5)
    6b42:	e799                	bnez	a5,6b50 <_malloc_r+0x44>
    6b44:	4581                	li	a1,0
    6b46:	854a                	mv	a0,s2
    6b48:	7de000ef          	jal	ra,7326 <_sbrk_r>
    6b4c:	80a1ae23          	sw	a0,-2020(gp) # 20001754 <__malloc_sbrk_start>
    6b50:	85a6                	mv	a1,s1
    6b52:	854a                	mv	a0,s2
    6b54:	7d2000ef          	jal	ra,7326 <_sbrk_r>
    6b58:	59fd                	li	s3,-1
    6b5a:	07351963          	bne	a0,s3,6bcc <_malloc_r+0xc0>
    6b5e:	47b1                	li	a5,12
    6b60:	00f92023          	sw	a5,0(s2)
    6b64:	854a                	mv	a0,s2
    6b66:	1c3000ef          	jal	ra,7528 <__malloc_unlock>
    6b6a:	a029                	j	6b74 <_malloc_r+0x68>
    6b6c:	fa04dee3          	bgez	s1,6b28 <_malloc_r+0x1c>
    6b70:	47b1                	li	a5,12
    6b72:	c11c                	sw	a5,0(a0)
    6b74:	4501                	li	a0,0
    6b76:	40f2                	lw	ra,28(sp)
    6b78:	4462                	lw	s0,24(sp)
    6b7a:	44d2                	lw	s1,20(sp)
    6b7c:	4942                	lw	s2,16(sp)
    6b7e:	49b2                	lw	s3,12(sp)
    6b80:	6105                	addi	sp,sp,32
    6b82:	8082                	ret
    6b84:	401c                	lw	a5,0(s0)
    6b86:	8f85                	sub	a5,a5,s1
    6b88:	0207cf63          	bltz	a5,6bc6 <_malloc_r+0xba>
    6b8c:	46ad                	li	a3,11
    6b8e:	00f6f663          	bgeu	a3,a5,6b9a <_malloc_r+0x8e>
    6b92:	c01c                	sw	a5,0(s0)
    6b94:	943e                	add	s0,s0,a5
    6b96:	c004                	sw	s1,0(s0)
    6b98:	a031                	j	6ba4 <_malloc_r+0x98>
    6b9a:	405c                	lw	a5,4(s0)
    6b9c:	02871363          	bne	a4,s0,6bc2 <_malloc_r+0xb6>
    6ba0:	80f1ac23          	sw	a5,-2024(gp) # 20001750 <__malloc_free_list>
    6ba4:	854a                	mv	a0,s2
    6ba6:	183000ef          	jal	ra,7528 <__malloc_unlock>
    6baa:	00b40513          	addi	a0,s0,11
    6bae:	00440793          	addi	a5,s0,4
    6bb2:	9961                	andi	a0,a0,-8
    6bb4:	40f50733          	sub	a4,a0,a5
    6bb8:	df5d                	beqz	a4,6b76 <_malloc_r+0x6a>
    6bba:	943a                	add	s0,s0,a4
    6bbc:	8f89                	sub	a5,a5,a0
    6bbe:	c01c                	sw	a5,0(s0)
    6bc0:	bf5d                	j	6b76 <_malloc_r+0x6a>
    6bc2:	c35c                	sw	a5,4(a4)
    6bc4:	b7c5                	j	6ba4 <_malloc_r+0x98>
    6bc6:	8722                	mv	a4,s0
    6bc8:	4040                	lw	s0,4(s0)
    6bca:	bf85                	j	6b3a <_malloc_r+0x2e>
    6bcc:	00350413          	addi	s0,a0,3
    6bd0:	9871                	andi	s0,s0,-4
    6bd2:	fc8502e3          	beq	a0,s0,6b96 <_malloc_r+0x8a>
    6bd6:	40a405b3          	sub	a1,s0,a0
    6bda:	854a                	mv	a0,s2
    6bdc:	27a9                	jal	7326 <_sbrk_r>
    6bde:	fb351ce3          	bne	a0,s3,6b96 <_malloc_r+0x8a>
    6be2:	bfb5                	j	6b5e <_malloc_r+0x52>

00006be4 <__sfputc_r>:
__sfputc_r():
    6be4:	461c                	lw	a5,8(a2)
    6be6:	17fd                	addi	a5,a5,-1
    6be8:	c61c                	sw	a5,8(a2)
    6bea:	0007da63          	bgez	a5,6bfe <__sfputc_r+0x1a>
    6bee:	4e18                	lw	a4,24(a2)
    6bf0:	00e7c563          	blt	a5,a4,6bfa <__sfputc_r+0x16>
    6bf4:	47a9                	li	a5,10
    6bf6:	00f59463          	bne	a1,a5,6bfe <__sfputc_r+0x1a>
    6bfa:	fd6ff06f          	j	63d0 <__swbuf_r>
    6bfe:	421c                	lw	a5,0(a2)
    6c00:	852e                	mv	a0,a1
    6c02:	00178713          	addi	a4,a5,1
    6c06:	c218                	sw	a4,0(a2)
    6c08:	00b78023          	sb	a1,0(a5)
    6c0c:	8082                	ret

00006c0e <__sfputs_r>:
__sfputs_r():
    6c0e:	1101                	addi	sp,sp,-32
    6c10:	cc22                	sw	s0,24(sp)
    6c12:	ca26                	sw	s1,20(sp)
    6c14:	c84a                	sw	s2,16(sp)
    6c16:	c64e                	sw	s3,12(sp)
    6c18:	c452                	sw	s4,8(sp)
    6c1a:	ce06                	sw	ra,28(sp)
    6c1c:	892a                	mv	s2,a0
    6c1e:	89ae                	mv	s3,a1
    6c20:	8432                	mv	s0,a2
    6c22:	00d604b3          	add	s1,a2,a3
    6c26:	5a7d                	li	s4,-1
    6c28:	00941463          	bne	s0,s1,6c30 <__sfputs_r+0x22>
    6c2c:	4501                	li	a0,0
    6c2e:	a809                	j	6c40 <__sfputs_r+0x32>
    6c30:	00044583          	lbu	a1,0(s0)
    6c34:	864e                	mv	a2,s3
    6c36:	854a                	mv	a0,s2
    6c38:	3775                	jal	6be4 <__sfputc_r>
    6c3a:	0405                	addi	s0,s0,1
    6c3c:	ff4516e3          	bne	a0,s4,6c28 <__sfputs_r+0x1a>
    6c40:	40f2                	lw	ra,28(sp)
    6c42:	4462                	lw	s0,24(sp)
    6c44:	44d2                	lw	s1,20(sp)
    6c46:	4942                	lw	s2,16(sp)
    6c48:	49b2                	lw	s3,12(sp)
    6c4a:	4a22                	lw	s4,8(sp)
    6c4c:	6105                	addi	sp,sp,32
    6c4e:	8082                	ret

00006c50 <_vfiprintf_r>:
_vfiprintf_r():
    6c50:	7135                	addi	sp,sp,-160
    6c52:	cd22                	sw	s0,152(sp)
    6c54:	cb26                	sw	s1,148(sp)
    6c56:	c94a                	sw	s2,144(sp)
    6c58:	c74e                	sw	s3,140(sp)
    6c5a:	cf06                	sw	ra,156(sp)
    6c5c:	c552                	sw	s4,136(sp)
    6c5e:	c356                	sw	s5,132(sp)
    6c60:	c15a                	sw	s6,128(sp)
    6c62:	dede                	sw	s7,124(sp)
    6c64:	dce2                	sw	s8,120(sp)
    6c66:	dae6                	sw	s9,116(sp)
    6c68:	89aa                	mv	s3,a0
    6c6a:	84ae                	mv	s1,a1
    6c6c:	8932                	mv	s2,a2
    6c6e:	8436                	mv	s0,a3
    6c70:	c509                	beqz	a0,6c7a <_vfiprintf_r+0x2a>
    6c72:	4d1c                	lw	a5,24(a0)
    6c74:	e399                	bnez	a5,6c7a <_vfiprintf_r+0x2a>
    6c76:	b81ff0ef          	jal	ra,67f6 <__sinit>
    6c7a:	00001797          	auipc	a5,0x1
    6c7e:	bee78793          	addi	a5,a5,-1042 # 7868 <__sf_fake_stdin>
    6c82:	0cf49c63          	bne	s1,a5,6d5a <_vfiprintf_r+0x10a>
    6c86:	0049a483          	lw	s1,4(s3)
    6c8a:	00c4d783          	lhu	a5,12(s1)
    6c8e:	8ba1                	andi	a5,a5,8
    6c90:	c7fd                	beqz	a5,6d7e <_vfiprintf_r+0x12e>
    6c92:	489c                	lw	a5,16(s1)
    6c94:	c7ed                	beqz	a5,6d7e <_vfiprintf_r+0x12e>
    6c96:	02000793          	li	a5,32
    6c9a:	02f104a3          	sb	a5,41(sp)
    6c9e:	03000793          	li	a5,48
    6ca2:	d202                	sw	zero,36(sp)
    6ca4:	02f10523          	sb	a5,42(sp)
    6ca8:	c622                	sw	s0,12(sp)
    6caa:	02500b93          	li	s7,37
    6cae:	00001a97          	auipc	s5,0x1
    6cb2:	bfaa8a93          	addi	s5,s5,-1030 # 78a8 <__sf_fake_stdout+0x20>
    6cb6:	4c05                	li	s8,1
    6cb8:	4b29                	li	s6,10
    6cba:	844a                	mv	s0,s2
    6cbc:	00044783          	lbu	a5,0(s0)
    6cc0:	c399                	beqz	a5,6cc6 <_vfiprintf_r+0x76>
    6cc2:	0f779163          	bne	a5,s7,6da4 <_vfiprintf_r+0x154>
    6cc6:	41240cb3          	sub	s9,s0,s2
    6cca:	000c8d63          	beqz	s9,6ce4 <_vfiprintf_r+0x94>
    6cce:	86e6                	mv	a3,s9
    6cd0:	864a                	mv	a2,s2
    6cd2:	85a6                	mv	a1,s1
    6cd4:	854e                	mv	a0,s3
    6cd6:	3f25                	jal	6c0e <__sfputs_r>
    6cd8:	57fd                	li	a5,-1
    6cda:	1ef50763          	beq	a0,a5,6ec8 <_vfiprintf_r+0x278>
    6cde:	5692                	lw	a3,36(sp)
    6ce0:	96e6                	add	a3,a3,s9
    6ce2:	d236                	sw	a3,36(sp)
    6ce4:	00044783          	lbu	a5,0(s0)
    6ce8:	1e078063          	beqz	a5,6ec8 <_vfiprintf_r+0x278>
    6cec:	57fd                	li	a5,-1
    6cee:	00140913          	addi	s2,s0,1
    6cf2:	c802                	sw	zero,16(sp)
    6cf4:	ce02                	sw	zero,28(sp)
    6cf6:	ca3e                	sw	a5,20(sp)
    6cf8:	cc02                	sw	zero,24(sp)
    6cfa:	040109a3          	sb	zero,83(sp)
    6cfe:	d482                	sw	zero,104(sp)
    6d00:	00094583          	lbu	a1,0(s2)
    6d04:	4615                	li	a2,5
    6d06:	8556                	mv	a0,s5
    6d08:	005000ef          	jal	ra,750c <memchr>
    6d0c:	00190413          	addi	s0,s2,1
    6d10:	47c2                	lw	a5,16(sp)
    6d12:	e959                	bnez	a0,6da8 <_vfiprintf_r+0x158>
    6d14:	0107f713          	andi	a4,a5,16
    6d18:	c709                	beqz	a4,6d22 <_vfiprintf_r+0xd2>
    6d1a:	02000713          	li	a4,32
    6d1e:	04e109a3          	sb	a4,83(sp)
    6d22:	0087f713          	andi	a4,a5,8
    6d26:	c709                	beqz	a4,6d30 <_vfiprintf_r+0xe0>
    6d28:	02b00713          	li	a4,43
    6d2c:	04e109a3          	sb	a4,83(sp)
    6d30:	00094683          	lbu	a3,0(s2)
    6d34:	02a00713          	li	a4,42
    6d38:	08e68063          	beq	a3,a4,6db8 <_vfiprintf_r+0x168>
    6d3c:	47f2                	lw	a5,28(sp)
    6d3e:	844a                	mv	s0,s2
    6d40:	4681                	li	a3,0
    6d42:	4625                	li	a2,9
    6d44:	00044703          	lbu	a4,0(s0)
    6d48:	00140593          	addi	a1,s0,1
    6d4c:	fd070713          	addi	a4,a4,-48 # ffffdfd0 <_eusrstack+0xdfff5fd0>
    6d50:	0ae67963          	bgeu	a2,a4,6e02 <_vfiprintf_r+0x1b2>
    6d54:	cab5                	beqz	a3,6dc8 <_vfiprintf_r+0x178>
    6d56:	ce3e                	sw	a5,28(sp)
    6d58:	a885                	j	6dc8 <_vfiprintf_r+0x178>
    6d5a:	00001797          	auipc	a5,0x1
    6d5e:	b2e78793          	addi	a5,a5,-1234 # 7888 <__sf_fake_stdout>
    6d62:	00f49563          	bne	s1,a5,6d6c <_vfiprintf_r+0x11c>
    6d66:	0089a483          	lw	s1,8(s3)
    6d6a:	b705                	j	6c8a <_vfiprintf_r+0x3a>
    6d6c:	00001797          	auipc	a5,0x1
    6d70:	adc78793          	addi	a5,a5,-1316 # 7848 <__sf_fake_stderr>
    6d74:	f0f49be3          	bne	s1,a5,6c8a <_vfiprintf_r+0x3a>
    6d78:	00c9a483          	lw	s1,12(s3)
    6d7c:	b739                	j	6c8a <_vfiprintf_r+0x3a>
    6d7e:	85a6                	mv	a1,s1
    6d80:	854e                	mv	a0,s3
    6d82:	f0eff0ef          	jal	ra,6490 <__swsetup_r>
    6d86:	d901                	beqz	a0,6c96 <_vfiprintf_r+0x46>
    6d88:	557d                	li	a0,-1
    6d8a:	40fa                	lw	ra,156(sp)
    6d8c:	446a                	lw	s0,152(sp)
    6d8e:	44da                	lw	s1,148(sp)
    6d90:	494a                	lw	s2,144(sp)
    6d92:	49ba                	lw	s3,140(sp)
    6d94:	4a2a                	lw	s4,136(sp)
    6d96:	4a9a                	lw	s5,132(sp)
    6d98:	4b0a                	lw	s6,128(sp)
    6d9a:	5bf6                	lw	s7,124(sp)
    6d9c:	5c66                	lw	s8,120(sp)
    6d9e:	5cd6                	lw	s9,116(sp)
    6da0:	610d                	addi	sp,sp,160
    6da2:	8082                	ret
    6da4:	0405                	addi	s0,s0,1
    6da6:	bf19                	j	6cbc <_vfiprintf_r+0x6c>
    6da8:	41550533          	sub	a0,a0,s5
    6dac:	00ac1533          	sll	a0,s8,a0
    6db0:	8fc9                	or	a5,a5,a0
    6db2:	c83e                	sw	a5,16(sp)
    6db4:	8922                	mv	s2,s0
    6db6:	b7a9                	j	6d00 <_vfiprintf_r+0xb0>
    6db8:	4732                	lw	a4,12(sp)
    6dba:	00470693          	addi	a3,a4,4
    6dbe:	4318                	lw	a4,0(a4)
    6dc0:	c636                	sw	a3,12(sp)
    6dc2:	02074963          	bltz	a4,6df4 <_vfiprintf_r+0x1a4>
    6dc6:	ce3a                	sw	a4,28(sp)
    6dc8:	00044703          	lbu	a4,0(s0)
    6dcc:	02e00793          	li	a5,46
    6dd0:	04f71f63          	bne	a4,a5,6e2e <_vfiprintf_r+0x1de>
    6dd4:	00144703          	lbu	a4,1(s0)
    6dd8:	02a00793          	li	a5,42
    6ddc:	02f71b63          	bne	a4,a5,6e12 <_vfiprintf_r+0x1c2>
    6de0:	47b2                	lw	a5,12(sp)
    6de2:	0409                	addi	s0,s0,2
    6de4:	00478713          	addi	a4,a5,4
    6de8:	439c                	lw	a5,0(a5)
    6dea:	c63a                	sw	a4,12(sp)
    6dec:	0207c163          	bltz	a5,6e0e <_vfiprintf_r+0x1be>
    6df0:	ca3e                	sw	a5,20(sp)
    6df2:	a835                	j	6e2e <_vfiprintf_r+0x1de>
    6df4:	40e00733          	neg	a4,a4
    6df8:	0027e793          	ori	a5,a5,2
    6dfc:	ce3a                	sw	a4,28(sp)
    6dfe:	c83e                	sw	a5,16(sp)
    6e00:	b7e1                	j	6dc8 <_vfiprintf_r+0x178>
    6e02:	036787b3          	mul	a5,a5,s6
    6e06:	4685                	li	a3,1
    6e08:	842e                	mv	s0,a1
    6e0a:	97ba                	add	a5,a5,a4
    6e0c:	bf25                	j	6d44 <_vfiprintf_r+0xf4>
    6e0e:	57fd                	li	a5,-1
    6e10:	b7c5                	j	6df0 <_vfiprintf_r+0x1a0>
    6e12:	0405                	addi	s0,s0,1
    6e14:	ca02                	sw	zero,20(sp)
    6e16:	4681                	li	a3,0
    6e18:	4781                	li	a5,0
    6e1a:	4625                	li	a2,9
    6e1c:	00044703          	lbu	a4,0(s0)
    6e20:	00140593          	addi	a1,s0,1
    6e24:	fd070713          	addi	a4,a4,-48
    6e28:	06e67663          	bgeu	a2,a4,6e94 <_vfiprintf_r+0x244>
    6e2c:	f2f1                	bnez	a3,6df0 <_vfiprintf_r+0x1a0>
    6e2e:	00044583          	lbu	a1,0(s0)
    6e32:	460d                	li	a2,3
    6e34:	00001517          	auipc	a0,0x1
    6e38:	a7c50513          	addi	a0,a0,-1412 # 78b0 <__sf_fake_stdout+0x28>
    6e3c:	2dc1                	jal	750c <memchr>
    6e3e:	cd11                	beqz	a0,6e5a <_vfiprintf_r+0x20a>
    6e40:	00001797          	auipc	a5,0x1
    6e44:	a7078793          	addi	a5,a5,-1424 # 78b0 <__sf_fake_stdout+0x28>
    6e48:	8d1d                	sub	a0,a0,a5
    6e4a:	04000793          	li	a5,64
    6e4e:	00a797b3          	sll	a5,a5,a0
    6e52:	4542                	lw	a0,16(sp)
    6e54:	0405                	addi	s0,s0,1
    6e56:	8d5d                	or	a0,a0,a5
    6e58:	c82a                	sw	a0,16(sp)
    6e5a:	00044583          	lbu	a1,0(s0)
    6e5e:	4619                	li	a2,6
    6e60:	00001517          	auipc	a0,0x1
    6e64:	a5450513          	addi	a0,a0,-1452 # 78b4 <__sf_fake_stdout+0x2c>
    6e68:	00140913          	addi	s2,s0,1
    6e6c:	02b10423          	sb	a1,40(sp)
    6e70:	2d71                	jal	750c <memchr>
    6e72:	c13d                	beqz	a0,6ed8 <_vfiprintf_r+0x288>
    6e74:	ffff9797          	auipc	a5,0xffff9
    6e78:	18c78793          	addi	a5,a5,396 # 0 <_sinit>
    6e7c:	e795                	bnez	a5,6ea8 <_vfiprintf_r+0x258>
    6e7e:	4742                	lw	a4,16(sp)
    6e80:	47b2                	lw	a5,12(sp)
    6e82:	10077713          	andi	a4,a4,256
    6e86:	cf09                	beqz	a4,6ea0 <_vfiprintf_r+0x250>
    6e88:	0791                	addi	a5,a5,4
    6e8a:	c63e                	sw	a5,12(sp)
    6e8c:	5792                	lw	a5,36(sp)
    6e8e:	97d2                	add	a5,a5,s4
    6e90:	d23e                	sw	a5,36(sp)
    6e92:	b525                	j	6cba <_vfiprintf_r+0x6a>
    6e94:	036787b3          	mul	a5,a5,s6
    6e98:	4685                	li	a3,1
    6e9a:	842e                	mv	s0,a1
    6e9c:	97ba                	add	a5,a5,a4
    6e9e:	bfbd                	j	6e1c <_vfiprintf_r+0x1cc>
    6ea0:	079d                	addi	a5,a5,7
    6ea2:	9be1                	andi	a5,a5,-8
    6ea4:	07a1                	addi	a5,a5,8
    6ea6:	b7d5                	j	6e8a <_vfiprintf_r+0x23a>
    6ea8:	0078                	addi	a4,sp,12
    6eaa:	00000697          	auipc	a3,0x0
    6eae:	d6468693          	addi	a3,a3,-668 # 6c0e <__sfputs_r>
    6eb2:	8626                	mv	a2,s1
    6eb4:	080c                	addi	a1,sp,16
    6eb6:	854e                	mv	a0,s3
    6eb8:	00000097          	auipc	ra,0x0
    6ebc:	000000e7          	jalr	zero # 0 <_sinit>
    6ec0:	57fd                	li	a5,-1
    6ec2:	8a2a                	mv	s4,a0
    6ec4:	fcf514e3          	bne	a0,a5,6e8c <_vfiprintf_r+0x23c>
    6ec8:	00c4d783          	lhu	a5,12(s1)
    6ecc:	0407f793          	andi	a5,a5,64
    6ed0:	ea079ce3          	bnez	a5,6d88 <_vfiprintf_r+0x138>
    6ed4:	5512                	lw	a0,36(sp)
    6ed6:	bd55                	j	6d8a <_vfiprintf_r+0x13a>
    6ed8:	0078                	addi	a4,sp,12
    6eda:	00000697          	auipc	a3,0x0
    6ede:	d3468693          	addi	a3,a3,-716 # 6c0e <__sfputs_r>
    6ee2:	8626                	mv	a2,s1
    6ee4:	080c                	addi	a1,sp,16
    6ee6:	854e                	mv	a0,s3
    6ee8:	2a01                	jal	6ff8 <_printf_i>
    6eea:	bfd9                	j	6ec0 <_vfiprintf_r+0x270>

00006eec <_printf_common>:
_printf_common():
    6eec:	7179                	addi	sp,sp,-48
    6eee:	ca56                	sw	s5,20(sp)
    6ef0:	499c                	lw	a5,16(a1)
    6ef2:	8aba                	mv	s5,a4
    6ef4:	4598                	lw	a4,8(a1)
    6ef6:	d422                	sw	s0,40(sp)
    6ef8:	d226                	sw	s1,36(sp)
    6efa:	ce4e                	sw	s3,28(sp)
    6efc:	cc52                	sw	s4,24(sp)
    6efe:	d606                	sw	ra,44(sp)
    6f00:	d04a                	sw	s2,32(sp)
    6f02:	c85a                	sw	s6,16(sp)
    6f04:	c65e                	sw	s7,12(sp)
    6f06:	89aa                	mv	s3,a0
    6f08:	842e                	mv	s0,a1
    6f0a:	84b2                	mv	s1,a2
    6f0c:	8a36                	mv	s4,a3
    6f0e:	00e7d363          	bge	a5,a4,6f14 <_printf_common+0x28>
    6f12:	87ba                	mv	a5,a4
    6f14:	c09c                	sw	a5,0(s1)
    6f16:	04344703          	lbu	a4,67(s0)
    6f1a:	c319                	beqz	a4,6f20 <_printf_common+0x34>
    6f1c:	0785                	addi	a5,a5,1
    6f1e:	c09c                	sw	a5,0(s1)
    6f20:	401c                	lw	a5,0(s0)
    6f22:	0207f793          	andi	a5,a5,32
    6f26:	c781                	beqz	a5,6f2e <_printf_common+0x42>
    6f28:	409c                	lw	a5,0(s1)
    6f2a:	0789                	addi	a5,a5,2
    6f2c:	c09c                	sw	a5,0(s1)
    6f2e:	00042903          	lw	s2,0(s0)
    6f32:	00697913          	andi	s2,s2,6
    6f36:	00091a63          	bnez	s2,6f4a <_printf_common+0x5e>
    6f3a:	01940b13          	addi	s6,s0,25
    6f3e:	5bfd                	li	s7,-1
    6f40:	445c                	lw	a5,12(s0)
    6f42:	4098                	lw	a4,0(s1)
    6f44:	8f99                	sub	a5,a5,a4
    6f46:	04f94c63          	blt	s2,a5,6f9e <_printf_common+0xb2>
    6f4a:	401c                	lw	a5,0(s0)
    6f4c:	04344683          	lbu	a3,67(s0)
    6f50:	0207f793          	andi	a5,a5,32
    6f54:	00d036b3          	snez	a3,a3
    6f58:	eba5                	bnez	a5,6fc8 <_printf_common+0xdc>
    6f5a:	04340613          	addi	a2,s0,67
    6f5e:	85d2                	mv	a1,s4
    6f60:	854e                	mv	a0,s3
    6f62:	9a82                	jalr	s5
    6f64:	57fd                	li	a5,-1
    6f66:	04f50363          	beq	a0,a5,6fac <_printf_common+0xc0>
    6f6a:	401c                	lw	a5,0(s0)
    6f6c:	4611                	li	a2,4
    6f6e:	4098                	lw	a4,0(s1)
    6f70:	8b99                	andi	a5,a5,6
    6f72:	4454                	lw	a3,12(s0)
    6f74:	4481                	li	s1,0
    6f76:	00c79763          	bne	a5,a2,6f84 <_printf_common+0x98>
    6f7a:	40e684b3          	sub	s1,a3,a4
    6f7e:	0004d363          	bgez	s1,6f84 <_printf_common+0x98>
    6f82:	4481                	li	s1,0
    6f84:	441c                	lw	a5,8(s0)
    6f86:	4818                	lw	a4,16(s0)
    6f88:	00f75463          	bge	a4,a5,6f90 <_printf_common+0xa4>
    6f8c:	8f99                	sub	a5,a5,a4
    6f8e:	94be                	add	s1,s1,a5
    6f90:	4901                	li	s2,0
    6f92:	0469                	addi	s0,s0,26
    6f94:	5b7d                	li	s6,-1
    6f96:	05249863          	bne	s1,s2,6fe6 <_printf_common+0xfa>
    6f9a:	4501                	li	a0,0
    6f9c:	a809                	j	6fae <_printf_common+0xc2>
    6f9e:	4685                	li	a3,1
    6fa0:	865a                	mv	a2,s6
    6fa2:	85d2                	mv	a1,s4
    6fa4:	854e                	mv	a0,s3
    6fa6:	9a82                	jalr	s5
    6fa8:	01751e63          	bne	a0,s7,6fc4 <_printf_common+0xd8>
    6fac:	557d                	li	a0,-1
    6fae:	50b2                	lw	ra,44(sp)
    6fb0:	5422                	lw	s0,40(sp)
    6fb2:	5492                	lw	s1,36(sp)
    6fb4:	5902                	lw	s2,32(sp)
    6fb6:	49f2                	lw	s3,28(sp)
    6fb8:	4a62                	lw	s4,24(sp)
    6fba:	4ad2                	lw	s5,20(sp)
    6fbc:	4b42                	lw	s6,16(sp)
    6fbe:	4bb2                	lw	s7,12(sp)
    6fc0:	6145                	addi	sp,sp,48
    6fc2:	8082                	ret
    6fc4:	0905                	addi	s2,s2,1
    6fc6:	bfad                	j	6f40 <_printf_common+0x54>
    6fc8:	00d40733          	add	a4,s0,a3
    6fcc:	03000613          	li	a2,48
    6fd0:	04c701a3          	sb	a2,67(a4)
    6fd4:	04544703          	lbu	a4,69(s0)
    6fd8:	00168793          	addi	a5,a3,1
    6fdc:	97a2                	add	a5,a5,s0
    6fde:	0689                	addi	a3,a3,2
    6fe0:	04e781a3          	sb	a4,67(a5)
    6fe4:	bf9d                	j	6f5a <_printf_common+0x6e>
    6fe6:	4685                	li	a3,1
    6fe8:	8622                	mv	a2,s0
    6fea:	85d2                	mv	a1,s4
    6fec:	854e                	mv	a0,s3
    6fee:	9a82                	jalr	s5
    6ff0:	fb650ee3          	beq	a0,s6,6fac <_printf_common+0xc0>
    6ff4:	0905                	addi	s2,s2,1
    6ff6:	b745                	j	6f96 <_printf_common+0xaa>

00006ff8 <_printf_i>:
_printf_i():
    6ff8:	7179                	addi	sp,sp,-48
    6ffa:	d422                	sw	s0,40(sp)
    6ffc:	d226                	sw	s1,36(sp)
    6ffe:	d04a                	sw	s2,32(sp)
    7000:	ce4e                	sw	s3,28(sp)
    7002:	d606                	sw	ra,44(sp)
    7004:	cc52                	sw	s4,24(sp)
    7006:	ca56                	sw	s5,20(sp)
    7008:	c85a                	sw	s6,16(sp)
    700a:	89b6                	mv	s3,a3
    700c:	0185c683          	lbu	a3,24(a1)
    7010:	06900793          	li	a5,105
    7014:	8932                	mv	s2,a2
    7016:	84aa                	mv	s1,a0
    7018:	842e                	mv	s0,a1
    701a:	04358613          	addi	a2,a1,67
    701e:	02f68d63          	beq	a3,a5,7058 <_printf_i+0x60>
    7022:	06d7e263          	bltu	a5,a3,7086 <_printf_i+0x8e>
    7026:	05800793          	li	a5,88
    702a:	18f68763          	beq	a3,a5,71b8 <_printf_i+0x1c0>
    702e:	00d7ed63          	bltu	a5,a3,7048 <_printf_i+0x50>
    7032:	22068063          	beqz	a3,7252 <_printf_i+0x25a>
    7036:	04300793          	li	a5,67
    703a:	0af68e63          	beq	a3,a5,70f6 <_printf_i+0xfe>
    703e:	04240a93          	addi	s5,s0,66
    7042:	04d40123          	sb	a3,66(s0)
    7046:	a0c9                	j	7108 <_printf_i+0x110>
    7048:	06300793          	li	a5,99
    704c:	0af68563          	beq	a3,a5,70f6 <_printf_i+0xfe>
    7050:	06400793          	li	a5,100
    7054:	fef695e3          	bne	a3,a5,703e <_printf_i+0x46>
    7058:	401c                	lw	a5,0(s0)
    705a:	4308                	lw	a0,0(a4)
    705c:	0807f693          	andi	a3,a5,128
    7060:	00450593          	addi	a1,a0,4
    7064:	c6c5                	beqz	a3,710c <_printf_i+0x114>
    7066:	411c                	lw	a5,0(a0)
    7068:	c30c                	sw	a1,0(a4)
    706a:	0007d863          	bgez	a5,707a <_printf_i+0x82>
    706e:	02d00713          	li	a4,45
    7072:	40f007b3          	neg	a5,a5
    7076:	04e401a3          	sb	a4,67(s0)
    707a:	00001697          	auipc	a3,0x1
    707e:	84268693          	addi	a3,a3,-1982 # 78bc <__sf_fake_stdout+0x34>
    7082:	4729                	li	a4,10
    7084:	a86d                	j	713e <_printf_i+0x146>
    7086:	07000793          	li	a5,112
    708a:	16f68363          	beq	a3,a5,71f0 <_printf_i+0x1f8>
    708e:	02d7e563          	bltu	a5,a3,70b8 <_printf_i+0xc0>
    7092:	06e00793          	li	a5,110
    7096:	18f68a63          	beq	a3,a5,722a <_printf_i+0x232>
    709a:	06f00793          	li	a5,111
    709e:	faf690e3          	bne	a3,a5,703e <_printf_i+0x46>
    70a2:	400c                	lw	a1,0(s0)
    70a4:	431c                	lw	a5,0(a4)
    70a6:	0805f813          	andi	a6,a1,128
    70aa:	00478513          	addi	a0,a5,4
    70ae:	06080763          	beqz	a6,711c <_printf_i+0x124>
    70b2:	c308                	sw	a0,0(a4)
    70b4:	439c                	lw	a5,0(a5)
    70b6:	a88d                	j	7128 <_printf_i+0x130>
    70b8:	07500793          	li	a5,117
    70bc:	fef683e3          	beq	a3,a5,70a2 <_printf_i+0xaa>
    70c0:	07800793          	li	a5,120
    70c4:	12f68a63          	beq	a3,a5,71f8 <_printf_i+0x200>
    70c8:	07300793          	li	a5,115
    70cc:	f6f699e3          	bne	a3,a5,703e <_printf_i+0x46>
    70d0:	431c                	lw	a5,0(a4)
    70d2:	41d0                	lw	a2,4(a1)
    70d4:	4581                	li	a1,0
    70d6:	00478693          	addi	a3,a5,4
    70da:	c314                	sw	a3,0(a4)
    70dc:	0007aa83          	lw	s5,0(a5)
    70e0:	8556                	mv	a0,s5
    70e2:	212d                	jal	750c <memchr>
    70e4:	c501                	beqz	a0,70ec <_printf_i+0xf4>
    70e6:	41550533          	sub	a0,a0,s5
    70ea:	c048                	sw	a0,4(s0)
    70ec:	405c                	lw	a5,4(s0)
    70ee:	c81c                	sw	a5,16(s0)
    70f0:	040401a3          	sb	zero,67(s0)
    70f4:	a871                	j	7190 <_printf_i+0x198>
    70f6:	431c                	lw	a5,0(a4)
    70f8:	04240a93          	addi	s5,s0,66
    70fc:	00478693          	addi	a3,a5,4
    7100:	439c                	lw	a5,0(a5)
    7102:	c314                	sw	a3,0(a4)
    7104:	04f40123          	sb	a5,66(s0)
    7108:	4785                	li	a5,1
    710a:	b7d5                	j	70ee <_printf_i+0xf6>
    710c:	0407f693          	andi	a3,a5,64
    7110:	411c                	lw	a5,0(a0)
    7112:	c30c                	sw	a1,0(a4)
    7114:	dab9                	beqz	a3,706a <_printf_i+0x72>
    7116:	07c2                	slli	a5,a5,0x10
    7118:	87c1                	srai	a5,a5,0x10
    711a:	bf81                	j	706a <_printf_i+0x72>
    711c:	0405f593          	andi	a1,a1,64
    7120:	c308                	sw	a0,0(a4)
    7122:	d9c9                	beqz	a1,70b4 <_printf_i+0xbc>
    7124:	0007d783          	lhu	a5,0(a5)
    7128:	06f00713          	li	a4,111
    712c:	0ee68763          	beq	a3,a4,721a <_printf_i+0x222>
    7130:	00000697          	auipc	a3,0x0
    7134:	78c68693          	addi	a3,a3,1932 # 78bc <__sf_fake_stdout+0x34>
    7138:	4729                	li	a4,10
    713a:	040401a3          	sb	zero,67(s0)
    713e:	404c                	lw	a1,4(s0)
    7140:	c40c                	sw	a1,8(s0)
    7142:	0005c563          	bltz	a1,714c <_printf_i+0x154>
    7146:	4008                	lw	a0,0(s0)
    7148:	996d                	andi	a0,a0,-5
    714a:	c008                	sw	a0,0(s0)
    714c:	e399                	bnez	a5,7152 <_printf_i+0x15a>
    714e:	8ab2                	mv	s5,a2
    7150:	cd91                	beqz	a1,716c <_printf_i+0x174>
    7152:	8ab2                	mv	s5,a2
    7154:	02e7f5b3          	remu	a1,a5,a4
    7158:	1afd                	addi	s5,s5,-1
    715a:	95b6                	add	a1,a1,a3
    715c:	0005c583          	lbu	a1,0(a1)
    7160:	00ba8023          	sb	a1,0(s5)
    7164:	02e7d5b3          	divu	a1,a5,a4
    7168:	0ae7ff63          	bgeu	a5,a4,7226 <_printf_i+0x22e>
    716c:	47a1                	li	a5,8
    716e:	00f71e63          	bne	a4,a5,718a <_printf_i+0x192>
    7172:	401c                	lw	a5,0(s0)
    7174:	8b85                	andi	a5,a5,1
    7176:	cb91                	beqz	a5,718a <_printf_i+0x192>
    7178:	4058                	lw	a4,4(s0)
    717a:	481c                	lw	a5,16(s0)
    717c:	00e7c763          	blt	a5,a4,718a <_printf_i+0x192>
    7180:	03000793          	li	a5,48
    7184:	fefa8fa3          	sb	a5,-1(s5)
    7188:	1afd                	addi	s5,s5,-1
    718a:	41560633          	sub	a2,a2,s5
    718e:	c810                	sw	a2,16(s0)
    7190:	874e                	mv	a4,s3
    7192:	86ca                	mv	a3,s2
    7194:	0070                	addi	a2,sp,12
    7196:	85a2                	mv	a1,s0
    7198:	8526                	mv	a0,s1
    719a:	3b89                	jal	6eec <_printf_common>
    719c:	5a7d                	li	s4,-1
    719e:	0b451e63          	bne	a0,s4,725a <_printf_i+0x262>
    71a2:	557d                	li	a0,-1
    71a4:	50b2                	lw	ra,44(sp)
    71a6:	5422                	lw	s0,40(sp)
    71a8:	5492                	lw	s1,36(sp)
    71aa:	5902                	lw	s2,32(sp)
    71ac:	49f2                	lw	s3,28(sp)
    71ae:	4a62                	lw	s4,24(sp)
    71b0:	4ad2                	lw	s5,20(sp)
    71b2:	4b42                	lw	s6,16(sp)
    71b4:	6145                	addi	sp,sp,48
    71b6:	8082                	ret
    71b8:	04d582a3          	sb	a3,69(a1)
    71bc:	00000697          	auipc	a3,0x0
    71c0:	70068693          	addi	a3,a3,1792 # 78bc <__sf_fake_stdout+0x34>
    71c4:	400c                	lw	a1,0(s0)
    71c6:	4308                	lw	a0,0(a4)
    71c8:	0805f813          	andi	a6,a1,128
    71cc:	411c                	lw	a5,0(a0)
    71ce:	0511                	addi	a0,a0,4
    71d0:	02080d63          	beqz	a6,720a <_printf_i+0x212>
    71d4:	c308                	sw	a0,0(a4)
    71d6:	0015f713          	andi	a4,a1,1
    71da:	c701                	beqz	a4,71e2 <_printf_i+0x1ea>
    71dc:	0205e593          	ori	a1,a1,32
    71e0:	c00c                	sw	a1,0(s0)
    71e2:	4741                	li	a4,16
    71e4:	fbb9                	bnez	a5,713a <_printf_i+0x142>
    71e6:	400c                	lw	a1,0(s0)
    71e8:	fdf5f593          	andi	a1,a1,-33
    71ec:	c00c                	sw	a1,0(s0)
    71ee:	b7b1                	j	713a <_printf_i+0x142>
    71f0:	419c                	lw	a5,0(a1)
    71f2:	0207e793          	ori	a5,a5,32
    71f6:	c19c                	sw	a5,0(a1)
    71f8:	07800793          	li	a5,120
    71fc:	04f402a3          	sb	a5,69(s0)
    7200:	00000697          	auipc	a3,0x0
    7204:	6d068693          	addi	a3,a3,1744 # 78d0 <__sf_fake_stdout+0x48>
    7208:	bf75                	j	71c4 <_printf_i+0x1cc>
    720a:	0405f813          	andi	a6,a1,64
    720e:	c308                	sw	a0,0(a4)
    7210:	fc0803e3          	beqz	a6,71d6 <_printf_i+0x1de>
    7214:	07c2                	slli	a5,a5,0x10
    7216:	83c1                	srli	a5,a5,0x10
    7218:	bf7d                	j	71d6 <_printf_i+0x1de>
    721a:	00000697          	auipc	a3,0x0
    721e:	6a268693          	addi	a3,a3,1698 # 78bc <__sf_fake_stdout+0x34>
    7222:	4721                	li	a4,8
    7224:	bf19                	j	713a <_printf_i+0x142>
    7226:	87ae                	mv	a5,a1
    7228:	b735                	j	7154 <_printf_i+0x15c>
    722a:	4194                	lw	a3,0(a1)
    722c:	431c                	lw	a5,0(a4)
    722e:	49cc                	lw	a1,20(a1)
    7230:	0806f813          	andi	a6,a3,128
    7234:	00478513          	addi	a0,a5,4
    7238:	00080663          	beqz	a6,7244 <_printf_i+0x24c>
    723c:	c308                	sw	a0,0(a4)
    723e:	439c                	lw	a5,0(a5)
    7240:	c38c                	sw	a1,0(a5)
    7242:	a801                	j	7252 <_printf_i+0x25a>
    7244:	c308                	sw	a0,0(a4)
    7246:	0406f693          	andi	a3,a3,64
    724a:	439c                	lw	a5,0(a5)
    724c:	daf5                	beqz	a3,7240 <_printf_i+0x248>
    724e:	00b79023          	sh	a1,0(a5)
    7252:	00042823          	sw	zero,16(s0)
    7256:	8ab2                	mv	s5,a2
    7258:	bf25                	j	7190 <_printf_i+0x198>
    725a:	4814                	lw	a3,16(s0)
    725c:	8656                	mv	a2,s5
    725e:	85ca                	mv	a1,s2
    7260:	8526                	mv	a0,s1
    7262:	9982                	jalr	s3
    7264:	f3450fe3          	beq	a0,s4,71a2 <_printf_i+0x1aa>
    7268:	401c                	lw	a5,0(s0)
    726a:	8b89                	andi	a5,a5,2
    726c:	e78d                	bnez	a5,7296 <_printf_i+0x29e>
    726e:	47b2                	lw	a5,12(sp)
    7270:	4448                	lw	a0,12(s0)
    7272:	f2f559e3          	bge	a0,a5,71a4 <_printf_i+0x1ac>
    7276:	853e                	mv	a0,a5
    7278:	b735                	j	71a4 <_printf_i+0x1ac>
    727a:	4685                	li	a3,1
    727c:	8656                	mv	a2,s5
    727e:	85ca                	mv	a1,s2
    7280:	8526                	mv	a0,s1
    7282:	9982                	jalr	s3
    7284:	f1650fe3          	beq	a0,s6,71a2 <_printf_i+0x1aa>
    7288:	0a05                	addi	s4,s4,1
    728a:	445c                	lw	a5,12(s0)
    728c:	4732                	lw	a4,12(sp)
    728e:	8f99                	sub	a5,a5,a4
    7290:	fefa45e3          	blt	s4,a5,727a <_printf_i+0x282>
    7294:	bfe9                	j	726e <_printf_i+0x276>
    7296:	4a01                	li	s4,0
    7298:	01940a93          	addi	s5,s0,25
    729c:	5b7d                	li	s6,-1
    729e:	b7f5                	j	728a <_printf_i+0x292>

000072a0 <_putc_r>:
_putc_r():
    72a0:	1101                	addi	sp,sp,-32
    72a2:	cc22                	sw	s0,24(sp)
    72a4:	ce06                	sw	ra,28(sp)
    72a6:	842a                	mv	s0,a0
    72a8:	c909                	beqz	a0,72ba <_putc_r+0x1a>
    72aa:	4d1c                	lw	a5,24(a0)
    72ac:	e799                	bnez	a5,72ba <_putc_r+0x1a>
    72ae:	c632                	sw	a2,12(sp)
    72b0:	c42e                	sw	a1,8(sp)
    72b2:	d44ff0ef          	jal	ra,67f6 <__sinit>
    72b6:	4632                	lw	a2,12(sp)
    72b8:	45a2                	lw	a1,8(sp)
    72ba:	00000797          	auipc	a5,0x0
    72be:	5ae78793          	addi	a5,a5,1454 # 7868 <__sf_fake_stdin>
    72c2:	02f61663          	bne	a2,a5,72ee <_putc_r+0x4e>
    72c6:	4050                	lw	a2,4(s0)
    72c8:	461c                	lw	a5,8(a2)
    72ca:	17fd                	addi	a5,a5,-1
    72cc:	c61c                	sw	a5,8(a2)
    72ce:	0407d063          	bgez	a5,730e <_putc_r+0x6e>
    72d2:	4e18                	lw	a4,24(a2)
    72d4:	00e7c763          	blt	a5,a4,72e2 <_putc_r+0x42>
    72d8:	0ff5f793          	andi	a5,a1,255
    72dc:	4729                	li	a4,10
    72de:	02e79863          	bne	a5,a4,730e <_putc_r+0x6e>
    72e2:	8522                	mv	a0,s0
    72e4:	4462                	lw	s0,24(sp)
    72e6:	40f2                	lw	ra,28(sp)
    72e8:	6105                	addi	sp,sp,32
    72ea:	8e6ff06f          	j	63d0 <__swbuf_r>
    72ee:	00000797          	auipc	a5,0x0
    72f2:	59a78793          	addi	a5,a5,1434 # 7888 <__sf_fake_stdout>
    72f6:	00f61463          	bne	a2,a5,72fe <_putc_r+0x5e>
    72fa:	4410                	lw	a2,8(s0)
    72fc:	b7f1                	j	72c8 <_putc_r+0x28>
    72fe:	00000797          	auipc	a5,0x0
    7302:	54a78793          	addi	a5,a5,1354 # 7848 <__sf_fake_stderr>
    7306:	fcf611e3          	bne	a2,a5,72c8 <_putc_r+0x28>
    730a:	4450                	lw	a2,12(s0)
    730c:	bf75                	j	72c8 <_putc_r+0x28>
    730e:	421c                	lw	a5,0(a2)
    7310:	0ff5f513          	andi	a0,a1,255
    7314:	00178713          	addi	a4,a5,1
    7318:	c218                	sw	a4,0(a2)
    731a:	00b78023          	sb	a1,0(a5)
    731e:	40f2                	lw	ra,28(sp)
    7320:	4462                	lw	s0,24(sp)
    7322:	6105                	addi	sp,sp,32
    7324:	8082                	ret

00007326 <_sbrk_r>:
_sbrk_r():
    7326:	1141                	addi	sp,sp,-16
    7328:	c422                	sw	s0,8(sp)
    732a:	842a                	mv	s0,a0
    732c:	852e                	mv	a0,a1
    732e:	1fffc797          	auipc	a5,0x1fffc
    7332:	0e07a123          	sw	zero,226(a5) # 20003410 <errno>
    7336:	c606                	sw	ra,12(sp)
    7338:	2c9d                	jal	75ae <_sbrk>
    733a:	57fd                	li	a5,-1
    733c:	00f51963          	bne	a0,a5,734e <_sbrk_r+0x28>
    7340:	1fffc797          	auipc	a5,0x1fffc
    7344:	0d078793          	addi	a5,a5,208 # 20003410 <errno>
    7348:	439c                	lw	a5,0(a5)
    734a:	c391                	beqz	a5,734e <_sbrk_r+0x28>
    734c:	c01c                	sw	a5,0(s0)
    734e:	40b2                	lw	ra,12(sp)
    7350:	4422                	lw	s0,8(sp)
    7352:	0141                	addi	sp,sp,16
    7354:	8082                	ret

00007356 <__sread>:
__sread():
    7356:	1141                	addi	sp,sp,-16
    7358:	c422                	sw	s0,8(sp)
    735a:	842e                	mv	s0,a1
    735c:	00e59583          	lh	a1,14(a1)
    7360:	c606                	sw	ra,12(sp)
    7362:	22e1                	jal	752a <_read_r>
    7364:	00054963          	bltz	a0,7376 <__sread+0x20>
    7368:	487c                	lw	a5,84(s0)
    736a:	97aa                	add	a5,a5,a0
    736c:	c87c                	sw	a5,84(s0)
    736e:	40b2                	lw	ra,12(sp)
    7370:	4422                	lw	s0,8(sp)
    7372:	0141                	addi	sp,sp,16
    7374:	8082                	ret
    7376:	00c45783          	lhu	a5,12(s0)
    737a:	777d                	lui	a4,0xfffff
    737c:	177d                	addi	a4,a4,-1
    737e:	8ff9                	and	a5,a5,a4
    7380:	00f41623          	sh	a5,12(s0)
    7384:	b7ed                	j	736e <__sread+0x18>

00007386 <__swrite>:
__swrite():
    7386:	00c5d783          	lhu	a5,12(a1)
    738a:	1101                	addi	sp,sp,-32
    738c:	cc22                	sw	s0,24(sp)
    738e:	ca26                	sw	s1,20(sp)
    7390:	c84a                	sw	s2,16(sp)
    7392:	c64e                	sw	s3,12(sp)
    7394:	ce06                	sw	ra,28(sp)
    7396:	1007f793          	andi	a5,a5,256
    739a:	84aa                	mv	s1,a0
    739c:	842e                	mv	s0,a1
    739e:	8932                	mv	s2,a2
    73a0:	89b6                	mv	s3,a3
    73a2:	c791                	beqz	a5,73ae <__swrite+0x28>
    73a4:	00e59583          	lh	a1,14(a1)
    73a8:	4689                	li	a3,2
    73aa:	4601                	li	a2,0
    73ac:	2235                	jal	74d8 <_lseek_r>
    73ae:	00c45783          	lhu	a5,12(s0)
    73b2:	777d                	lui	a4,0xfffff
    73b4:	177d                	addi	a4,a4,-1
    73b6:	8ff9                	and	a5,a5,a4
    73b8:	00f41623          	sh	a5,12(s0)
    73bc:	00e41583          	lh	a1,14(s0)
    73c0:	4462                	lw	s0,24(sp)
    73c2:	40f2                	lw	ra,28(sp)
    73c4:	86ce                	mv	a3,s3
    73c6:	864a                	mv	a2,s2
    73c8:	49b2                	lw	s3,12(sp)
    73ca:	4942                	lw	s2,16(sp)
    73cc:	8526                	mv	a0,s1
    73ce:	44d2                	lw	s1,20(sp)
    73d0:	6105                	addi	sp,sp,32
    73d2:	a83d                	j	7410 <_write_r>

000073d4 <__sseek>:
__sseek():
    73d4:	1141                	addi	sp,sp,-16
    73d6:	c422                	sw	s0,8(sp)
    73d8:	842e                	mv	s0,a1
    73da:	00e59583          	lh	a1,14(a1)
    73de:	c606                	sw	ra,12(sp)
    73e0:	28e5                	jal	74d8 <_lseek_r>
    73e2:	57fd                	li	a5,-1
    73e4:	00c45703          	lhu	a4,12(s0)
    73e8:	00f51b63          	bne	a0,a5,73fe <__sseek+0x2a>
    73ec:	77fd                	lui	a5,0xfffff
    73ee:	17fd                	addi	a5,a5,-1
    73f0:	8ff9                	and	a5,a5,a4
    73f2:	00f41623          	sh	a5,12(s0)
    73f6:	40b2                	lw	ra,12(sp)
    73f8:	4422                	lw	s0,8(sp)
    73fa:	0141                	addi	sp,sp,16
    73fc:	8082                	ret
    73fe:	6785                	lui	a5,0x1
    7400:	8fd9                	or	a5,a5,a4
    7402:	00f41623          	sh	a5,12(s0)
    7406:	c868                	sw	a0,84(s0)
    7408:	b7fd                	j	73f6 <__sseek+0x22>

0000740a <__sclose>:
__sclose():
    740a:	00e59583          	lh	a1,14(a1)
    740e:	a825                	j	7446 <_close_r>

00007410 <_write_r>:
_write_r():
    7410:	1141                	addi	sp,sp,-16
    7412:	c422                	sw	s0,8(sp)
    7414:	842a                	mv	s0,a0
    7416:	852e                	mv	a0,a1
    7418:	85b2                	mv	a1,a2
    741a:	8636                	mv	a2,a3
    741c:	1fffc797          	auipc	a5,0x1fffc
    7420:	fe07aa23          	sw	zero,-12(a5) # 20003410 <errno>
    7424:	c606                	sw	ra,12(sp)
    7426:	957fa0ef          	jal	ra,1d7c <_write>
    742a:	57fd                	li	a5,-1
    742c:	00f51963          	bne	a0,a5,743e <_write_r+0x2e>
    7430:	1fffc797          	auipc	a5,0x1fffc
    7434:	fe078793          	addi	a5,a5,-32 # 20003410 <errno>
    7438:	439c                	lw	a5,0(a5)
    743a:	c391                	beqz	a5,743e <_write_r+0x2e>
    743c:	c01c                	sw	a5,0(s0)
    743e:	40b2                	lw	ra,12(sp)
    7440:	4422                	lw	s0,8(sp)
    7442:	0141                	addi	sp,sp,16
    7444:	8082                	ret

00007446 <_close_r>:
_close_r():
    7446:	1141                	addi	sp,sp,-16
    7448:	c422                	sw	s0,8(sp)
    744a:	842a                	mv	s0,a0
    744c:	852e                	mv	a0,a1
    744e:	1fffc797          	auipc	a5,0x1fffc
    7452:	fc07a123          	sw	zero,-62(a5) # 20003410 <errno>
    7456:	c606                	sw	ra,12(sp)
    7458:	2219                	jal	755e <_close>
    745a:	57fd                	li	a5,-1
    745c:	00f51963          	bne	a0,a5,746e <_close_r+0x28>
    7460:	1fffc797          	auipc	a5,0x1fffc
    7464:	fb078793          	addi	a5,a5,-80 # 20003410 <errno>
    7468:	439c                	lw	a5,0(a5)
    746a:	c391                	beqz	a5,746e <_close_r+0x28>
    746c:	c01c                	sw	a5,0(s0)
    746e:	40b2                	lw	ra,12(sp)
    7470:	4422                	lw	s0,8(sp)
    7472:	0141                	addi	sp,sp,16
    7474:	8082                	ret

00007476 <_fstat_r>:
_fstat_r():
    7476:	1141                	addi	sp,sp,-16
    7478:	c422                	sw	s0,8(sp)
    747a:	842a                	mv	s0,a0
    747c:	852e                	mv	a0,a1
    747e:	85b2                	mv	a1,a2
    7480:	1fffc797          	auipc	a5,0x1fffc
    7484:	f807a823          	sw	zero,-112(a5) # 20003410 <errno>
    7488:	c606                	sw	ra,12(sp)
    748a:	20d5                	jal	756e <_fstat>
    748c:	57fd                	li	a5,-1
    748e:	00f51963          	bne	a0,a5,74a0 <_fstat_r+0x2a>
    7492:	1fffc797          	auipc	a5,0x1fffc
    7496:	f7e78793          	addi	a5,a5,-130 # 20003410 <errno>
    749a:	439c                	lw	a5,0(a5)
    749c:	c391                	beqz	a5,74a0 <_fstat_r+0x2a>
    749e:	c01c                	sw	a5,0(s0)
    74a0:	40b2                	lw	ra,12(sp)
    74a2:	4422                	lw	s0,8(sp)
    74a4:	0141                	addi	sp,sp,16
    74a6:	8082                	ret

000074a8 <_isatty_r>:
_isatty_r():
    74a8:	1141                	addi	sp,sp,-16
    74aa:	c422                	sw	s0,8(sp)
    74ac:	842a                	mv	s0,a0
    74ae:	852e                	mv	a0,a1
    74b0:	1fffc797          	auipc	a5,0x1fffc
    74b4:	f607a023          	sw	zero,-160(a5) # 20003410 <errno>
    74b8:	c606                	sw	ra,12(sp)
    74ba:	20d1                	jal	757e <_isatty>
    74bc:	57fd                	li	a5,-1
    74be:	00f51963          	bne	a0,a5,74d0 <_isatty_r+0x28>
    74c2:	1fffc797          	auipc	a5,0x1fffc
    74c6:	f4e78793          	addi	a5,a5,-178 # 20003410 <errno>
    74ca:	439c                	lw	a5,0(a5)
    74cc:	c391                	beqz	a5,74d0 <_isatty_r+0x28>
    74ce:	c01c                	sw	a5,0(s0)
    74d0:	40b2                	lw	ra,12(sp)
    74d2:	4422                	lw	s0,8(sp)
    74d4:	0141                	addi	sp,sp,16
    74d6:	8082                	ret

000074d8 <_lseek_r>:
_lseek_r():
    74d8:	1141                	addi	sp,sp,-16
    74da:	c422                	sw	s0,8(sp)
    74dc:	842a                	mv	s0,a0
    74de:	852e                	mv	a0,a1
    74e0:	85b2                	mv	a1,a2
    74e2:	8636                	mv	a2,a3
    74e4:	1fffc797          	auipc	a5,0x1fffc
    74e8:	f207a623          	sw	zero,-212(a5) # 20003410 <errno>
    74ec:	c606                	sw	ra,12(sp)
    74ee:	2045                	jal	758e <_lseek>
    74f0:	57fd                	li	a5,-1
    74f2:	00f51963          	bne	a0,a5,7504 <_lseek_r+0x2c>
    74f6:	1fffc797          	auipc	a5,0x1fffc
    74fa:	f1a78793          	addi	a5,a5,-230 # 20003410 <errno>
    74fe:	439c                	lw	a5,0(a5)
    7500:	c391                	beqz	a5,7504 <_lseek_r+0x2c>
    7502:	c01c                	sw	a5,0(s0)
    7504:	40b2                	lw	ra,12(sp)
    7506:	4422                	lw	s0,8(sp)
    7508:	0141                	addi	sp,sp,16
    750a:	8082                	ret

0000750c <memchr>:
memchr():
    750c:	0ff5f593          	andi	a1,a1,255
    7510:	962a                	add	a2,a2,a0
    7512:	00c51463          	bne	a0,a2,751a <memchr+0xe>
    7516:	4501                	li	a0,0
    7518:	8082                	ret
    751a:	00054783          	lbu	a5,0(a0)
    751e:	feb78de3          	beq	a5,a1,7518 <memchr+0xc>
    7522:	0505                	addi	a0,a0,1
    7524:	b7fd                	j	7512 <memchr+0x6>

00007526 <__malloc_lock>:
__malloc_lock():
    7526:	8082                	ret

00007528 <__malloc_unlock>:
__malloc_unlock():
    7528:	8082                	ret

0000752a <_read_r>:
_read_r():
    752a:	1141                	addi	sp,sp,-16
    752c:	c422                	sw	s0,8(sp)
    752e:	842a                	mv	s0,a0
    7530:	852e                	mv	a0,a1
    7532:	85b2                	mv	a1,a2
    7534:	8636                	mv	a2,a3
    7536:	1fffc797          	auipc	a5,0x1fffc
    753a:	ec07ad23          	sw	zero,-294(a5) # 20003410 <errno>
    753e:	c606                	sw	ra,12(sp)
    7540:	28b9                	jal	759e <_read>
    7542:	57fd                	li	a5,-1
    7544:	00f51963          	bne	a0,a5,7556 <_read_r+0x2c>
    7548:	1fffc797          	auipc	a5,0x1fffc
    754c:	ec878793          	addi	a5,a5,-312 # 20003410 <errno>
    7550:	439c                	lw	a5,0(a5)
    7552:	c391                	beqz	a5,7556 <_read_r+0x2c>
    7554:	c01c                	sw	a5,0(s0)
    7556:	40b2                	lw	ra,12(sp)
    7558:	4422                	lw	s0,8(sp)
    755a:	0141                	addi	sp,sp,16
    755c:	8082                	ret

0000755e <_close>:
_close():
    755e:	05800793          	li	a5,88
    7562:	1fffc717          	auipc	a4,0x1fffc
    7566:	eaf72723          	sw	a5,-338(a4) # 20003410 <errno>
    756a:	557d                	li	a0,-1
    756c:	8082                	ret

0000756e <_fstat>:
_fstat():
    756e:	05800793          	li	a5,88
    7572:	1fffc717          	auipc	a4,0x1fffc
    7576:	e8f72f23          	sw	a5,-354(a4) # 20003410 <errno>
    757a:	557d                	li	a0,-1
    757c:	8082                	ret

0000757e <_isatty>:
_isatty():
    757e:	05800793          	li	a5,88
    7582:	1fffc717          	auipc	a4,0x1fffc
    7586:	e8f72723          	sw	a5,-370(a4) # 20003410 <errno>
    758a:	4501                	li	a0,0
    758c:	8082                	ret

0000758e <_lseek>:
_lseek():
    758e:	05800793          	li	a5,88
    7592:	1fffc717          	auipc	a4,0x1fffc
    7596:	e6f72f23          	sw	a5,-386(a4) # 20003410 <errno>
    759a:	557d                	li	a0,-1
    759c:	8082                	ret

0000759e <_read>:
_read():
    759e:	05800793          	li	a5,88
    75a2:	1fffc717          	auipc	a4,0x1fffc
    75a6:	e6f72723          	sw	a5,-402(a4) # 20003410 <errno>
    75aa:	557d                	li	a0,-1
    75ac:	8082                	ret

000075ae <_sbrk>:
_sbrk():
    75ae:	82018793          	addi	a5,gp,-2016 # 20001758 <heap_end.1518>
    75b2:	439c                	lw	a5,0(a5)
    75b4:	c791                	beqz	a5,75c0 <_sbrk+0x12>
    75b6:	953e                	add	a0,a0,a5
    75b8:	82a1a023          	sw	a0,-2016(gp) # 20001758 <heap_end.1518>
    75bc:	853e                	mv	a0,a5
    75be:	8082                	ret
    75c0:	1fffc797          	auipc	a5,0x1fffc
    75c4:	e5478793          	addi	a5,a5,-428 # 20003414 <_ebss>
    75c8:	953e                	add	a0,a0,a5
    75ca:	82a1a023          	sw	a0,-2016(gp) # 20001758 <heap_end.1518>
    75ce:	853e                	mv	a0,a5
    75d0:	8082                	ret
    75d2:	0000                	unimp
    75d4:	a6ce                	fsd	fs3,328(sp)
    75d6:	ffff                	0xffff
    75d8:	a6f6                	fsd	ft9,328(sp)
    75da:	ffff                	0xffff
    75dc:	a71e                	fsd	ft7,392(sp)
    75de:	ffff                	0xffff
    75e0:	a736                	fsd	fa3,392(sp)
    75e2:	ffff                	0xffff
    75e4:	a750                	fsd	fa2,136(a4)
    75e6:	ffff                	0xffff
    75e8:	38354843          	fmadd.s	fa6,fa0,ft3,ft7,rmm
    75ec:	5f78                	lw	a4,124(a4)
    75ee:	4c42                	lw	s8,16(sp)
    75f0:	5f45                	li	t5,-15
    75f2:	494c                	lw	a1,20(a0)
    75f4:	5f42                	lw	t5,48(sp)
    75f6:	3156                	fld	ft2,368(sp)
    75f8:	342e                	fld	fs0,232(sp)
    75fa:	0000                	unimp
    75fc:	6568                	flw	fa0,76(a0)
    75fe:	6461                	lui	s0,0x18
    7600:	6620                	flw	fs0,72(a2)
    7602:	6c69                	lui	s8,0x1a
    7604:	2065                	jal	76ac <MouseRepDesc+0xc>
    7606:	7265                	lui	tp,0xffff9
    7608:	6f72                	flw	ft10,28(sp)
    760a:	2e72                	fld	ft8,280(sp)
    760c:	2e2e                	fld	ft8,200(sp)
    760e:	0000                	unimp
    7610:	494c                	lw	a1,20(a0)
    7612:	2042                	fld	ft0,16(sp)
    7614:	6e69                	lui	t3,0x1a
    7616:	7469                	lui	s0,0xffffa
    7618:	6520                	flw	fs0,72(a0)
    761a:	7272                	flw	ft4,60(sp)
    761c:	6320726f          	jal	tp,ec4e <_data_lma+0x7362>
    7620:	3a65646f          	jal	s0,5d9c6 <_data_lma+0x560da>
    7624:	2520                	fld	fs0,72(a0)
    7626:	2078                	fld	fa4,192(s0)
    7628:	2e2e                	fld	ft8,200(sp)
    762a:	0a2e                	slli	s4,s4,0xb
    762c:	0000                	unimp
    762e:	0000                	unimp
    7630:	202a                	fld	ft0,136(sp)
    7632:	0000                	unimp
    7634:	b1fe                	fsd	ft11,224(sp)
    7636:	ffff                	0xffff
    7638:	b184                	fsd	fs1,32(a1)
    763a:	ffff                	0xffff
    763c:	b0a2                	fsd	fs0,96(sp)
    763e:	ffff                	0xffff
    7640:	b0a2                	fsd	fs0,96(sp)
    7642:	ffff                	0xffff
    7644:	b0a2                	fsd	fs0,96(sp)
    7646:	ffff                	0xffff
    7648:	b15a                	fsd	fs6,160(sp)
    764a:	ffff                	0xffff
    764c:	affc                	fsd	fa5,216(a5)
    764e:	ffff                	0xffff
    7650:	b0a2                	fsd	fs0,96(sp)
    7652:	ffff                	0xffff
    7654:	b164                	fsd	fs1,224(a0)
    7656:	ffff                	0xffff
    7658:	b17a                	fsd	ft10,160(sp)
    765a:	ffff                	0xffff
    765c:	b1f8                	fsd	fa4,224(a1)
    765e:	ffff                	0xffff

00007660 <KeyRepDesc>:
    7660:	0105 0609 01a1 0705 e019 e729 0015 0125     ..........)...%.
    7670:	0175 0895 0281 0195 0875 0181 0395 0175     u.......u.....u.
    7680:	0805 0119 0329 0291 0595 0175 0191 0695     ....).....u.....
    7690:	0875 ff26 0500 1907 2900 8191 c000 0000     u.&......)......

000076a0 <MouseRepDesc>:
    76a0:	0105 0209 01a1 0109 00a1 0905 0119 0329     ..............).
    76b0:	0015 0125 0175 0395 0281 0575 0195 0181     ..%.u.....u.....
    76c0:	0105 3009 3109 3809 8115 7f25 0875 0395     ...0.1.8..%.u...
    76d0:	0681 c0c0                                   ....

000076d4 <MyCfgDescr>:
    76d4:	0209 006b 0104 a000 0932 0004 0100 0103     ..k.....2.......
    76e4:	0001 2109 0111 0100 3e22 0700 8105 0803     ...!....">......
    76f4:	0a00 0409 0001 0301 0201 0900 1021 0001     ............!...
    7704:	2201 0034 0507 0382 0004 090a 0204 0100     ."4.............
    7714:	0103 0000 2109 0110 0100 2122 0700 8305     .....!...."!....
    7724:	0103 0a00 0409 0003 0002 0000 0700 8405     ................
    7734:	4002 0000 0507 0204 0040 0000               .@......@...

00007740 <MyDevDescr>:
    7740:	0112 0110 0000 4000 434a 5540 0101 0201     .......@JC@U....
    7750:	0100 0000                                   ....

00007754 <MyManuInfo>:
    7754:	030e 006c 0061 0062 0034 0031 0038 0000     ..l.a.b.4.1.8...

00007764 <MyProdInfo>:
    7764:	030a 0054 0050 0037 0038 0000               ..T.P.7.8...

00007770 <VolumeRepDesc>:
    7770:	0c05 0109 01a1 b009 b509 b609 e909 ea09     ................
    7780:	e209 b109 b709 0015 0125 0895 0175 0281     ........%...u...
    7790:	00c0 0000 7263 2063 7265 6f72 0072 0000     ....crc error...
    77a0:	616d 6374 2068 7974 6570 6520 7272 726f     match type error
    77b0:	0000 0000 7874 7220 6365 2c76 7372 6973     ....tx recv,rssi
    77c0:	253a 0a64 0000 0000 656c 3a6e 6425 002d     :%d.....len:%d-.
    77d0:	7825 0020 6572 6563 7669 2065 7265 2172     %x .receive err!
    77e0:	0000 0000 7872 7220 6365 2c76 7220 7373     ....rx recv, rss
    77f0:	3a69 2520 0a64 0000 5453 3a41 2520 0a78     i: %d...STA: %x.
    7800:	0000 0000 6672 3220 342e 2067 6e69 7469     ....rf 2.4g init
    7810:	203a 7825 000a 0000 5852 6d20 646f 2e65     : %x....RX mode.
    7820:	7473 7461 2065 203d 7825 000a 7473 7261     state = %x..star
    7830:	2e74 0000                                   t...

00007834 <VER_LIB>:
    7834:	4843 3835 5f78 4c42 5f45 494c 5f42 3156     CH58x_BLE_LIB_V1
    7844:	342e 0031                                   .41.

00007848 <__sf_fake_stderr>:
	...

00007868 <__sf_fake_stdin>:
	...

00007888 <__sf_fake_stdout>:
	...
    78a8:	2d23 2b30 0020 0000 6c68 004c 6665 4567     #-0+ ...hlL.efgE
    78b8:	4746 0000 3130 3332 3534 3736 3938 4241     FG..0123456789AB
    78c8:	4443 4645 0000 0000 3130 3332 3534 3736     CDEF....01234567
    78d8:	3938 6261 6463 6665 0000 0000               89abcdef....

000078e4 <MyLangDescr>:
    78e4:	0304 0409                                   ....

000078e8 <_global_impure_ptr>:
    78e8:	16d4 2000                                   ... 
